
LED_TOGGLE1.elf:     file format elf32-littlearm

Sections:
Idx Name          Size      VMA       LMA       File off  Algn
  0 .text         00004ea8  00000000  00000000  00010000  2**4
                  CONTENTS, ALLOC, LOAD, READONLY, CODE
  1 .relocate     0000006c  20000000  00004ea8  00020000  2**2
                  CONTENTS, ALLOC, LOAD, DATA
  2 .bss          00003970  2000006c  00004f14  0002006c  2**2
                  ALLOC
  3 .stack        00002004  200039dc  00008884  0002006c  2**0
                  ALLOC
  4 .ARM.attributes 00000028  00000000  00000000  0002006c  2**0
                  CONTENTS, READONLY
  5 .comment      00000059  00000000  00000000  00020094  2**0
                  CONTENTS, READONLY
  6 .debug_info   00028fe8  00000000  00000000  000200ed  2**0
                  CONTENTS, READONLY, DEBUGGING
  7 .debug_abbrev 00004126  00000000  00000000  000490d5  2**0
                  CONTENTS, READONLY, DEBUGGING
  8 .debug_loc    0000302d  00000000  00000000  0004d1fb  2**0
                  CONTENTS, READONLY, DEBUGGING
  9 .debug_aranges 000009a0  00000000  00000000  00050228  2**0
                  CONTENTS, READONLY, DEBUGGING
 10 .debug_ranges 00000810  00000000  00000000  00050bc8  2**0
                  CONTENTS, READONLY, DEBUGGING
 11 .debug_macro  0002240f  00000000  00000000  000513d8  2**0
                  CONTENTS, READONLY, DEBUGGING
 12 .debug_line   00011db5  00000000  00000000  000737e7  2**0
                  CONTENTS, READONLY, DEBUGGING
 13 .debug_str    000a5cf9  00000000  00000000  0008559c  2**0
                  CONTENTS, READONLY, DEBUGGING
 14 .debug_frame  000024d8  00000000  00000000  0012b298  2**2
                  CONTENTS, READONLY, DEBUGGING

Disassembly of section .text:

00000000 <exception_table>:
       0:	e0 59 00 20 29 3d 00 00 ad 3d 00 00 ad 3d 00 00     .Y. )=...=...=..
	...
      2c:	89 04 00 00 00 00 00 00 00 00 00 00 b1 05 00 00     ................
      3c:	f9 05 00 00 ad 3d 00 00 ad 3d 00 00 ad 3d 00 00     .....=...=...=..
      4c:	ad 3d 00 00 ad 3d 00 00 ad 3d 00 00 ad 3d 00 00     .=...=...=...=..
      5c:	ad 3d 00 00 ad 3d 00 00 29 24 00 00 41 24 00 00     .=...=..)$..A$..
      6c:	59 24 00 00 71 24 00 00 89 24 00 00 a1 24 00 00     Y$..q$...$...$..
      7c:	ad 3d 00 00 75 30 00 00 89 30 00 00 9d 30 00 00     .=..u0...0...0..
      8c:	b1 30 00 00 ad 3d 00 00 ad 3d 00 00 ad 3d 00 00     .0...=...=...=..
      9c:	ad 3d 00 00 ad 3d 00 00 ad 3d 00 00                 .=...=...=..

000000a8 <__do_global_dtors_aux>:
      a8:	b510      	push	{r4, lr}
      aa:	4c06      	ldr	r4, [pc, #24]	; (c4 <__do_global_dtors_aux+0x1c>)
      ac:	7823      	ldrb	r3, [r4, #0]
      ae:	2b00      	cmp	r3, #0
      b0:	d107      	bne.n	c2 <__do_global_dtors_aux+0x1a>
      b2:	4b05      	ldr	r3, [pc, #20]	; (c8 <__do_global_dtors_aux+0x20>)
      b4:	2b00      	cmp	r3, #0
      b6:	d002      	beq.n	be <__do_global_dtors_aux+0x16>
      b8:	4804      	ldr	r0, [pc, #16]	; (cc <__do_global_dtors_aux+0x24>)
      ba:	e000      	b.n	be <__do_global_dtors_aux+0x16>
      bc:	bf00      	nop
      be:	2301      	movs	r3, #1
      c0:	7023      	strb	r3, [r4, #0]
      c2:	bd10      	pop	{r4, pc}
      c4:	2000006c 	.word	0x2000006c
      c8:	00000000 	.word	0x00000000
      cc:	00004ea8 	.word	0x00004ea8

000000d0 <frame_dummy>:
      d0:	4b08      	ldr	r3, [pc, #32]	; (f4 <frame_dummy+0x24>)
      d2:	b510      	push	{r4, lr}
      d4:	2b00      	cmp	r3, #0
      d6:	d003      	beq.n	e0 <frame_dummy+0x10>
      d8:	4907      	ldr	r1, [pc, #28]	; (f8 <frame_dummy+0x28>)
      da:	4808      	ldr	r0, [pc, #32]	; (fc <frame_dummy+0x2c>)
      dc:	e000      	b.n	e0 <frame_dummy+0x10>
      de:	bf00      	nop
      e0:	4807      	ldr	r0, [pc, #28]	; (100 <frame_dummy+0x30>)
      e2:	6803      	ldr	r3, [r0, #0]
      e4:	2b00      	cmp	r3, #0
      e6:	d100      	bne.n	ea <frame_dummy+0x1a>
      e8:	bd10      	pop	{r4, pc}
      ea:	4b06      	ldr	r3, [pc, #24]	; (104 <frame_dummy+0x34>)
      ec:	2b00      	cmp	r3, #0
      ee:	d0fb      	beq.n	e8 <frame_dummy+0x18>
      f0:	4798      	blx	r3
      f2:	e7f9      	b.n	e8 <frame_dummy+0x18>
      f4:	00000000 	.word	0x00000000
      f8:	20000070 	.word	0x20000070
      fc:	00004ea8 	.word	0x00004ea8
     100:	00004ea8 	.word	0x00004ea8
     104:	00000000 	.word	0x00000000

00000108 <vApplicationIdleHook>:

#endif


void vApplicationIdleHook( void )
{
     108:	b580      	push	{r7, lr}
     10a:	af00      	add	r7, sp, #0
	/* enter sleep mode*/
	//__WFI();	
}
     10c:	46c0      	nop			; (mov r8, r8)
     10e:	46bd      	mov	sp, r7
     110:	bd80      	pop	{r7, pc}
	...

00000114 <FreeRtosTasks>:


BaseType_t FreeRtosTasks(void)
{
     114:	b590      	push	{r4, r7, lr}
     116:	b085      	sub	sp, #20
     118:	af02      	add	r7, sp, #8
BaseType_t u32RetType = 1u; 	
     11a:	2301      	movs	r3, #1
     11c:	607b      	str	r3, [r7, #4]
		u32RetType =  xTaskCreate( queue_task_three,"RECEIVE_1_Q_1", 80, 0u, 1u,&sQueue3 );
	}
#endif
#if (SEMAPHORE_TASK)	

    xQueue1 = xQueueCreate( 10, sizeof( int8_t ) );
     11e:	2200      	movs	r2, #0
     120:	2101      	movs	r1, #1
     122:	200a      	movs	r0, #10
     124:	4b12      	ldr	r3, [pc, #72]	; (170 <FreeRtosTasks+0x5c>)
     126:	4798      	blx	r3
     128:	0002      	movs	r2, r0
     12a:	4b12      	ldr	r3, [pc, #72]	; (174 <FreeRtosTasks+0x60>)
     12c:	601a      	str	r2, [r3, #0]
	
	if(xQueue1)
     12e:	4b11      	ldr	r3, [pc, #68]	; (174 <FreeRtosTasks+0x60>)
     130:	681b      	ldr	r3, [r3, #0]
     132:	2b00      	cmp	r3, #0
     134:	d007      	beq.n	146 <FreeRtosTasks+0x32>
	{
			/* Attempt to create a semaphore. */
			xSemaphore = xSemaphoreCreateBinary();
     136:	2203      	movs	r2, #3
     138:	2100      	movs	r1, #0
     13a:	2001      	movs	r0, #1
     13c:	4b0c      	ldr	r3, [pc, #48]	; (170 <FreeRtosTasks+0x5c>)
     13e:	4798      	blx	r3
     140:	0002      	movs	r2, r0
     142:	4b0d      	ldr	r3, [pc, #52]	; (178 <FreeRtosTasks+0x64>)
     144:	601a      	str	r2, [r3, #0]
	else
	{
		/* error*/
	}

	if(u32RetType == 1)
     146:	687b      	ldr	r3, [r7, #4]
     148:	2b01      	cmp	r3, #1
     14a:	d10b      	bne.n	164 <FreeRtosTasks+0x50>
	{
		u32RetType =  xTaskCreate( queue_task_four,"RECEIVE_1_Q_1", 80, 0u, 1u,&sQueue3 );
     14c:	490b      	ldr	r1, [pc, #44]	; (17c <FreeRtosTasks+0x68>)
     14e:	480c      	ldr	r0, [pc, #48]	; (180 <FreeRtosTasks+0x6c>)
     150:	4b0c      	ldr	r3, [pc, #48]	; (184 <FreeRtosTasks+0x70>)
     152:	9301      	str	r3, [sp, #4]
     154:	2301      	movs	r3, #1
     156:	9300      	str	r3, [sp, #0]
     158:	2300      	movs	r3, #0
     15a:	2250      	movs	r2, #80	; 0x50
     15c:	4c0a      	ldr	r4, [pc, #40]	; (188 <FreeRtosTasks+0x74>)
     15e:	47a0      	blx	r4
     160:	0003      	movs	r3, r0
     162:	607b      	str	r3, [r7, #4]
	}

#endif

return u32RetType;
     164:	687b      	ldr	r3, [r7, #4]
}
     166:	0018      	movs	r0, r3
     168:	46bd      	mov	sp, r7
     16a:	b003      	add	sp, #12
     16c:	bd90      	pop	{r4, r7, pc}
     16e:	46c0      	nop			; (mov r8, r8)
     170:	000007c5 	.word	0x000007c5
     174:	20003988 	.word	0x20003988
     178:	2000397c 	.word	0x2000397c
     17c:	00004da8 	.word	0x00004da8
     180:	000001ed 	.word	0x000001ed
     184:	20003974 	.word	0x20003974
     188:	00001011 	.word	0x00001011

0000018c <__sputc_r>:
#else
#define __sgetc_r(__ptr, __p) __sgetc_raw_r(__ptr, __p)
#endif

#ifdef __GNUC__
_ELIDABLE_INLINE int __sputc_r(struct _reent *_ptr, int _c, FILE *_p) {
     18c:	b580      	push	{r7, lr}
     18e:	b084      	sub	sp, #16
     190:	af00      	add	r7, sp, #0
     192:	60f8      	str	r0, [r7, #12]
     194:	60b9      	str	r1, [r7, #8]
     196:	607a      	str	r2, [r7, #4]
#ifdef __SCLE
	if ((_p->_flags & __SCLE) && _c == '\n')
	  __sputc_r (_ptr, '\r', _p);
#endif
	if (--_p->_w >= 0 || (_p->_w >= _p->_lbfsize && (char)_c != '\n'))
     198:	687b      	ldr	r3, [r7, #4]
     19a:	689b      	ldr	r3, [r3, #8]
     19c:	1e5a      	subs	r2, r3, #1
     19e:	687b      	ldr	r3, [r7, #4]
     1a0:	609a      	str	r2, [r3, #8]
     1a2:	687b      	ldr	r3, [r7, #4]
     1a4:	689b      	ldr	r3, [r3, #8]
     1a6:	2b00      	cmp	r3, #0
     1a8:	da09      	bge.n	1be <__sputc_r+0x32>
     1aa:	687b      	ldr	r3, [r7, #4]
     1ac:	689a      	ldr	r2, [r3, #8]
     1ae:	687b      	ldr	r3, [r7, #4]
     1b0:	699b      	ldr	r3, [r3, #24]
     1b2:	429a      	cmp	r2, r3
     1b4:	db0d      	blt.n	1d2 <__sputc_r+0x46>
     1b6:	68bb      	ldr	r3, [r7, #8]
     1b8:	b2db      	uxtb	r3, r3
     1ba:	2b0a      	cmp	r3, #10
     1bc:	d009      	beq.n	1d2 <__sputc_r+0x46>
		return (*_p->_p++ = _c);
     1be:	687b      	ldr	r3, [r7, #4]
     1c0:	681b      	ldr	r3, [r3, #0]
     1c2:	1c59      	adds	r1, r3, #1
     1c4:	687a      	ldr	r2, [r7, #4]
     1c6:	6011      	str	r1, [r2, #0]
     1c8:	68ba      	ldr	r2, [r7, #8]
     1ca:	b2d2      	uxtb	r2, r2
     1cc:	701a      	strb	r2, [r3, #0]
     1ce:	781b      	ldrb	r3, [r3, #0]
     1d0:	e006      	b.n	1e0 <__sputc_r+0x54>
	else
		return (__swbuf_r(_ptr, _c, _p));
     1d2:	687a      	ldr	r2, [r7, #4]
     1d4:	68b9      	ldr	r1, [r7, #8]
     1d6:	68fb      	ldr	r3, [r7, #12]
     1d8:	0018      	movs	r0, r3
     1da:	4b03      	ldr	r3, [pc, #12]	; (1e8 <__sputc_r+0x5c>)
     1dc:	4798      	blx	r3
     1de:	0003      	movs	r3, r0
}
     1e0:	0018      	movs	r0, r3
     1e2:	46bd      	mov	sp, r7
     1e4:	b004      	add	sp, #16
     1e6:	bd80      	pop	{r7, pc}
     1e8:	00004515 	.word	0x00004515

000001ec <queue_task_four>:

#endif
#if (SEMAPHORE_TASK)

void queue_task_four(void)
{
     1ec:	b590      	push	{r4, r7, lr}
     1ee:	b087      	sub	sp, #28
     1f0:	af00      	add	r7, sp, #0
	BaseType_t xStatus;
	uint8_t autRecData[10];
	uint8_t u8RecIndex = 0u;
     1f2:	2317      	movs	r3, #23
     1f4:	18fb      	adds	r3, r7, r3
     1f6:	2200      	movs	r2, #0
     1f8:	701a      	strb	r2, [r3, #0]
	memset(autRecData, 0u, sizeof(autRecData));
     1fa:	1d3b      	adds	r3, r7, #4
     1fc:	220a      	movs	r2, #10
     1fe:	2100      	movs	r1, #0
     200:	0018      	movs	r0, r3
     202:	4b25      	ldr	r3, [pc, #148]	; (298 <queue_task_four+0xac>)
     204:	4798      	blx	r3
	while(1)
	{
		        /* See if we can obtain the semaphore.  If the semaphore is not
        available wait 10 ticks to see if it becomes free. */
        if( xSemaphoreTake( xSemaphore, ( TickType_t ) 10 ) == pdTRUE )
     206:	4b25      	ldr	r3, [pc, #148]	; (29c <queue_task_four+0xb0>)
     208:	681b      	ldr	r3, [r3, #0]
     20a:	210a      	movs	r1, #10
     20c:	0018      	movs	r0, r3
     20e:	4b24      	ldr	r3, [pc, #144]	; (2a0 <queue_task_four+0xb4>)
     210:	4798      	blx	r3
     212:	0003      	movs	r3, r0
     214:	2b01      	cmp	r3, #1
     216:	d1f6      	bne.n	206 <queue_task_four+0x1a>
		{
			
			if(u8RecIndex >= sizeof(auQueue8Data))
     218:	2317      	movs	r3, #23
     21a:	18fb      	adds	r3, r7, r3
     21c:	781b      	ldrb	r3, [r3, #0]
     21e:	2b09      	cmp	r3, #9
     220:	d909      	bls.n	236 <queue_task_four+0x4a>
			{
				u8RecIndex = 0;
     222:	2317      	movs	r3, #23
     224:	18fb      	adds	r3, r7, r3
     226:	2200      	movs	r2, #0
     228:	701a      	strb	r2, [r3, #0]
				memset(autRecData, 0u, sizeof(autRecData));
     22a:	1d3b      	adds	r3, r7, #4
     22c:	220a      	movs	r2, #10
     22e:	2100      	movs	r1, #0
     230:	0018      	movs	r0, r3
     232:	4b19      	ldr	r3, [pc, #100]	; (298 <queue_task_four+0xac>)
     234:	4798      	blx	r3
			}
			xStatus = xQueueReceive( xQueue1, &autRecData[u8RecIndex], pdMS_TO_TICKS( 50000 ) );
     236:	4b1b      	ldr	r3, [pc, #108]	; (2a4 <queue_task_four+0xb8>)
     238:	6818      	ldr	r0, [r3, #0]
     23a:	2317      	movs	r3, #23
     23c:	18fb      	adds	r3, r7, r3
     23e:	781b      	ldrb	r3, [r3, #0]
     240:	1d3a      	adds	r2, r7, #4
     242:	18d3      	adds	r3, r2, r3
     244:	4a18      	ldr	r2, [pc, #96]	; (2a8 <queue_task_four+0xbc>)
     246:	0019      	movs	r1, r3
     248:	4b18      	ldr	r3, [pc, #96]	; (2ac <queue_task_four+0xc0>)
     24a:	4798      	blx	r3
     24c:	0003      	movs	r3, r0
     24e:	613b      	str	r3, [r7, #16]
			if(xStatus == pdPASS)
     250:	693b      	ldr	r3, [r7, #16]
     252:	2b01      	cmp	r3, #1
     254:	d113      	bne.n	27e <queue_task_four+0x92>
			{
				putchar(autRecData[u8RecIndex++]);
     256:	4b16      	ldr	r3, [pc, #88]	; (2b0 <queue_task_four+0xc4>)
     258:	6818      	ldr	r0, [r3, #0]
     25a:	2317      	movs	r3, #23
     25c:	18fb      	adds	r3, r7, r3
     25e:	781b      	ldrb	r3, [r3, #0]
     260:	2217      	movs	r2, #23
     262:	18ba      	adds	r2, r7, r2
     264:	1c59      	adds	r1, r3, #1
     266:	7011      	strb	r1, [r2, #0]
     268:	001a      	movs	r2, r3
     26a:	1d3b      	adds	r3, r7, #4
     26c:	5c9b      	ldrb	r3, [r3, r2]
     26e:	0019      	movs	r1, r3
     270:	4b0f      	ldr	r3, [pc, #60]	; (2b0 <queue_task_four+0xc4>)
     272:	681b      	ldr	r3, [r3, #0]
     274:	689b      	ldr	r3, [r3, #8]
     276:	001a      	movs	r2, r3
     278:	4b0e      	ldr	r3, [pc, #56]	; (2b4 <queue_task_four+0xc8>)
     27a:	4798      	blx	r3
     27c:	e003      	b.n	286 <queue_task_four+0x9a>
			
			}
			else
			{
				puts("error..\r\n");
     27e:	4b0e      	ldr	r3, [pc, #56]	; (2b8 <queue_task_four+0xcc>)
     280:	0018      	movs	r0, r3
     282:	4b0e      	ldr	r3, [pc, #56]	; (2bc <queue_task_four+0xd0>)
     284:	4798      	blx	r3
			}
			/* We have finished accessing the shared resource.  Release the
            semaphore. */
            xSemaphoreGive( xSemaphore );
     286:	4b05      	ldr	r3, [pc, #20]	; (29c <queue_task_four+0xb0>)
     288:	6818      	ldr	r0, [r3, #0]
     28a:	2300      	movs	r3, #0
     28c:	2200      	movs	r2, #0
     28e:	2100      	movs	r1, #0
     290:	4c0b      	ldr	r4, [pc, #44]	; (2c0 <queue_task_four+0xd4>)
     292:	47a0      	blx	r4
        if( xSemaphoreTake( xSemaphore, ( TickType_t ) 10 ) == pdTRUE )
     294:	e7b7      	b.n	206 <queue_task_four+0x1a>
     296:	46c0      	nop			; (mov r8, r8)
     298:	000042c3 	.word	0x000042c3
     29c:	2000397c 	.word	0x2000397c
     2a0:	00000c81 	.word	0x00000c81
     2a4:	20003988 	.word	0x20003988
     2a8:	0000c350 	.word	0x0000c350
     2ac:	00000b29 	.word	0x00000b29
     2b0:	20000008 	.word	0x20000008
     2b4:	0000018d 	.word	0x0000018d
     2b8:	00004db8 	.word	0x00004db8
     2bc:	00004395 	.word	0x00004395
     2c0:	00000875 	.word	0x00000875

000002c4 <vListInitialise>:
/*-----------------------------------------------------------
 * PUBLIC LIST API documented in list.h
 *----------------------------------------------------------*/

void vListInitialise( List_t * const pxList )
{
     2c4:	b580      	push	{r7, lr}
     2c6:	b082      	sub	sp, #8
     2c8:	af00      	add	r7, sp, #0
     2ca:	6078      	str	r0, [r7, #4]
	/* The list structure contains a list item which is used to mark the
	end of the list.  To initialise the list the list end is inserted
	as the only list entry. */
	pxList->pxIndex = ( ListItem_t * ) &( pxList->xListEnd );			/*lint !e826 !e740 !e9087 The mini list structure is used as the list end to save RAM.  This is checked and valid. */
     2cc:	687b      	ldr	r3, [r7, #4]
     2ce:	3308      	adds	r3, #8
     2d0:	001a      	movs	r2, r3
     2d2:	687b      	ldr	r3, [r7, #4]
     2d4:	605a      	str	r2, [r3, #4]

	/* The list end value is the highest possible value in the list to
	ensure it remains at the end of the list. */
	pxList->xListEnd.xItemValue = portMAX_DELAY;
     2d6:	687b      	ldr	r3, [r7, #4]
     2d8:	2201      	movs	r2, #1
     2da:	4252      	negs	r2, r2
     2dc:	609a      	str	r2, [r3, #8]

	/* The list end next and previous pointers point to itself so we know
	when the list is empty. */
	pxList->xListEnd.pxNext = ( ListItem_t * ) &( pxList->xListEnd );	/*lint !e826 !e740 !e9087 The mini list structure is used as the list end to save RAM.  This is checked and valid. */
     2de:	687b      	ldr	r3, [r7, #4]
     2e0:	3308      	adds	r3, #8
     2e2:	001a      	movs	r2, r3
     2e4:	687b      	ldr	r3, [r7, #4]
     2e6:	60da      	str	r2, [r3, #12]
	pxList->xListEnd.pxPrevious = ( ListItem_t * ) &( pxList->xListEnd );/*lint !e826 !e740 !e9087 The mini list structure is used as the list end to save RAM.  This is checked and valid. */
     2e8:	687b      	ldr	r3, [r7, #4]
     2ea:	3308      	adds	r3, #8
     2ec:	001a      	movs	r2, r3
     2ee:	687b      	ldr	r3, [r7, #4]
     2f0:	611a      	str	r2, [r3, #16]

	pxList->uxNumberOfItems = ( UBaseType_t ) 0U;
     2f2:	687b      	ldr	r3, [r7, #4]
     2f4:	2200      	movs	r2, #0
     2f6:	601a      	str	r2, [r3, #0]

	/* Write known values into the list if
	configUSE_LIST_DATA_INTEGRITY_CHECK_BYTES is set to 1. */
	listSET_LIST_INTEGRITY_CHECK_1_VALUE( pxList );
	listSET_LIST_INTEGRITY_CHECK_2_VALUE( pxList );
}
     2f8:	46c0      	nop			; (mov r8, r8)
     2fa:	46bd      	mov	sp, r7
     2fc:	b002      	add	sp, #8
     2fe:	bd80      	pop	{r7, pc}

00000300 <vListInitialiseItem>:
/*-----------------------------------------------------------*/

void vListInitialiseItem( ListItem_t * const pxItem )
{
     300:	b580      	push	{r7, lr}
     302:	b082      	sub	sp, #8
     304:	af00      	add	r7, sp, #0
     306:	6078      	str	r0, [r7, #4]
	/* Make sure the list item is not recorded as being on a list. */
	pxItem->pxContainer = NULL;
     308:	687b      	ldr	r3, [r7, #4]
     30a:	2200      	movs	r2, #0
     30c:	611a      	str	r2, [r3, #16]

	/* Write known values into the list item if
	configUSE_LIST_DATA_INTEGRITY_CHECK_BYTES is set to 1. */
	listSET_FIRST_LIST_ITEM_INTEGRITY_CHECK_VALUE( pxItem );
	listSET_SECOND_LIST_ITEM_INTEGRITY_CHECK_VALUE( pxItem );
}
     30e:	46c0      	nop			; (mov r8, r8)
     310:	46bd      	mov	sp, r7
     312:	b002      	add	sp, #8
     314:	bd80      	pop	{r7, pc}

00000316 <vListInsertEnd>:
/*-----------------------------------------------------------*/

void vListInsertEnd( List_t * const pxList, ListItem_t * const pxNewListItem )
{
     316:	b580      	push	{r7, lr}
     318:	b084      	sub	sp, #16
     31a:	af00      	add	r7, sp, #0
     31c:	6078      	str	r0, [r7, #4]
     31e:	6039      	str	r1, [r7, #0]
ListItem_t * const pxIndex = pxList->pxIndex;
     320:	687b      	ldr	r3, [r7, #4]
     322:	685b      	ldr	r3, [r3, #4]
     324:	60fb      	str	r3, [r7, #12]
	listTEST_LIST_ITEM_INTEGRITY( pxNewListItem );

	/* Insert a new list item into pxList, but rather than sort the list,
	makes the new list item the last item to be removed by a call to
	listGET_OWNER_OF_NEXT_ENTRY(). */
	pxNewListItem->pxNext = pxIndex;
     326:	683b      	ldr	r3, [r7, #0]
     328:	68fa      	ldr	r2, [r7, #12]
     32a:	605a      	str	r2, [r3, #4]
	pxNewListItem->pxPrevious = pxIndex->pxPrevious;
     32c:	68fb      	ldr	r3, [r7, #12]
     32e:	689a      	ldr	r2, [r3, #8]
     330:	683b      	ldr	r3, [r7, #0]
     332:	609a      	str	r2, [r3, #8]

	/* Only used during decision coverage testing. */
	mtCOVERAGE_TEST_DELAY();

	pxIndex->pxPrevious->pxNext = pxNewListItem;
     334:	68fb      	ldr	r3, [r7, #12]
     336:	689b      	ldr	r3, [r3, #8]
     338:	683a      	ldr	r2, [r7, #0]
     33a:	605a      	str	r2, [r3, #4]
	pxIndex->pxPrevious = pxNewListItem;
     33c:	68fb      	ldr	r3, [r7, #12]
     33e:	683a      	ldr	r2, [r7, #0]
     340:	609a      	str	r2, [r3, #8]

	/* Remember which list the item is in. */
	pxNewListItem->pxContainer = pxList;
     342:	683b      	ldr	r3, [r7, #0]
     344:	687a      	ldr	r2, [r7, #4]
     346:	611a      	str	r2, [r3, #16]

	( pxList->uxNumberOfItems )++;
     348:	687b      	ldr	r3, [r7, #4]
     34a:	681b      	ldr	r3, [r3, #0]
     34c:	1c5a      	adds	r2, r3, #1
     34e:	687b      	ldr	r3, [r7, #4]
     350:	601a      	str	r2, [r3, #0]
}
     352:	46c0      	nop			; (mov r8, r8)
     354:	46bd      	mov	sp, r7
     356:	b004      	add	sp, #16
     358:	bd80      	pop	{r7, pc}

0000035a <vListInsert>:
/*-----------------------------------------------------------*/

void vListInsert( List_t * const pxList, ListItem_t * const pxNewListItem )
{
     35a:	b580      	push	{r7, lr}
     35c:	b084      	sub	sp, #16
     35e:	af00      	add	r7, sp, #0
     360:	6078      	str	r0, [r7, #4]
     362:	6039      	str	r1, [r7, #0]
ListItem_t *pxIterator;
const TickType_t xValueOfInsertion = pxNewListItem->xItemValue;
     364:	683b      	ldr	r3, [r7, #0]
     366:	681b      	ldr	r3, [r3, #0]
     368:	60bb      	str	r3, [r7, #8]
	new list item should be placed after it.  This ensures that TCBs which are
	stored in ready lists (all of which have the same xItemValue value) get a
	share of the CPU.  However, if the xItemValue is the same as the back marker
	the iteration loop below will not end.  Therefore the value is checked
	first, and the algorithm slightly modified if necessary. */
	if( xValueOfInsertion == portMAX_DELAY )
     36a:	68bb      	ldr	r3, [r7, #8]
     36c:	3301      	adds	r3, #1
     36e:	d103      	bne.n	378 <vListInsert+0x1e>
	{
		pxIterator = pxList->xListEnd.pxPrevious;
     370:	687b      	ldr	r3, [r7, #4]
     372:	691b      	ldr	r3, [r3, #16]
     374:	60fb      	str	r3, [r7, #12]
     376:	e00c      	b.n	392 <vListInsert+0x38>
			4) Using a queue or semaphore before it has been initialised or
			   before the scheduler has been started (are interrupts firing
			   before vTaskStartScheduler() has been called?).
		**********************************************************************/

		for( pxIterator = ( ListItem_t * ) &( pxList->xListEnd ); pxIterator->pxNext->xItemValue <= xValueOfInsertion; pxIterator = pxIterator->pxNext ) /*lint !e826 !e740 !e9087 The mini list structure is used as the list end to save RAM.  This is checked and valid. *//*lint !e440 The iterator moves to a different value, not xValueOfInsertion. */
     378:	687b      	ldr	r3, [r7, #4]
     37a:	3308      	adds	r3, #8
     37c:	60fb      	str	r3, [r7, #12]
     37e:	e002      	b.n	386 <vListInsert+0x2c>
     380:	68fb      	ldr	r3, [r7, #12]
     382:	685b      	ldr	r3, [r3, #4]
     384:	60fb      	str	r3, [r7, #12]
     386:	68fb      	ldr	r3, [r7, #12]
     388:	685b      	ldr	r3, [r3, #4]
     38a:	681a      	ldr	r2, [r3, #0]
     38c:	68bb      	ldr	r3, [r7, #8]
     38e:	429a      	cmp	r2, r3
     390:	d9f6      	bls.n	380 <vListInsert+0x26>
			/* There is nothing to do here, just iterating to the wanted
			insertion position. */
		}
	}

	pxNewListItem->pxNext = pxIterator->pxNext;
     392:	68fb      	ldr	r3, [r7, #12]
     394:	685a      	ldr	r2, [r3, #4]
     396:	683b      	ldr	r3, [r7, #0]
     398:	605a      	str	r2, [r3, #4]
	pxNewListItem->pxNext->pxPrevious = pxNewListItem;
     39a:	683b      	ldr	r3, [r7, #0]
     39c:	685b      	ldr	r3, [r3, #4]
     39e:	683a      	ldr	r2, [r7, #0]
     3a0:	609a      	str	r2, [r3, #8]
	pxNewListItem->pxPrevious = pxIterator;
     3a2:	683b      	ldr	r3, [r7, #0]
     3a4:	68fa      	ldr	r2, [r7, #12]
     3a6:	609a      	str	r2, [r3, #8]
	pxIterator->pxNext = pxNewListItem;
     3a8:	68fb      	ldr	r3, [r7, #12]
     3aa:	683a      	ldr	r2, [r7, #0]
     3ac:	605a      	str	r2, [r3, #4]

	/* Remember which list the item is in.  This allows fast removal of the
	item later. */
	pxNewListItem->pxContainer = pxList;
     3ae:	683b      	ldr	r3, [r7, #0]
     3b0:	687a      	ldr	r2, [r7, #4]
     3b2:	611a      	str	r2, [r3, #16]

	( pxList->uxNumberOfItems )++;
     3b4:	687b      	ldr	r3, [r7, #4]
     3b6:	681b      	ldr	r3, [r3, #0]
     3b8:	1c5a      	adds	r2, r3, #1
     3ba:	687b      	ldr	r3, [r7, #4]
     3bc:	601a      	str	r2, [r3, #0]
}
     3be:	46c0      	nop			; (mov r8, r8)
     3c0:	46bd      	mov	sp, r7
     3c2:	b004      	add	sp, #16
     3c4:	bd80      	pop	{r7, pc}

000003c6 <uxListRemove>:
/*-----------------------------------------------------------*/

UBaseType_t uxListRemove( ListItem_t * const pxItemToRemove )
{
     3c6:	b580      	push	{r7, lr}
     3c8:	b084      	sub	sp, #16
     3ca:	af00      	add	r7, sp, #0
     3cc:	6078      	str	r0, [r7, #4]
/* The list item knows which list it is in.  Obtain the list from the list
item. */
List_t * const pxList = pxItemToRemove->pxContainer;
     3ce:	687b      	ldr	r3, [r7, #4]
     3d0:	691b      	ldr	r3, [r3, #16]
     3d2:	60fb      	str	r3, [r7, #12]

	pxItemToRemove->pxNext->pxPrevious = pxItemToRemove->pxPrevious;
     3d4:	687b      	ldr	r3, [r7, #4]
     3d6:	685b      	ldr	r3, [r3, #4]
     3d8:	687a      	ldr	r2, [r7, #4]
     3da:	6892      	ldr	r2, [r2, #8]
     3dc:	609a      	str	r2, [r3, #8]
	pxItemToRemove->pxPrevious->pxNext = pxItemToRemove->pxNext;
     3de:	687b      	ldr	r3, [r7, #4]
     3e0:	689b      	ldr	r3, [r3, #8]
     3e2:	687a      	ldr	r2, [r7, #4]
     3e4:	6852      	ldr	r2, [r2, #4]
     3e6:	605a      	str	r2, [r3, #4]

	/* Only used during decision coverage testing. */
	mtCOVERAGE_TEST_DELAY();

	/* Make sure the index is left pointing to a valid item. */
	if( pxList->pxIndex == pxItemToRemove )
     3e8:	68fb      	ldr	r3, [r7, #12]
     3ea:	685a      	ldr	r2, [r3, #4]
     3ec:	687b      	ldr	r3, [r7, #4]
     3ee:	429a      	cmp	r2, r3
     3f0:	d103      	bne.n	3fa <uxListRemove+0x34>
	{
		pxList->pxIndex = pxItemToRemove->pxPrevious;
     3f2:	687b      	ldr	r3, [r7, #4]
     3f4:	689a      	ldr	r2, [r3, #8]
     3f6:	68fb      	ldr	r3, [r7, #12]
     3f8:	605a      	str	r2, [r3, #4]
	else
	{
		mtCOVERAGE_TEST_MARKER();
	}

	pxItemToRemove->pxContainer = NULL;
     3fa:	687b      	ldr	r3, [r7, #4]
     3fc:	2200      	movs	r2, #0
     3fe:	611a      	str	r2, [r3, #16]
	( pxList->uxNumberOfItems )--;
     400:	68fb      	ldr	r3, [r7, #12]
     402:	681b      	ldr	r3, [r3, #0]
     404:	1e5a      	subs	r2, r3, #1
     406:	68fb      	ldr	r3, [r7, #12]
     408:	601a      	str	r2, [r3, #0]

	return pxList->uxNumberOfItems;
     40a:	68fb      	ldr	r3, [r7, #12]
     40c:	681b      	ldr	r3, [r3, #0]
}
     40e:	0018      	movs	r0, r3
     410:	46bd      	mov	sp, r7
     412:	b004      	add	sp, #16
     414:	bd80      	pop	{r7, pc}
	...

00000418 <pxPortInitialiseStack>:

/*
 * See header file for description.
 */
StackType_t *pxPortInitialiseStack( StackType_t *pxTopOfStack, TaskFunction_t pxCode, void *pvParameters )
{
     418:	b580      	push	{r7, lr}
     41a:	b084      	sub	sp, #16
     41c:	af00      	add	r7, sp, #0
     41e:	60f8      	str	r0, [r7, #12]
     420:	60b9      	str	r1, [r7, #8]
     422:	607a      	str	r2, [r7, #4]
	/* Simulate the stack frame as it would be created by a context switch
	interrupt. */
	pxTopOfStack--; /* Offset added to account for the way the MCU uses the stack on entry/exit of interrupts. */
     424:	68fb      	ldr	r3, [r7, #12]
     426:	3b04      	subs	r3, #4
     428:	60fb      	str	r3, [r7, #12]
	*pxTopOfStack = portINITIAL_XPSR;	/* xPSR */
     42a:	68fb      	ldr	r3, [r7, #12]
     42c:	2280      	movs	r2, #128	; 0x80
     42e:	0452      	lsls	r2, r2, #17
     430:	601a      	str	r2, [r3, #0]
	pxTopOfStack--;
     432:	68fb      	ldr	r3, [r7, #12]
     434:	3b04      	subs	r3, #4
     436:	60fb      	str	r3, [r7, #12]
	*pxTopOfStack = ( StackType_t ) pxCode;	/* PC */
     438:	68ba      	ldr	r2, [r7, #8]
     43a:	68fb      	ldr	r3, [r7, #12]
     43c:	601a      	str	r2, [r3, #0]
	pxTopOfStack--;
     43e:	68fb      	ldr	r3, [r7, #12]
     440:	3b04      	subs	r3, #4
     442:	60fb      	str	r3, [r7, #12]
	*pxTopOfStack = ( StackType_t ) portTASK_RETURN_ADDRESS;	/* LR */
     444:	4a08      	ldr	r2, [pc, #32]	; (468 <pxPortInitialiseStack+0x50>)
     446:	68fb      	ldr	r3, [r7, #12]
     448:	601a      	str	r2, [r3, #0]
	pxTopOfStack -= 5;	/* R12, R3, R2 and R1. */
     44a:	68fb      	ldr	r3, [r7, #12]
     44c:	3b14      	subs	r3, #20
     44e:	60fb      	str	r3, [r7, #12]
	*pxTopOfStack = ( StackType_t ) pvParameters;	/* R0 */
     450:	687a      	ldr	r2, [r7, #4]
     452:	68fb      	ldr	r3, [r7, #12]
     454:	601a      	str	r2, [r3, #0]
	pxTopOfStack -= 8; /* R11..R4. */
     456:	68fb      	ldr	r3, [r7, #12]
     458:	3b20      	subs	r3, #32
     45a:	60fb      	str	r3, [r7, #12]

	return pxTopOfStack;
     45c:	68fb      	ldr	r3, [r7, #12]
}
     45e:	0018      	movs	r0, r3
     460:	46bd      	mov	sp, r7
     462:	b004      	add	sp, #16
     464:	bd80      	pop	{r7, pc}
     466:	46c0      	nop			; (mov r8, r8)
     468:	0000046d 	.word	0x0000046d

0000046c <prvTaskExitError>:
/*-----------------------------------------------------------*/

static void prvTaskExitError( void )
{
     46c:	b580      	push	{r7, lr}
     46e:	b082      	sub	sp, #8
     470:	af00      	add	r7, sp, #0
volatile uint32_t ulDummy = 0UL;
     472:	2300      	movs	r3, #0
     474:	607b      	str	r3, [r7, #4]
	should instead call vTaskDelete( NULL ).

	Artificially force an assert() to be triggered if configASSERT() is
	defined, then stop here so application writers can catch the error. */
	configASSERT( uxCriticalNesting == ~0UL );
	portDISABLE_INTERRUPTS();
     476:	b672      	cpsid	i
	while( ulDummy == 0 )
     478:	46c0      	nop			; (mov r8, r8)
     47a:	687b      	ldr	r3, [r7, #4]
     47c:	2b00      	cmp	r3, #0
     47e:	d0fc      	beq.n	47a <prvTaskExitError+0xe>
		about code appearing after this function is called - making ulDummy
		volatile makes the compiler think the function could return and
		therefore not output an 'unreachable code' warning for code that appears
		after it. */
	}
}
     480:	46c0      	nop			; (mov r8, r8)
     482:	46bd      	mov	sp, r7
     484:	b002      	add	sp, #8
     486:	bd80      	pop	{r7, pc}

00000488 <SVC_Handler>:
/*-----------------------------------------------------------*/

void vPortSVCHandler( void )
{
     488:	b580      	push	{r7, lr}
     48a:	af00      	add	r7, sp, #0

	/* This function is no longer used, but retained for backward
	compatibility. */
}
     48c:	46c0      	nop			; (mov r8, r8)
     48e:	46bd      	mov	sp, r7
     490:	bd80      	pop	{r7, pc}
	...

000004a0 <vPortStartFirstTask>:
void vPortStartFirstTask( void )
{
	/* The MSP stack is not reset as, unlike on M3/4 parts, there is no vector
	table offset register that can be used to locate the initial stack value.
	Not all M0 parts have the application vector table at address 0. */
	__asm volatile(
     4a0:	4a0b      	ldr	r2, [pc, #44]	; (4d0 <pxCurrentTCBConst2>)
     4a2:	6813      	ldr	r3, [r2, #0]
     4a4:	6818      	ldr	r0, [r3, #0]
     4a6:	3020      	adds	r0, #32
     4a8:	f380 8809 	msr	PSP, r0
     4ac:	2002      	movs	r0, #2
     4ae:	f380 8814 	msr	CONTROL, r0
     4b2:	f3bf 8f6f 	isb	sy
     4b6:	bc3f      	pop	{r0, r1, r2, r3, r4, r5}
     4b8:	46ae      	mov	lr, r5
     4ba:	bc08      	pop	{r3}
     4bc:	bc04      	pop	{r2}
     4be:	b662      	cpsie	i
     4c0:	4718      	bx	r3
     4c2:	46c0      	nop			; (mov r8, r8)
     4c4:	46c0      	nop			; (mov r8, r8)
     4c6:	46c0      	nop			; (mov r8, r8)
     4c8:	46c0      	nop			; (mov r8, r8)
     4ca:	46c0      	nop			; (mov r8, r8)
     4cc:	46c0      	nop			; (mov r8, r8)
     4ce:	46c0      	nop			; (mov r8, r8)

000004d0 <pxCurrentTCBConst2>:
     4d0:	20003808 	.word	0x20003808
	"	bx   r3						\n" /* Finally, jump to the user defined task code. */
	"								\n"
	"	.align 4					\n"
	"pxCurrentTCBConst2: .word pxCurrentTCB	  "
				  );
}
     4d4:	46c0      	nop			; (mov r8, r8)
     4d6:	46c0      	nop			; (mov r8, r8)

000004d8 <xPortStartScheduler>:

/*
 * See header file for description.
 */
BaseType_t xPortStartScheduler( void )
{
     4d8:	b580      	push	{r7, lr}
     4da:	af00      	add	r7, sp, #0
	/* Make PendSV, CallSV and SysTick the same priroity as the kernel. */
	*(portNVIC_SYSPRI2) |= portNVIC_PENDSV_PRI;
     4dc:	4b0e      	ldr	r3, [pc, #56]	; (518 <xPortStartScheduler+0x40>)
     4de:	4a0e      	ldr	r2, [pc, #56]	; (518 <xPortStartScheduler+0x40>)
     4e0:	6812      	ldr	r2, [r2, #0]
     4e2:	21ff      	movs	r1, #255	; 0xff
     4e4:	0409      	lsls	r1, r1, #16
     4e6:	430a      	orrs	r2, r1
     4e8:	601a      	str	r2, [r3, #0]
	*(portNVIC_SYSPRI2) |= portNVIC_SYSTICK_PRI;
     4ea:	4b0b      	ldr	r3, [pc, #44]	; (518 <xPortStartScheduler+0x40>)
     4ec:	4a0a      	ldr	r2, [pc, #40]	; (518 <xPortStartScheduler+0x40>)
     4ee:	6812      	ldr	r2, [r2, #0]
     4f0:	21ff      	movs	r1, #255	; 0xff
     4f2:	0609      	lsls	r1, r1, #24
     4f4:	430a      	orrs	r2, r1
     4f6:	601a      	str	r2, [r3, #0]

	/* Start the timer that generates the tick ISR.  Interrupts are disabled
	here already. */
	prvSetupTimerInterrupt();
     4f8:	4b08      	ldr	r3, [pc, #32]	; (51c <xPortStartScheduler+0x44>)
     4fa:	4798      	blx	r3

	/* Initialise the critical nesting count ready for the first task. */
	uxCriticalNesting = 0;
     4fc:	4b08      	ldr	r3, [pc, #32]	; (520 <xPortStartScheduler+0x48>)
     4fe:	2200      	movs	r2, #0
     500:	601a      	str	r2, [r3, #0]

	/* Start the first task. */
	vPortStartFirstTask();
     502:	4b08      	ldr	r3, [pc, #32]	; (524 <xPortStartScheduler+0x4c>)
     504:	4798      	blx	r3
	exit error function to prevent compiler warnings about a static function
	not being called in the case that the application writer overrides this
	functionality by defining configTASK_RETURN_ADDRESS.  Call
	vTaskSwitchContext() so link time optimisation does not remove the
	symbol. */
	vTaskSwitchContext();
     506:	4b08      	ldr	r3, [pc, #32]	; (528 <xPortStartScheduler+0x50>)
     508:	4798      	blx	r3
	prvTaskExitError();
     50a:	4b08      	ldr	r3, [pc, #32]	; (52c <xPortStartScheduler+0x54>)
     50c:	4798      	blx	r3

	/* Should not get here! */
	return 0;
     50e:	2300      	movs	r3, #0
}
     510:	0018      	movs	r0, r3
     512:	46bd      	mov	sp, r7
     514:	bd80      	pop	{r7, pc}
     516:	46c0      	nop			; (mov r8, r8)
     518:	e000ed20 	.word	0xe000ed20
     51c:	00000639 	.word	0x00000639
     520:	20000000 	.word	0x20000000
     524:	000004a1 	.word	0x000004a1
     528:	00001585 	.word	0x00001585
     52c:	0000046d 	.word	0x0000046d

00000530 <vPortYield>:
	configASSERT( uxCriticalNesting == 1000UL );
}
/*-----------------------------------------------------------*/

void vPortYield( void )
{
     530:	b580      	push	{r7, lr}
     532:	af00      	add	r7, sp, #0
	/* Set a PendSV to request a context switch. */
	*( portNVIC_INT_CTRL ) = portNVIC_PENDSVSET;
     534:	4b05      	ldr	r3, [pc, #20]	; (54c <vPortYield+0x1c>)
     536:	2280      	movs	r2, #128	; 0x80
     538:	0552      	lsls	r2, r2, #21
     53a:	601a      	str	r2, [r3, #0]

	/* Barriers are normally not required but do ensure the code is completely
	within the specified behaviour for the architecture. */
	__asm volatile( "dsb" ::: "memory" );
     53c:	f3bf 8f4f 	dsb	sy
	__asm volatile( "isb" );
     540:	f3bf 8f6f 	isb	sy
}
     544:	46c0      	nop			; (mov r8, r8)
     546:	46bd      	mov	sp, r7
     548:	bd80      	pop	{r7, pc}
     54a:	46c0      	nop			; (mov r8, r8)
     54c:	e000ed04 	.word	0xe000ed04

00000550 <vPortEnterCritical>:
/*-----------------------------------------------------------*/

void vPortEnterCritical( void )
{
     550:	b580      	push	{r7, lr}
     552:	af00      	add	r7, sp, #0
    portDISABLE_INTERRUPTS();
     554:	b672      	cpsid	i
    uxCriticalNesting++;
     556:	4b06      	ldr	r3, [pc, #24]	; (570 <vPortEnterCritical+0x20>)
     558:	681b      	ldr	r3, [r3, #0]
     55a:	1c5a      	adds	r2, r3, #1
     55c:	4b04      	ldr	r3, [pc, #16]	; (570 <vPortEnterCritical+0x20>)
     55e:	601a      	str	r2, [r3, #0]
	__asm volatile( "dsb" ::: "memory" );
     560:	f3bf 8f4f 	dsb	sy
	__asm volatile( "isb" );
     564:	f3bf 8f6f 	isb	sy
}
     568:	46c0      	nop			; (mov r8, r8)
     56a:	46bd      	mov	sp, r7
     56c:	bd80      	pop	{r7, pc}
     56e:	46c0      	nop			; (mov r8, r8)
     570:	20000000 	.word	0x20000000

00000574 <vPortExitCritical>:
/*-----------------------------------------------------------*/

void vPortExitCritical( void )
{
     574:	b580      	push	{r7, lr}
     576:	af00      	add	r7, sp, #0
	configASSERT( uxCriticalNesting );
    uxCriticalNesting--;
     578:	4b06      	ldr	r3, [pc, #24]	; (594 <vPortExitCritical+0x20>)
     57a:	681b      	ldr	r3, [r3, #0]
     57c:	1e5a      	subs	r2, r3, #1
     57e:	4b05      	ldr	r3, [pc, #20]	; (594 <vPortExitCritical+0x20>)
     580:	601a      	str	r2, [r3, #0]
    if( uxCriticalNesting == 0 )
     582:	4b04      	ldr	r3, [pc, #16]	; (594 <vPortExitCritical+0x20>)
     584:	681b      	ldr	r3, [r3, #0]
     586:	2b00      	cmp	r3, #0
     588:	d100      	bne.n	58c <vPortExitCritical+0x18>
    {
        portENABLE_INTERRUPTS();
     58a:	b662      	cpsie	i
    }
}
     58c:	46c0      	nop			; (mov r8, r8)
     58e:	46bd      	mov	sp, r7
     590:	bd80      	pop	{r7, pc}
     592:	46c0      	nop			; (mov r8, r8)
     594:	20000000 	.word	0x20000000

00000598 <ulSetInterruptMaskFromISR>:
/*-----------------------------------------------------------*/

uint32_t ulSetInterruptMaskFromISR( void )
{
	__asm volatile(
     598:	f3ef 8010 	mrs	r0, PRIMASK
     59c:	b672      	cpsid	i
     59e:	4770      	bx	lr
	/* To avoid compiler warnings.  The return statement will nevere be reached,
	but some compilers warn if it is not included, while others won't compile if
	it is. */
	return 0;
#endif
}
     5a0:	46c0      	nop			; (mov r8, r8)
     5a2:	0018      	movs	r0, r3

000005a4 <vClearInterruptMaskFromISR>:
/*-----------------------------------------------------------*/

void vClearInterruptMaskFromISR( __attribute__( ( unused ) ) uint32_t ulMask )
{
	__asm volatile(
     5a4:	f380 8810 	msr	PRIMASK, r0
     5a8:	4770      	bx	lr
	/* Just to avoid compiler warning.  ulMask is used from the asm code but
	the compiler can't see that.  Some compilers generate warnings without the
	following line, while others generate warnings if the line is included. */
	( void ) ulMask;
#endif
}
     5aa:	46c0      	nop			; (mov r8, r8)
     5ac:	0000      	movs	r0, r0
	...

000005b0 <PendSV_Handler>:

void xPortPendSVHandler( void )
{
	/* This is a naked function. */

	__asm volatile
     5b0:	f3ef 8009 	mrs	r0, PSP
     5b4:	4b0e      	ldr	r3, [pc, #56]	; (5f0 <pxCurrentTCBConst>)
     5b6:	681a      	ldr	r2, [r3, #0]
     5b8:	3820      	subs	r0, #32
     5ba:	6010      	str	r0, [r2, #0]
     5bc:	c0f0      	stmia	r0!, {r4, r5, r6, r7}
     5be:	4644      	mov	r4, r8
     5c0:	464d      	mov	r5, r9
     5c2:	4656      	mov	r6, sl
     5c4:	465f      	mov	r7, fp
     5c6:	c0f0      	stmia	r0!, {r4, r5, r6, r7}
     5c8:	b508      	push	{r3, lr}
     5ca:	b672      	cpsid	i
     5cc:	f000 ffda 	bl	1584 <vTaskSwitchContext>
     5d0:	b662      	cpsie	i
     5d2:	bc0c      	pop	{r2, r3}
     5d4:	6811      	ldr	r1, [r2, #0]
     5d6:	6808      	ldr	r0, [r1, #0]
     5d8:	3010      	adds	r0, #16
     5da:	c8f0      	ldmia	r0!, {r4, r5, r6, r7}
     5dc:	46a0      	mov	r8, r4
     5de:	46a9      	mov	r9, r5
     5e0:	46b2      	mov	sl, r6
     5e2:	46bb      	mov	fp, r7
     5e4:	f380 8809 	msr	PSP, r0
     5e8:	3820      	subs	r0, #32
     5ea:	c8f0      	ldmia	r0!, {r4, r5, r6, r7}
     5ec:	4718      	bx	r3
     5ee:	46c0      	nop			; (mov r8, r8)

000005f0 <pxCurrentTCBConst>:
     5f0:	20003808 	.word	0x20003808
	"	bx r3								\n"
	"										\n"
	"	.align 4							\n"
	"pxCurrentTCBConst: .word pxCurrentTCB	  "
	);
}
     5f4:	46c0      	nop			; (mov r8, r8)
     5f6:	46c0      	nop			; (mov r8, r8)

000005f8 <SysTick_Handler>:
/*-----------------------------------------------------------*/

void xPortSysTickHandler( void )
{
     5f8:	b580      	push	{r7, lr}
     5fa:	b082      	sub	sp, #8
     5fc:	af00      	add	r7, sp, #0
uint32_t ulPreviousMask;

	ulPreviousMask = portSET_INTERRUPT_MASK_FROM_ISR();
     5fe:	4b0a      	ldr	r3, [pc, #40]	; (628 <SysTick_Handler+0x30>)
     600:	4798      	blx	r3
     602:	0003      	movs	r3, r0
     604:	607b      	str	r3, [r7, #4]
	{
		/* Increment the RTOS tick. */
		if( xTaskIncrementTick() != pdFALSE )
     606:	4b09      	ldr	r3, [pc, #36]	; (62c <SysTick_Handler+0x34>)
     608:	4798      	blx	r3
     60a:	1e03      	subs	r3, r0, #0
     60c:	d003      	beq.n	616 <SysTick_Handler+0x1e>
		{
			/* Pend a context switch. */
			*(portNVIC_INT_CTRL) = portNVIC_PENDSVSET;
     60e:	4b08      	ldr	r3, [pc, #32]	; (630 <SysTick_Handler+0x38>)
     610:	2280      	movs	r2, #128	; 0x80
     612:	0552      	lsls	r2, r2, #21
     614:	601a      	str	r2, [r3, #0]
		}
	}
	portCLEAR_INTERRUPT_MASK_FROM_ISR( ulPreviousMask );
     616:	687b      	ldr	r3, [r7, #4]
     618:	0018      	movs	r0, r3
     61a:	4b06      	ldr	r3, [pc, #24]	; (634 <SysTick_Handler+0x3c>)
     61c:	4798      	blx	r3
}
     61e:	46c0      	nop			; (mov r8, r8)
     620:	46bd      	mov	sp, r7
     622:	b002      	add	sp, #8
     624:	bd80      	pop	{r7, pc}
     626:	46c0      	nop			; (mov r8, r8)
     628:	00000599 	.word	0x00000599
     62c:	00001429 	.word	0x00001429
     630:	e000ed04 	.word	0xe000ed04
     634:	000005a5 	.word	0x000005a5

00000638 <prvSetupTimerInterrupt>:
/*
 * Setup the systick timer to generate the tick interrupts at the required
 * frequency.
 */
void prvSetupTimerInterrupt( void )
{
     638:	b580      	push	{r7, lr}
     63a:	af00      	add	r7, sp, #0
	/* Stop and reset the SysTick. */
	*(portNVIC_SYSTICK_CTRL) = 0UL;
     63c:	4b07      	ldr	r3, [pc, #28]	; (65c <prvSetupTimerInterrupt+0x24>)
     63e:	2200      	movs	r2, #0
     640:	601a      	str	r2, [r3, #0]
	*(portNVIC_SYSTICK_CURRENT_VALUE) = 0UL;
     642:	4b07      	ldr	r3, [pc, #28]	; (660 <prvSetupTimerInterrupt+0x28>)
     644:	2200      	movs	r2, #0
     646:	601a      	str	r2, [r3, #0]

	/* Configure SysTick to interrupt at the requested rate. */
	*(portNVIC_SYSTICK_LOAD) = ( configCPU_CLOCK_HZ / configTICK_RATE_HZ ) - 1UL;
     648:	4b06      	ldr	r3, [pc, #24]	; (664 <prvSetupTimerInterrupt+0x2c>)
     64a:	4a07      	ldr	r2, [pc, #28]	; (668 <prvSetupTimerInterrupt+0x30>)
     64c:	601a      	str	r2, [r3, #0]
	*(portNVIC_SYSTICK_CTRL) = portNVIC_SYSTICK_CLK | portNVIC_SYSTICK_INT | portNVIC_SYSTICK_ENABLE;
     64e:	4b03      	ldr	r3, [pc, #12]	; (65c <prvSetupTimerInterrupt+0x24>)
     650:	2207      	movs	r2, #7
     652:	601a      	str	r2, [r3, #0]
}
     654:	46c0      	nop			; (mov r8, r8)
     656:	46bd      	mov	sp, r7
     658:	bd80      	pop	{r7, pc}
     65a:	46c0      	nop			; (mov r8, r8)
     65c:	e000e010 	.word	0xe000e010
     660:	e000e018 	.word	0xe000e018
     664:	e000e014 	.word	0xe000e014
     668:	0000bb32 	.word	0x0000bb32

0000066c <pvPortMalloc>:
static size_t xNextFreeByte = ( size_t ) 0;

/*-----------------------------------------------------------*/

void *pvPortMalloc( size_t xWantedSize )
{
     66c:	b580      	push	{r7, lr}
     66e:	b084      	sub	sp, #16
     670:	af00      	add	r7, sp, #0
     672:	6078      	str	r0, [r7, #4]
void *pvReturn = NULL;
     674:	2300      	movs	r3, #0
     676:	60fb      	str	r3, [r7, #12]
static uint8_t *pucAlignedHeap = NULL;

	/* Ensure that blocks are always aligned to the required number of bytes. */
	#if( portBYTE_ALIGNMENT != 1 )
	{
		if( xWantedSize & portBYTE_ALIGNMENT_MASK )
     678:	687b      	ldr	r3, [r7, #4]
     67a:	2207      	movs	r2, #7
     67c:	4013      	ands	r3, r2
     67e:	d004      	beq.n	68a <pvPortMalloc+0x1e>
		{
			/* Byte alignment required. */
			xWantedSize += ( portBYTE_ALIGNMENT - ( xWantedSize & portBYTE_ALIGNMENT_MASK ) );
     680:	687b      	ldr	r3, [r7, #4]
     682:	2207      	movs	r2, #7
     684:	4393      	bics	r3, r2
     686:	3308      	adds	r3, #8
     688:	607b      	str	r3, [r7, #4]
		}
	}
	#endif

	vTaskSuspendAll();
     68a:	4b17      	ldr	r3, [pc, #92]	; (6e8 <pvPortMalloc+0x7c>)
     68c:	4798      	blx	r3
	{
		if( pucAlignedHeap == NULL )
     68e:	4b17      	ldr	r3, [pc, #92]	; (6ec <pvPortMalloc+0x80>)
     690:	681b      	ldr	r3, [r3, #0]
     692:	2b00      	cmp	r3, #0
     694:	d105      	bne.n	6a2 <pvPortMalloc+0x36>
		{
			/* Ensure the heap starts on a correctly aligned boundary. */
			pucAlignedHeap = ( uint8_t * ) ( ( ( portPOINTER_SIZE_TYPE ) &ucHeap[ portBYTE_ALIGNMENT ] ) & ( ~( ( portPOINTER_SIZE_TYPE ) portBYTE_ALIGNMENT_MASK ) ) );
     696:	4b16      	ldr	r3, [pc, #88]	; (6f0 <pvPortMalloc+0x84>)
     698:	2207      	movs	r2, #7
     69a:	4393      	bics	r3, r2
     69c:	001a      	movs	r2, r3
     69e:	4b13      	ldr	r3, [pc, #76]	; (6ec <pvPortMalloc+0x80>)
     6a0:	601a      	str	r2, [r3, #0]
		}

		/* Check there is enough room left for the allocation. */
		if( ( ( xNextFreeByte + xWantedSize ) < configADJUSTED_HEAP_SIZE ) &&
     6a2:	4b14      	ldr	r3, [pc, #80]	; (6f4 <pvPortMalloc+0x88>)
     6a4:	681a      	ldr	r2, [r3, #0]
     6a6:	687b      	ldr	r3, [r7, #4]
     6a8:	18d3      	adds	r3, r2, r3
     6aa:	4a13      	ldr	r2, [pc, #76]	; (6f8 <pvPortMalloc+0x8c>)
     6ac:	4293      	cmp	r3, r2
     6ae:	d813      	bhi.n	6d8 <pvPortMalloc+0x6c>
			( ( xNextFreeByte + xWantedSize ) > xNextFreeByte )	)/* Check for overflow. */
     6b0:	4b10      	ldr	r3, [pc, #64]	; (6f4 <pvPortMalloc+0x88>)
     6b2:	681a      	ldr	r2, [r3, #0]
     6b4:	687b      	ldr	r3, [r7, #4]
     6b6:	18d2      	adds	r2, r2, r3
     6b8:	4b0e      	ldr	r3, [pc, #56]	; (6f4 <pvPortMalloc+0x88>)
     6ba:	681b      	ldr	r3, [r3, #0]
		if( ( ( xNextFreeByte + xWantedSize ) < configADJUSTED_HEAP_SIZE ) &&
     6bc:	429a      	cmp	r2, r3
     6be:	d90b      	bls.n	6d8 <pvPortMalloc+0x6c>
		{
			/* Return the next free byte then increment the index past this
			block. */
			pvReturn = pucAlignedHeap + xNextFreeByte;
     6c0:	4b0a      	ldr	r3, [pc, #40]	; (6ec <pvPortMalloc+0x80>)
     6c2:	681a      	ldr	r2, [r3, #0]
     6c4:	4b0b      	ldr	r3, [pc, #44]	; (6f4 <pvPortMalloc+0x88>)
     6c6:	681b      	ldr	r3, [r3, #0]
     6c8:	18d3      	adds	r3, r2, r3
     6ca:	60fb      	str	r3, [r7, #12]
			xNextFreeByte += xWantedSize;
     6cc:	4b09      	ldr	r3, [pc, #36]	; (6f4 <pvPortMalloc+0x88>)
     6ce:	681a      	ldr	r2, [r3, #0]
     6d0:	687b      	ldr	r3, [r7, #4]
     6d2:	18d2      	adds	r2, r2, r3
     6d4:	4b07      	ldr	r3, [pc, #28]	; (6f4 <pvPortMalloc+0x88>)
     6d6:	601a      	str	r2, [r3, #0]
		}

		traceMALLOC( pvReturn, xWantedSize );
	}
	( void ) xTaskResumeAll();
     6d8:	4b08      	ldr	r3, [pc, #32]	; (6fc <pvPortMalloc+0x90>)
     6da:	4798      	blx	r3
			vApplicationMallocFailedHook();
		}
	}
	#endif

	return pvReturn;
     6dc:	68fb      	ldr	r3, [r7, #12]
}
     6de:	0018      	movs	r0, r3
     6e0:	46bd      	mov	sp, r7
     6e2:	b004      	add	sp, #16
     6e4:	bd80      	pop	{r7, pc}
     6e6:	46c0      	nop			; (mov r8, r8)
     6e8:	000012e9 	.word	0x000012e9
     6ec:	20003804 	.word	0x20003804
     6f0:	20000090 	.word	0x20000090
     6f4:	20003800 	.word	0x20003800
     6f8:	0000376f 	.word	0x0000376f
     6fc:	00001301 	.word	0x00001301

00000700 <vPortFree>:
/*-----------------------------------------------------------*/

void vPortFree( void *pv )
{
     700:	b580      	push	{r7, lr}
     702:	b082      	sub	sp, #8
     704:	af00      	add	r7, sp, #0
     706:	6078      	str	r0, [r7, #4]
	http://www.FreeRTOS.org for more information. */
	( void ) pv;

	/* Force an assert as it is invalid to call this function. */
	configASSERT( pv == NULL );
}
     708:	46c0      	nop			; (mov r8, r8)
     70a:	46bd      	mov	sp, r7
     70c:	b002      	add	sp, #8
     70e:	bd80      	pop	{r7, pc}

00000710 <xQueueGenericReset>:
	}														\
	taskEXIT_CRITICAL()
/*-----------------------------------------------------------*/

BaseType_t xQueueGenericReset( QueueHandle_t xQueue, BaseType_t xNewQueue )
{
     710:	b580      	push	{r7, lr}
     712:	b084      	sub	sp, #16
     714:	af00      	add	r7, sp, #0
     716:	6078      	str	r0, [r7, #4]
     718:	6039      	str	r1, [r7, #0]
Queue_t * const pxQueue = xQueue;
     71a:	687b      	ldr	r3, [r7, #4]
     71c:	60fb      	str	r3, [r7, #12]

	configASSERT( pxQueue );

	taskENTER_CRITICAL();
     71e:	4b24      	ldr	r3, [pc, #144]	; (7b0 <xQueueGenericReset+0xa0>)
     720:	4798      	blx	r3
	{
		pxQueue->u.xQueue.pcTail = pxQueue->pcHead + ( pxQueue->uxLength * pxQueue->uxItemSize ); /*lint !e9016 Pointer arithmetic allowed on char types, especially when it assists conveying intent. */
     722:	68fb      	ldr	r3, [r7, #12]
     724:	681a      	ldr	r2, [r3, #0]
     726:	68fb      	ldr	r3, [r7, #12]
     728:	6bd9      	ldr	r1, [r3, #60]	; 0x3c
     72a:	68fb      	ldr	r3, [r7, #12]
     72c:	6c1b      	ldr	r3, [r3, #64]	; 0x40
     72e:	434b      	muls	r3, r1
     730:	18d2      	adds	r2, r2, r3
     732:	68fb      	ldr	r3, [r7, #12]
     734:	609a      	str	r2, [r3, #8]
		pxQueue->uxMessagesWaiting = ( UBaseType_t ) 0U;
     736:	68fb      	ldr	r3, [r7, #12]
     738:	2200      	movs	r2, #0
     73a:	639a      	str	r2, [r3, #56]	; 0x38
		pxQueue->pcWriteTo = pxQueue->pcHead;
     73c:	68fb      	ldr	r3, [r7, #12]
     73e:	681a      	ldr	r2, [r3, #0]
     740:	68fb      	ldr	r3, [r7, #12]
     742:	605a      	str	r2, [r3, #4]
		pxQueue->u.xQueue.pcReadFrom = pxQueue->pcHead + ( ( pxQueue->uxLength - 1U ) * pxQueue->uxItemSize ); /*lint !e9016 Pointer arithmetic allowed on char types, especially when it assists conveying intent. */
     744:	68fb      	ldr	r3, [r7, #12]
     746:	681a      	ldr	r2, [r3, #0]
     748:	68fb      	ldr	r3, [r7, #12]
     74a:	6bdb      	ldr	r3, [r3, #60]	; 0x3c
     74c:	1e59      	subs	r1, r3, #1
     74e:	68fb      	ldr	r3, [r7, #12]
     750:	6c1b      	ldr	r3, [r3, #64]	; 0x40
     752:	434b      	muls	r3, r1
     754:	18d2      	adds	r2, r2, r3
     756:	68fb      	ldr	r3, [r7, #12]
     758:	60da      	str	r2, [r3, #12]
		pxQueue->cRxLock = queueUNLOCKED;
     75a:	68fb      	ldr	r3, [r7, #12]
     75c:	2244      	movs	r2, #68	; 0x44
     75e:	21ff      	movs	r1, #255	; 0xff
     760:	5499      	strb	r1, [r3, r2]
		pxQueue->cTxLock = queueUNLOCKED;
     762:	68fb      	ldr	r3, [r7, #12]
     764:	2245      	movs	r2, #69	; 0x45
     766:	21ff      	movs	r1, #255	; 0xff
     768:	5499      	strb	r1, [r3, r2]

		if( xNewQueue == pdFALSE )
     76a:	683b      	ldr	r3, [r7, #0]
     76c:	2b00      	cmp	r3, #0
     76e:	d10d      	bne.n	78c <xQueueGenericReset+0x7c>
			/* If there are tasks blocked waiting to read from the queue, then
			the tasks will remain blocked as after this function exits the queue
			will still be empty.  If there are tasks blocked waiting to write to
			the queue, then one should be unblocked as after this function exits
			it will be possible to write to it. */
			if( listLIST_IS_EMPTY( &( pxQueue->xTasksWaitingToSend ) ) == pdFALSE )
     770:	68fb      	ldr	r3, [r7, #12]
     772:	691b      	ldr	r3, [r3, #16]
     774:	2b00      	cmp	r3, #0
     776:	d013      	beq.n	7a0 <xQueueGenericReset+0x90>
			{
				if( xTaskRemoveFromEventList( &( pxQueue->xTasksWaitingToSend ) ) != pdFALSE )
     778:	68fb      	ldr	r3, [r7, #12]
     77a:	3310      	adds	r3, #16
     77c:	0018      	movs	r0, r3
     77e:	4b0d      	ldr	r3, [pc, #52]	; (7b4 <xQueueGenericReset+0xa4>)
     780:	4798      	blx	r3
     782:	1e03      	subs	r3, r0, #0
     784:	d00c      	beq.n	7a0 <xQueueGenericReset+0x90>
				{
					queueYIELD_IF_USING_PREEMPTION();
     786:	4b0c      	ldr	r3, [pc, #48]	; (7b8 <xQueueGenericReset+0xa8>)
     788:	4798      	blx	r3
     78a:	e009      	b.n	7a0 <xQueueGenericReset+0x90>
			}
		}
		else
		{
			/* Ensure the event queues start in the correct state. */
			vListInitialise( &( pxQueue->xTasksWaitingToSend ) );
     78c:	68fb      	ldr	r3, [r7, #12]
     78e:	3310      	adds	r3, #16
     790:	0018      	movs	r0, r3
     792:	4b0a      	ldr	r3, [pc, #40]	; (7bc <xQueueGenericReset+0xac>)
     794:	4798      	blx	r3
			vListInitialise( &( pxQueue->xTasksWaitingToReceive ) );
     796:	68fb      	ldr	r3, [r7, #12]
     798:	3324      	adds	r3, #36	; 0x24
     79a:	0018      	movs	r0, r3
     79c:	4b07      	ldr	r3, [pc, #28]	; (7bc <xQueueGenericReset+0xac>)
     79e:	4798      	blx	r3
		}
	}
	taskEXIT_CRITICAL();
     7a0:	4b07      	ldr	r3, [pc, #28]	; (7c0 <xQueueGenericReset+0xb0>)
     7a2:	4798      	blx	r3

	/* A value is returned for calling semantic consistency with previous
	versions. */
	return pdPASS;
     7a4:	2301      	movs	r3, #1
}
     7a6:	0018      	movs	r0, r3
     7a8:	46bd      	mov	sp, r7
     7aa:	b004      	add	sp, #16
     7ac:	bd80      	pop	{r7, pc}
     7ae:	46c0      	nop			; (mov r8, r8)
     7b0:	00000551 	.word	0x00000551
     7b4:	00001659 	.word	0x00001659
     7b8:	00000531 	.word	0x00000531
     7bc:	000002c5 	.word	0x000002c5
     7c0:	00000575 	.word	0x00000575

000007c4 <xQueueGenericCreate>:
/*-----------------------------------------------------------*/

#if( configSUPPORT_DYNAMIC_ALLOCATION == 1 )

	QueueHandle_t xQueueGenericCreate( const UBaseType_t uxQueueLength, const UBaseType_t uxItemSize, const uint8_t ucQueueType )
	{
     7c4:	b590      	push	{r4, r7, lr}
     7c6:	b08b      	sub	sp, #44	; 0x2c
     7c8:	af02      	add	r7, sp, #8
     7ca:	60f8      	str	r0, [r7, #12]
     7cc:	60b9      	str	r1, [r7, #8]
     7ce:	1dfb      	adds	r3, r7, #7
     7d0:	701a      	strb	r2, [r3, #0]
	size_t xQueueSizeInBytes;
	uint8_t *pucQueueStorage;

		configASSERT( uxQueueLength > ( UBaseType_t ) 0 );

		if( uxItemSize == ( UBaseType_t ) 0 )
     7d2:	68bb      	ldr	r3, [r7, #8]
     7d4:	2b00      	cmp	r3, #0
     7d6:	d102      	bne.n	7de <xQueueGenericCreate+0x1a>
		{
			/* There is not going to be a queue storage area. */
			xQueueSizeInBytes = ( size_t ) 0;
     7d8:	2300      	movs	r3, #0
     7da:	61fb      	str	r3, [r7, #28]
     7dc:	e003      	b.n	7e6 <xQueueGenericCreate+0x22>
		}
		else
		{
			/* Allocate enough space to hold the maximum number of items that
			can be in the queue at any time. */
			xQueueSizeInBytes = ( size_t ) ( uxQueueLength * uxItemSize ); /*lint !e961 MISRA exception as the casts are only redundant for some ports. */
     7de:	68fb      	ldr	r3, [r7, #12]
     7e0:	68ba      	ldr	r2, [r7, #8]
     7e2:	4353      	muls	r3, r2
     7e4:	61fb      	str	r3, [r7, #28]
		alignment requirements of the Queue_t structure - which in this case
		is an int8_t *.  Therefore, whenever the stack alignment requirements
		are greater than or equal to the pointer to char requirements the cast
		is safe.  In other cases alignment requirements are not strict (one or
		two bytes). */
		pxNewQueue = ( Queue_t * ) pvPortMalloc( sizeof( Queue_t ) + xQueueSizeInBytes ); /*lint !e9087 !e9079 see comment above. */
     7e6:	69fb      	ldr	r3, [r7, #28]
     7e8:	3348      	adds	r3, #72	; 0x48
     7ea:	0018      	movs	r0, r3
     7ec:	4b0d      	ldr	r3, [pc, #52]	; (824 <xQueueGenericCreate+0x60>)
     7ee:	4798      	blx	r3
     7f0:	0003      	movs	r3, r0
     7f2:	61bb      	str	r3, [r7, #24]

		if( pxNewQueue != NULL )
     7f4:	69bb      	ldr	r3, [r7, #24]
     7f6:	2b00      	cmp	r3, #0
     7f8:	d00e      	beq.n	818 <xQueueGenericCreate+0x54>
		{
			/* Jump past the queue structure to find the location of the queue
			storage area. */
			pucQueueStorage = ( uint8_t * ) pxNewQueue;
     7fa:	69bb      	ldr	r3, [r7, #24]
     7fc:	617b      	str	r3, [r7, #20]
			pucQueueStorage += sizeof( Queue_t ); /*lint !e9016 Pointer arithmetic allowed on char types, especially when it assists conveying intent. */
     7fe:	697b      	ldr	r3, [r7, #20]
     800:	3348      	adds	r3, #72	; 0x48
     802:	617b      	str	r3, [r7, #20]
				deleted. */
				pxNewQueue->ucStaticallyAllocated = pdFALSE;
			}
			#endif /* configSUPPORT_STATIC_ALLOCATION */

			prvInitialiseNewQueue( uxQueueLength, uxItemSize, pucQueueStorage, ucQueueType, pxNewQueue );
     804:	1dfb      	adds	r3, r7, #7
     806:	781c      	ldrb	r4, [r3, #0]
     808:	697a      	ldr	r2, [r7, #20]
     80a:	68b9      	ldr	r1, [r7, #8]
     80c:	68f8      	ldr	r0, [r7, #12]
     80e:	69bb      	ldr	r3, [r7, #24]
     810:	9300      	str	r3, [sp, #0]
     812:	0023      	movs	r3, r4
     814:	4c04      	ldr	r4, [pc, #16]	; (828 <xQueueGenericCreate+0x64>)
     816:	47a0      	blx	r4
		{
			traceQUEUE_CREATE_FAILED( ucQueueType );
			mtCOVERAGE_TEST_MARKER();
		}

		return pxNewQueue;
     818:	69bb      	ldr	r3, [r7, #24]
	}
     81a:	0018      	movs	r0, r3
     81c:	46bd      	mov	sp, r7
     81e:	b009      	add	sp, #36	; 0x24
     820:	bd90      	pop	{r4, r7, pc}
     822:	46c0      	nop			; (mov r8, r8)
     824:	0000066d 	.word	0x0000066d
     828:	0000082d 	.word	0x0000082d

0000082c <prvInitialiseNewQueue>:

#endif /* configSUPPORT_STATIC_ALLOCATION */
/*-----------------------------------------------------------*/

static void prvInitialiseNewQueue( const UBaseType_t uxQueueLength, const UBaseType_t uxItemSize, uint8_t *pucQueueStorage, const uint8_t ucQueueType, Queue_t *pxNewQueue )
{
     82c:	b580      	push	{r7, lr}
     82e:	b084      	sub	sp, #16
     830:	af00      	add	r7, sp, #0
     832:	60f8      	str	r0, [r7, #12]
     834:	60b9      	str	r1, [r7, #8]
     836:	607a      	str	r2, [r7, #4]
     838:	001a      	movs	r2, r3
     83a:	1cfb      	adds	r3, r7, #3
     83c:	701a      	strb	r2, [r3, #0]
	/* Remove compiler warnings about unused parameters should
	configUSE_TRACE_FACILITY not be set to 1. */
	( void ) ucQueueType;

	if( uxItemSize == ( UBaseType_t ) 0 )
     83e:	68bb      	ldr	r3, [r7, #8]
     840:	2b00      	cmp	r3, #0
     842:	d103      	bne.n	84c <prvInitialiseNewQueue+0x20>
	{
		/* No RAM was allocated for the queue storage area, but PC head cannot
		be set to NULL because NULL is used as a key to say the queue is used as
		a mutex.  Therefore just set pcHead to point to the queue as a benign
		value that is known to be within the memory map. */
		pxNewQueue->pcHead = ( int8_t * ) pxNewQueue;
     844:	69bb      	ldr	r3, [r7, #24]
     846:	69ba      	ldr	r2, [r7, #24]
     848:	601a      	str	r2, [r3, #0]
     84a:	e002      	b.n	852 <prvInitialiseNewQueue+0x26>
	}
	else
	{
		/* Set the head to the start of the queue storage area. */
		pxNewQueue->pcHead = ( int8_t * ) pucQueueStorage;
     84c:	69bb      	ldr	r3, [r7, #24]
     84e:	687a      	ldr	r2, [r7, #4]
     850:	601a      	str	r2, [r3, #0]
	}

	/* Initialise the queue members as described where the queue type is
	defined. */
	pxNewQueue->uxLength = uxQueueLength;
     852:	69bb      	ldr	r3, [r7, #24]
     854:	68fa      	ldr	r2, [r7, #12]
     856:	63da      	str	r2, [r3, #60]	; 0x3c
	pxNewQueue->uxItemSize = uxItemSize;
     858:	69bb      	ldr	r3, [r7, #24]
     85a:	68ba      	ldr	r2, [r7, #8]
     85c:	641a      	str	r2, [r3, #64]	; 0x40
	( void ) xQueueGenericReset( pxNewQueue, pdTRUE );
     85e:	69bb      	ldr	r3, [r7, #24]
     860:	2101      	movs	r1, #1
     862:	0018      	movs	r0, r3
     864:	4b02      	ldr	r3, [pc, #8]	; (870 <prvInitialiseNewQueue+0x44>)
     866:	4798      	blx	r3
		pxNewQueue->pxQueueSetContainer = NULL;
	}
	#endif /* configUSE_QUEUE_SETS */

	traceQUEUE_CREATE( pxNewQueue );
}
     868:	46c0      	nop			; (mov r8, r8)
     86a:	46bd      	mov	sp, r7
     86c:	b004      	add	sp, #16
     86e:	bd80      	pop	{r7, pc}
     870:	00000711 	.word	0x00000711

00000874 <xQueueGenericSend>:

#endif /* ( ( configUSE_COUNTING_SEMAPHORES == 1 ) && ( configSUPPORT_DYNAMIC_ALLOCATION == 1 ) ) */
/*-----------------------------------------------------------*/

BaseType_t xQueueGenericSend( QueueHandle_t xQueue, const void * const pvItemToQueue, TickType_t xTicksToWait, const BaseType_t xCopyPosition )
{
     874:	b580      	push	{r7, lr}
     876:	b08a      	sub	sp, #40	; 0x28
     878:	af00      	add	r7, sp, #0
     87a:	60f8      	str	r0, [r7, #12]
     87c:	60b9      	str	r1, [r7, #8]
     87e:	607a      	str	r2, [r7, #4]
     880:	603b      	str	r3, [r7, #0]
BaseType_t xEntryTimeSet = pdFALSE, xYieldRequired;
     882:	2300      	movs	r3, #0
     884:	627b      	str	r3, [r7, #36]	; 0x24
TimeOut_t xTimeOut;
Queue_t * const pxQueue = xQueue;
     886:	68fb      	ldr	r3, [r7, #12]
     888:	623b      	str	r3, [r7, #32]
	/*lint -save -e904 This function relaxes the coding standard somewhat to
	allow return statements within the function itself.  This is done in the
	interest of execution time efficiency. */
	for( ;; )
	{
		taskENTER_CRITICAL();
     88a:	4b45      	ldr	r3, [pc, #276]	; (9a0 <xQueueGenericSend+0x12c>)
     88c:	4798      	blx	r3
		{
			/* Is there room on the queue now?  The running task must be the
			highest priority task wanting to access the queue.  If the head item
			in the queue is to be overwritten then it does not matter if the
			queue is full. */
			if( ( pxQueue->uxMessagesWaiting < pxQueue->uxLength ) || ( xCopyPosition == queueOVERWRITE ) )
     88e:	6a3b      	ldr	r3, [r7, #32]
     890:	6b9a      	ldr	r2, [r3, #56]	; 0x38
     892:	6a3b      	ldr	r3, [r7, #32]
     894:	6bdb      	ldr	r3, [r3, #60]	; 0x3c
     896:	429a      	cmp	r2, r3
     898:	d302      	bcc.n	8a0 <xQueueGenericSend+0x2c>
     89a:	683b      	ldr	r3, [r7, #0]
     89c:	2b02      	cmp	r3, #2
     89e:	d11e      	bne.n	8de <xQueueGenericSend+0x6a>
						}
					}
				}
				#else /* configUSE_QUEUE_SETS */
				{
					xYieldRequired = prvCopyDataToQueue( pxQueue, pvItemToQueue, xCopyPosition );
     8a0:	683a      	ldr	r2, [r7, #0]
     8a2:	68b9      	ldr	r1, [r7, #8]
     8a4:	6a3b      	ldr	r3, [r7, #32]
     8a6:	0018      	movs	r0, r3
     8a8:	4b3e      	ldr	r3, [pc, #248]	; (9a4 <xQueueGenericSend+0x130>)
     8aa:	4798      	blx	r3
     8ac:	0003      	movs	r3, r0
     8ae:	61fb      	str	r3, [r7, #28]

					/* If there was a task waiting for data to arrive on the
					queue then unblock it now. */
					if( listLIST_IS_EMPTY( &( pxQueue->xTasksWaitingToReceive ) ) == pdFALSE )
     8b0:	6a3b      	ldr	r3, [r7, #32]
     8b2:	6a5b      	ldr	r3, [r3, #36]	; 0x24
     8b4:	2b00      	cmp	r3, #0
     8b6:	d009      	beq.n	8cc <xQueueGenericSend+0x58>
					{
						if( xTaskRemoveFromEventList( &( pxQueue->xTasksWaitingToReceive ) ) != pdFALSE )
     8b8:	6a3b      	ldr	r3, [r7, #32]
     8ba:	3324      	adds	r3, #36	; 0x24
     8bc:	0018      	movs	r0, r3
     8be:	4b3a      	ldr	r3, [pc, #232]	; (9a8 <xQueueGenericSend+0x134>)
     8c0:	4798      	blx	r3
     8c2:	1e03      	subs	r3, r0, #0
     8c4:	d007      	beq.n	8d6 <xQueueGenericSend+0x62>
						{
							/* The unblocked task has a priority higher than
							our own so yield immediately.  Yes it is ok to do
							this from within the critical section - the kernel
							takes care of that. */
							queueYIELD_IF_USING_PREEMPTION();
     8c6:	4b39      	ldr	r3, [pc, #228]	; (9ac <xQueueGenericSend+0x138>)
     8c8:	4798      	blx	r3
     8ca:	e004      	b.n	8d6 <xQueueGenericSend+0x62>
						else
						{
							mtCOVERAGE_TEST_MARKER();
						}
					}
					else if( xYieldRequired != pdFALSE )
     8cc:	69fb      	ldr	r3, [r7, #28]
     8ce:	2b00      	cmp	r3, #0
     8d0:	d001      	beq.n	8d6 <xQueueGenericSend+0x62>
					{
						/* This path is a special case that will only get
						executed if the task was holding multiple mutexes and
						the mutexes were given back in an order that is
						different to that in which they were taken. */
						queueYIELD_IF_USING_PREEMPTION();
     8d2:	4b36      	ldr	r3, [pc, #216]	; (9ac <xQueueGenericSend+0x138>)
     8d4:	4798      	blx	r3
						mtCOVERAGE_TEST_MARKER();
					}
				}
				#endif /* configUSE_QUEUE_SETS */

				taskEXIT_CRITICAL();
     8d6:	4b36      	ldr	r3, [pc, #216]	; (9b0 <xQueueGenericSend+0x13c>)
     8d8:	4798      	blx	r3
				return pdPASS;
     8da:	2301      	movs	r3, #1
     8dc:	e05b      	b.n	996 <xQueueGenericSend+0x122>
			}
			else
			{
				if( xTicksToWait == ( TickType_t ) 0 )
     8de:	687b      	ldr	r3, [r7, #4]
     8e0:	2b00      	cmp	r3, #0
     8e2:	d103      	bne.n	8ec <xQueueGenericSend+0x78>
				{
					/* The queue was full and no block time is specified (or
					the block time has expired) so leave now. */
					taskEXIT_CRITICAL();
     8e4:	4b32      	ldr	r3, [pc, #200]	; (9b0 <xQueueGenericSend+0x13c>)
     8e6:	4798      	blx	r3

					/* Return to the original privilege level before exiting
					the function. */
					traceQUEUE_SEND_FAILED( pxQueue );
					return errQUEUE_FULL;
     8e8:	2300      	movs	r3, #0
     8ea:	e054      	b.n	996 <xQueueGenericSend+0x122>
				}
				else if( xEntryTimeSet == pdFALSE )
     8ec:	6a7b      	ldr	r3, [r7, #36]	; 0x24
     8ee:	2b00      	cmp	r3, #0
     8f0:	d106      	bne.n	900 <xQueueGenericSend+0x8c>
				{
					/* The queue was full and a block time was specified so
					configure the timeout structure. */
					vTaskInternalSetTimeOutState( &xTimeOut );
     8f2:	2314      	movs	r3, #20
     8f4:	18fb      	adds	r3, r7, r3
     8f6:	0018      	movs	r0, r3
     8f8:	4b2e      	ldr	r3, [pc, #184]	; (9b4 <xQueueGenericSend+0x140>)
     8fa:	4798      	blx	r3
					xEntryTimeSet = pdTRUE;
     8fc:	2301      	movs	r3, #1
     8fe:	627b      	str	r3, [r7, #36]	; 0x24
					/* Entry time was already set. */
					mtCOVERAGE_TEST_MARKER();
				}
			}
		}
		taskEXIT_CRITICAL();
     900:	4b2b      	ldr	r3, [pc, #172]	; (9b0 <xQueueGenericSend+0x13c>)
     902:	4798      	blx	r3

		/* Interrupts and other tasks can send to and receive from the queue
		now the critical section has been exited. */

		vTaskSuspendAll();
     904:	4b2c      	ldr	r3, [pc, #176]	; (9b8 <xQueueGenericSend+0x144>)
     906:	4798      	blx	r3
		prvLockQueue( pxQueue );
     908:	4b25      	ldr	r3, [pc, #148]	; (9a0 <xQueueGenericSend+0x12c>)
     90a:	4798      	blx	r3
     90c:	6a3b      	ldr	r3, [r7, #32]
     90e:	2244      	movs	r2, #68	; 0x44
     910:	5c9b      	ldrb	r3, [r3, r2]
     912:	b25b      	sxtb	r3, r3
     914:	3301      	adds	r3, #1
     916:	d103      	bne.n	920 <xQueueGenericSend+0xac>
     918:	6a3b      	ldr	r3, [r7, #32]
     91a:	2244      	movs	r2, #68	; 0x44
     91c:	2100      	movs	r1, #0
     91e:	5499      	strb	r1, [r3, r2]
     920:	6a3b      	ldr	r3, [r7, #32]
     922:	2245      	movs	r2, #69	; 0x45
     924:	5c9b      	ldrb	r3, [r3, r2]
     926:	b25b      	sxtb	r3, r3
     928:	3301      	adds	r3, #1
     92a:	d103      	bne.n	934 <xQueueGenericSend+0xc0>
     92c:	6a3b      	ldr	r3, [r7, #32]
     92e:	2245      	movs	r2, #69	; 0x45
     930:	2100      	movs	r1, #0
     932:	5499      	strb	r1, [r3, r2]
     934:	4b1e      	ldr	r3, [pc, #120]	; (9b0 <xQueueGenericSend+0x13c>)
     936:	4798      	blx	r3

		/* Update the timeout state to see if it has expired yet. */
		if( xTaskCheckForTimeOut( &xTimeOut, &xTicksToWait ) == pdFALSE )
     938:	1d3a      	adds	r2, r7, #4
     93a:	2314      	movs	r3, #20
     93c:	18fb      	adds	r3, r7, r3
     93e:	0011      	movs	r1, r2
     940:	0018      	movs	r0, r3
     942:	4b1e      	ldr	r3, [pc, #120]	; (9bc <xQueueGenericSend+0x148>)
     944:	4798      	blx	r3
     946:	1e03      	subs	r3, r0, #0
     948:	d11e      	bne.n	988 <xQueueGenericSend+0x114>
		{
			if( prvIsQueueFull( pxQueue ) != pdFALSE )
     94a:	6a3b      	ldr	r3, [r7, #32]
     94c:	0018      	movs	r0, r3
     94e:	4b1c      	ldr	r3, [pc, #112]	; (9c0 <xQueueGenericSend+0x14c>)
     950:	4798      	blx	r3
     952:	1e03      	subs	r3, r0, #0
     954:	d011      	beq.n	97a <xQueueGenericSend+0x106>
			{
				traceBLOCKING_ON_QUEUE_SEND( pxQueue );
				vTaskPlaceOnEventList( &( pxQueue->xTasksWaitingToSend ), xTicksToWait );
     956:	6a3b      	ldr	r3, [r7, #32]
     958:	3310      	adds	r3, #16
     95a:	687a      	ldr	r2, [r7, #4]
     95c:	0011      	movs	r1, r2
     95e:	0018      	movs	r0, r3
     960:	4b18      	ldr	r3, [pc, #96]	; (9c4 <xQueueGenericSend+0x150>)
     962:	4798      	blx	r3
				/* Unlocking the queue means queue events can effect the
				event list.  It is possible that interrupts occurring now
				remove this task from the event list again - but as the
				scheduler is suspended the task will go onto the pending
				ready last instead of the actual ready list. */
				prvUnlockQueue( pxQueue );
     964:	6a3b      	ldr	r3, [r7, #32]
     966:	0018      	movs	r0, r3
     968:	4b17      	ldr	r3, [pc, #92]	; (9c8 <xQueueGenericSend+0x154>)
     96a:	4798      	blx	r3
				/* Resuming the scheduler will move tasks from the pending
				ready list into the ready list - so it is feasible that this
				task is already in a ready list before it yields - in which
				case the yield will not cause a context switch unless there
				is also a higher priority task in the pending ready list. */
				if( xTaskResumeAll() == pdFALSE )
     96c:	4b17      	ldr	r3, [pc, #92]	; (9cc <xQueueGenericSend+0x158>)
     96e:	4798      	blx	r3
     970:	1e03      	subs	r3, r0, #0
     972:	d18a      	bne.n	88a <xQueueGenericSend+0x16>
				{
					portYIELD_WITHIN_API();
     974:	4b0d      	ldr	r3, [pc, #52]	; (9ac <xQueueGenericSend+0x138>)
     976:	4798      	blx	r3
     978:	e787      	b.n	88a <xQueueGenericSend+0x16>
				}
			}
			else
			{
				/* Try again. */
				prvUnlockQueue( pxQueue );
     97a:	6a3b      	ldr	r3, [r7, #32]
     97c:	0018      	movs	r0, r3
     97e:	4b12      	ldr	r3, [pc, #72]	; (9c8 <xQueueGenericSend+0x154>)
     980:	4798      	blx	r3
				( void ) xTaskResumeAll();
     982:	4b12      	ldr	r3, [pc, #72]	; (9cc <xQueueGenericSend+0x158>)
     984:	4798      	blx	r3
     986:	e780      	b.n	88a <xQueueGenericSend+0x16>
			}
		}
		else
		{
			/* The timeout has expired. */
			prvUnlockQueue( pxQueue );
     988:	6a3b      	ldr	r3, [r7, #32]
     98a:	0018      	movs	r0, r3
     98c:	4b0e      	ldr	r3, [pc, #56]	; (9c8 <xQueueGenericSend+0x154>)
     98e:	4798      	blx	r3
			( void ) xTaskResumeAll();
     990:	4b0e      	ldr	r3, [pc, #56]	; (9cc <xQueueGenericSend+0x158>)
     992:	4798      	blx	r3

			traceQUEUE_SEND_FAILED( pxQueue );
			return errQUEUE_FULL;
     994:	2300      	movs	r3, #0
		}
	} /*lint -restore */
}
     996:	0018      	movs	r0, r3
     998:	46bd      	mov	sp, r7
     99a:	b00a      	add	sp, #40	; 0x28
     99c:	bd80      	pop	{r7, pc}
     99e:	46c0      	nop			; (mov r8, r8)
     9a0:	00000551 	.word	0x00000551
     9a4:	00000dc9 	.word	0x00000dc9
     9a8:	00001659 	.word	0x00001659
     9ac:	00000531 	.word	0x00000531
     9b0:	00000575 	.word	0x00000575
     9b4:	00001711 	.word	0x00001711
     9b8:	000012e9 	.word	0x000012e9
     9bc:	00001739 	.word	0x00001739
     9c0:	00000fd9 	.word	0x00000fd9
     9c4:	0000161d 	.word	0x0000161d
     9c8:	00000ed5 	.word	0x00000ed5
     9cc:	00001301 	.word	0x00001301

000009d0 <xQueueGenericSendFromISR>:
/*-----------------------------------------------------------*/

BaseType_t xQueueGenericSendFromISR( QueueHandle_t xQueue, const void * const pvItemToQueue, BaseType_t * const pxHigherPriorityTaskWoken, const BaseType_t xCopyPosition )
{
     9d0:	b580      	push	{r7, lr}
     9d2:	b088      	sub	sp, #32
     9d4:	af00      	add	r7, sp, #0
     9d6:	60f8      	str	r0, [r7, #12]
     9d8:	60b9      	str	r1, [r7, #8]
     9da:	607a      	str	r2, [r7, #4]
     9dc:	603b      	str	r3, [r7, #0]
BaseType_t xReturn;
UBaseType_t uxSavedInterruptStatus;
Queue_t * const pxQueue = xQueue;
     9de:	68fb      	ldr	r3, [r7, #12]
     9e0:	61bb      	str	r3, [r7, #24]
	/* Similar to xQueueGenericSend, except without blocking if there is no room
	in the queue.  Also don't directly wake a task that was blocked on a queue
	read, instead return a flag to say whether a context switch is required or
	not (i.e. has a task with a higher priority than us been woken by this
	post). */
	uxSavedInterruptStatus = portSET_INTERRUPT_MASK_FROM_ISR();
     9e2:	4b24      	ldr	r3, [pc, #144]	; (a74 <xQueueGenericSendFromISR+0xa4>)
     9e4:	4798      	blx	r3
     9e6:	0003      	movs	r3, r0
     9e8:	617b      	str	r3, [r7, #20]
	{
		if( ( pxQueue->uxMessagesWaiting < pxQueue->uxLength ) || ( xCopyPosition == queueOVERWRITE ) )
     9ea:	69bb      	ldr	r3, [r7, #24]
     9ec:	6b9a      	ldr	r2, [r3, #56]	; 0x38
     9ee:	69bb      	ldr	r3, [r7, #24]
     9f0:	6bdb      	ldr	r3, [r3, #60]	; 0x3c
     9f2:	429a      	cmp	r2, r3
     9f4:	d302      	bcc.n	9fc <xQueueGenericSendFromISR+0x2c>
     9f6:	683b      	ldr	r3, [r7, #0]
     9f8:	2b02      	cmp	r3, #2
     9fa:	d12f      	bne.n	a5c <xQueueGenericSendFromISR+0x8c>
		{
			const int8_t cTxLock = pxQueue->cTxLock;
     9fc:	2313      	movs	r3, #19
     9fe:	18fb      	adds	r3, r7, r3
     a00:	69ba      	ldr	r2, [r7, #24]
     a02:	2145      	movs	r1, #69	; 0x45
     a04:	5c52      	ldrb	r2, [r2, r1]
     a06:	701a      	strb	r2, [r3, #0]
			/* Semaphores use xQueueGiveFromISR(), so pxQueue will not be a
			semaphore or mutex.  That means prvCopyDataToQueue() cannot result
			in a task disinheriting a priority and prvCopyDataToQueue() can be
			called here even though the disinherit function does not check if
			the scheduler is suspended before accessing the ready lists. */
			( void ) prvCopyDataToQueue( pxQueue, pvItemToQueue, xCopyPosition );
     a08:	683a      	ldr	r2, [r7, #0]
     a0a:	68b9      	ldr	r1, [r7, #8]
     a0c:	69bb      	ldr	r3, [r7, #24]
     a0e:	0018      	movs	r0, r3
     a10:	4b19      	ldr	r3, [pc, #100]	; (a78 <xQueueGenericSendFromISR+0xa8>)
     a12:	4798      	blx	r3

			/* The event list is not altered if the queue is locked.  This will
			be done when the queue is unlocked later. */
			if( cTxLock == queueUNLOCKED )
     a14:	2313      	movs	r3, #19
     a16:	18fb      	adds	r3, r7, r3
     a18:	781b      	ldrb	r3, [r3, #0]
     a1a:	b25b      	sxtb	r3, r3
     a1c:	3301      	adds	r3, #1
     a1e:	d111      	bne.n	a44 <xQueueGenericSendFromISR+0x74>
						}
					}
				}
				#else /* configUSE_QUEUE_SETS */
				{
					if( listLIST_IS_EMPTY( &( pxQueue->xTasksWaitingToReceive ) ) == pdFALSE )
     a20:	69bb      	ldr	r3, [r7, #24]
     a22:	6a5b      	ldr	r3, [r3, #36]	; 0x24
     a24:	2b00      	cmp	r3, #0
     a26:	d016      	beq.n	a56 <xQueueGenericSendFromISR+0x86>
					{
						if( xTaskRemoveFromEventList( &( pxQueue->xTasksWaitingToReceive ) ) != pdFALSE )
     a28:	69bb      	ldr	r3, [r7, #24]
     a2a:	3324      	adds	r3, #36	; 0x24
     a2c:	0018      	movs	r0, r3
     a2e:	4b13      	ldr	r3, [pc, #76]	; (a7c <xQueueGenericSendFromISR+0xac>)
     a30:	4798      	blx	r3
     a32:	1e03      	subs	r3, r0, #0
     a34:	d00f      	beq.n	a56 <xQueueGenericSendFromISR+0x86>
						{
							/* The task waiting has a higher priority so record that a
							context	switch is required. */
							if( pxHigherPriorityTaskWoken != NULL )
     a36:	687b      	ldr	r3, [r7, #4]
     a38:	2b00      	cmp	r3, #0
     a3a:	d00c      	beq.n	a56 <xQueueGenericSendFromISR+0x86>
							{
								*pxHigherPriorityTaskWoken = pdTRUE;
     a3c:	687b      	ldr	r3, [r7, #4]
     a3e:	2201      	movs	r2, #1
     a40:	601a      	str	r2, [r3, #0]
     a42:	e008      	b.n	a56 <xQueueGenericSendFromISR+0x86>
			}
			else
			{
				/* Increment the lock count so the task that unlocks the queue
				knows that data was posted while it was locked. */
				pxQueue->cTxLock = ( int8_t ) ( cTxLock + 1 );
     a44:	2313      	movs	r3, #19
     a46:	18fb      	adds	r3, r7, r3
     a48:	781b      	ldrb	r3, [r3, #0]
     a4a:	3301      	adds	r3, #1
     a4c:	b2db      	uxtb	r3, r3
     a4e:	b259      	sxtb	r1, r3
     a50:	69bb      	ldr	r3, [r7, #24]
     a52:	2245      	movs	r2, #69	; 0x45
     a54:	5499      	strb	r1, [r3, r2]
			}

			xReturn = pdPASS;
     a56:	2301      	movs	r3, #1
     a58:	61fb      	str	r3, [r7, #28]
		{
     a5a:	e001      	b.n	a60 <xQueueGenericSendFromISR+0x90>
		}
		else
		{
			traceQUEUE_SEND_FROM_ISR_FAILED( pxQueue );
			xReturn = errQUEUE_FULL;
     a5c:	2300      	movs	r3, #0
     a5e:	61fb      	str	r3, [r7, #28]
		}
	}
	portCLEAR_INTERRUPT_MASK_FROM_ISR( uxSavedInterruptStatus );
     a60:	697b      	ldr	r3, [r7, #20]
     a62:	0018      	movs	r0, r3
     a64:	4b06      	ldr	r3, [pc, #24]	; (a80 <xQueueGenericSendFromISR+0xb0>)
     a66:	4798      	blx	r3

	return xReturn;
     a68:	69fb      	ldr	r3, [r7, #28]
}
     a6a:	0018      	movs	r0, r3
     a6c:	46bd      	mov	sp, r7
     a6e:	b008      	add	sp, #32
     a70:	bd80      	pop	{r7, pc}
     a72:	46c0      	nop			; (mov r8, r8)
     a74:	00000599 	.word	0x00000599
     a78:	00000dc9 	.word	0x00000dc9
     a7c:	00001659 	.word	0x00001659
     a80:	000005a5 	.word	0x000005a5

00000a84 <xQueueGiveFromISR>:
/*-----------------------------------------------------------*/

BaseType_t xQueueGiveFromISR( QueueHandle_t xQueue, BaseType_t * const pxHigherPriorityTaskWoken )
{
     a84:	b580      	push	{r7, lr}
     a86:	b088      	sub	sp, #32
     a88:	af00      	add	r7, sp, #0
     a8a:	6078      	str	r0, [r7, #4]
     a8c:	6039      	str	r1, [r7, #0]
BaseType_t xReturn;
UBaseType_t uxSavedInterruptStatus;
Queue_t * const pxQueue = xQueue;
     a8e:	687b      	ldr	r3, [r7, #4]
     a90:	61bb      	str	r3, [r7, #24]
	safe API to ensure interrupt entry is as fast and as simple as possible.
	More information (albeit Cortex-M specific) is provided on the following
	link: http://www.freertos.org/RTOS-Cortex-M3-M4.html */
	portASSERT_IF_INTERRUPT_PRIORITY_INVALID();

	uxSavedInterruptStatus = portSET_INTERRUPT_MASK_FROM_ISR();
     a92:	4b22      	ldr	r3, [pc, #136]	; (b1c <xQueueGiveFromISR+0x98>)
     a94:	4798      	blx	r3
     a96:	0003      	movs	r3, r0
     a98:	617b      	str	r3, [r7, #20]
	{
		const UBaseType_t uxMessagesWaiting = pxQueue->uxMessagesWaiting;
     a9a:	69bb      	ldr	r3, [r7, #24]
     a9c:	6b9b      	ldr	r3, [r3, #56]	; 0x38
     a9e:	613b      	str	r3, [r7, #16]

		/* When the queue is used to implement a semaphore no data is ever
		moved through the queue but it is still valid to see if the queue 'has
		space'. */
		if( uxMessagesWaiting < pxQueue->uxLength )
     aa0:	69bb      	ldr	r3, [r7, #24]
     aa2:	6bda      	ldr	r2, [r3, #60]	; 0x3c
     aa4:	693b      	ldr	r3, [r7, #16]
     aa6:	429a      	cmp	r2, r3
     aa8:	d92d      	bls.n	b06 <xQueueGiveFromISR+0x82>
		{
			const int8_t cTxLock = pxQueue->cTxLock;
     aaa:	230f      	movs	r3, #15
     aac:	18fb      	adds	r3, r7, r3
     aae:	69ba      	ldr	r2, [r7, #24]
     ab0:	2145      	movs	r1, #69	; 0x45
     ab2:	5c52      	ldrb	r2, [r2, r1]
     ab4:	701a      	strb	r2, [r3, #0]
			holder - and if there is a mutex holder then the mutex cannot be
			given from an ISR.  As this is the ISR version of the function it
			can be assumed there is no mutex holder and no need to determine if
			priority disinheritance is needed.  Simply increase the count of
			messages (semaphores) available. */
			pxQueue->uxMessagesWaiting = uxMessagesWaiting + ( UBaseType_t ) 1;
     ab6:	693b      	ldr	r3, [r7, #16]
     ab8:	1c5a      	adds	r2, r3, #1
     aba:	69bb      	ldr	r3, [r7, #24]
     abc:	639a      	str	r2, [r3, #56]	; 0x38

			/* The event list is not altered if the queue is locked.  This will
			be done when the queue is unlocked later. */
			if( cTxLock == queueUNLOCKED )
     abe:	230f      	movs	r3, #15
     ac0:	18fb      	adds	r3, r7, r3
     ac2:	781b      	ldrb	r3, [r3, #0]
     ac4:	b25b      	sxtb	r3, r3
     ac6:	3301      	adds	r3, #1
     ac8:	d111      	bne.n	aee <xQueueGiveFromISR+0x6a>
						}
					}
				}
				#else /* configUSE_QUEUE_SETS */
				{
					if( listLIST_IS_EMPTY( &( pxQueue->xTasksWaitingToReceive ) ) == pdFALSE )
     aca:	69bb      	ldr	r3, [r7, #24]
     acc:	6a5b      	ldr	r3, [r3, #36]	; 0x24
     ace:	2b00      	cmp	r3, #0
     ad0:	d016      	beq.n	b00 <xQueueGiveFromISR+0x7c>
					{
						if( xTaskRemoveFromEventList( &( pxQueue->xTasksWaitingToReceive ) ) != pdFALSE )
     ad2:	69bb      	ldr	r3, [r7, #24]
     ad4:	3324      	adds	r3, #36	; 0x24
     ad6:	0018      	movs	r0, r3
     ad8:	4b11      	ldr	r3, [pc, #68]	; (b20 <xQueueGiveFromISR+0x9c>)
     ada:	4798      	blx	r3
     adc:	1e03      	subs	r3, r0, #0
     ade:	d00f      	beq.n	b00 <xQueueGiveFromISR+0x7c>
						{
							/* The task waiting has a higher priority so record that a
							context	switch is required. */
							if( pxHigherPriorityTaskWoken != NULL )
     ae0:	683b      	ldr	r3, [r7, #0]
     ae2:	2b00      	cmp	r3, #0
     ae4:	d00c      	beq.n	b00 <xQueueGiveFromISR+0x7c>
							{
								*pxHigherPriorityTaskWoken = pdTRUE;
     ae6:	683b      	ldr	r3, [r7, #0]
     ae8:	2201      	movs	r2, #1
     aea:	601a      	str	r2, [r3, #0]
     aec:	e008      	b.n	b00 <xQueueGiveFromISR+0x7c>
			}
			else
			{
				/* Increment the lock count so the task that unlocks the queue
				knows that data was posted while it was locked. */
				pxQueue->cTxLock = ( int8_t ) ( cTxLock + 1 );
     aee:	230f      	movs	r3, #15
     af0:	18fb      	adds	r3, r7, r3
     af2:	781b      	ldrb	r3, [r3, #0]
     af4:	3301      	adds	r3, #1
     af6:	b2db      	uxtb	r3, r3
     af8:	b259      	sxtb	r1, r3
     afa:	69bb      	ldr	r3, [r7, #24]
     afc:	2245      	movs	r2, #69	; 0x45
     afe:	5499      	strb	r1, [r3, r2]
			}

			xReturn = pdPASS;
     b00:	2301      	movs	r3, #1
     b02:	61fb      	str	r3, [r7, #28]
     b04:	e001      	b.n	b0a <xQueueGiveFromISR+0x86>
		}
		else
		{
			traceQUEUE_SEND_FROM_ISR_FAILED( pxQueue );
			xReturn = errQUEUE_FULL;
     b06:	2300      	movs	r3, #0
     b08:	61fb      	str	r3, [r7, #28]
		}
	}
	portCLEAR_INTERRUPT_MASK_FROM_ISR( uxSavedInterruptStatus );
     b0a:	697b      	ldr	r3, [r7, #20]
     b0c:	0018      	movs	r0, r3
     b0e:	4b05      	ldr	r3, [pc, #20]	; (b24 <xQueueGiveFromISR+0xa0>)
     b10:	4798      	blx	r3

	return xReturn;
     b12:	69fb      	ldr	r3, [r7, #28]
}
     b14:	0018      	movs	r0, r3
     b16:	46bd      	mov	sp, r7
     b18:	b008      	add	sp, #32
     b1a:	bd80      	pop	{r7, pc}
     b1c:	00000599 	.word	0x00000599
     b20:	00001659 	.word	0x00001659
     b24:	000005a5 	.word	0x000005a5

00000b28 <xQueueReceive>:
/*-----------------------------------------------------------*/

BaseType_t xQueueReceive( QueueHandle_t xQueue, void * const pvBuffer, TickType_t xTicksToWait )
{
     b28:	b580      	push	{r7, lr}
     b2a:	b08a      	sub	sp, #40	; 0x28
     b2c:	af00      	add	r7, sp, #0
     b2e:	60f8      	str	r0, [r7, #12]
     b30:	60b9      	str	r1, [r7, #8]
     b32:	607a      	str	r2, [r7, #4]
BaseType_t xEntryTimeSet = pdFALSE;
     b34:	2300      	movs	r3, #0
     b36:	627b      	str	r3, [r7, #36]	; 0x24
TimeOut_t xTimeOut;
Queue_t * const pxQueue = xQueue;
     b38:	68fb      	ldr	r3, [r7, #12]
     b3a:	623b      	str	r3, [r7, #32]
	/*lint -save -e904  This function relaxes the coding standard somewhat to
	allow return statements within the function itself.  This is done in the
	interest of execution time efficiency. */
	for( ;; )
	{
		taskENTER_CRITICAL();
     b3c:	4b44      	ldr	r3, [pc, #272]	; (c50 <xQueueReceive+0x128>)
     b3e:	4798      	blx	r3
		{
			const UBaseType_t uxMessagesWaiting = pxQueue->uxMessagesWaiting;
     b40:	6a3b      	ldr	r3, [r7, #32]
     b42:	6b9b      	ldr	r3, [r3, #56]	; 0x38
     b44:	61fb      	str	r3, [r7, #28]

			/* Is there data in the queue now?  To be running the calling task
			must be the highest priority task wanting to access the queue. */
			if( uxMessagesWaiting > ( UBaseType_t ) 0 )
     b46:	69fb      	ldr	r3, [r7, #28]
     b48:	2b00      	cmp	r3, #0
     b4a:	d01a      	beq.n	b82 <xQueueReceive+0x5a>
			{
				/* Data available, remove one item. */
				prvCopyDataFromQueue( pxQueue, pvBuffer );
     b4c:	68ba      	ldr	r2, [r7, #8]
     b4e:	6a3b      	ldr	r3, [r7, #32]
     b50:	0011      	movs	r1, r2
     b52:	0018      	movs	r0, r3
     b54:	4b3f      	ldr	r3, [pc, #252]	; (c54 <xQueueReceive+0x12c>)
     b56:	4798      	blx	r3
				traceQUEUE_RECEIVE( pxQueue );
				pxQueue->uxMessagesWaiting = uxMessagesWaiting - ( UBaseType_t ) 1;
     b58:	69fb      	ldr	r3, [r7, #28]
     b5a:	1e5a      	subs	r2, r3, #1
     b5c:	6a3b      	ldr	r3, [r7, #32]
     b5e:	639a      	str	r2, [r3, #56]	; 0x38

				/* There is now space in the queue, were any tasks waiting to
				post to the queue?  If so, unblock the highest priority waiting
				task. */
				if( listLIST_IS_EMPTY( &( pxQueue->xTasksWaitingToSend ) ) == pdFALSE )
     b60:	6a3b      	ldr	r3, [r7, #32]
     b62:	691b      	ldr	r3, [r3, #16]
     b64:	2b00      	cmp	r3, #0
     b66:	d008      	beq.n	b7a <xQueueReceive+0x52>
				{
					if( xTaskRemoveFromEventList( &( pxQueue->xTasksWaitingToSend ) ) != pdFALSE )
     b68:	6a3b      	ldr	r3, [r7, #32]
     b6a:	3310      	adds	r3, #16
     b6c:	0018      	movs	r0, r3
     b6e:	4b3a      	ldr	r3, [pc, #232]	; (c58 <xQueueReceive+0x130>)
     b70:	4798      	blx	r3
     b72:	1e03      	subs	r3, r0, #0
     b74:	d001      	beq.n	b7a <xQueueReceive+0x52>
					{
						queueYIELD_IF_USING_PREEMPTION();
     b76:	4b39      	ldr	r3, [pc, #228]	; (c5c <xQueueReceive+0x134>)
     b78:	4798      	blx	r3
				else
				{
					mtCOVERAGE_TEST_MARKER();
				}

				taskEXIT_CRITICAL();
     b7a:	4b39      	ldr	r3, [pc, #228]	; (c60 <xQueueReceive+0x138>)
     b7c:	4798      	blx	r3
				return pdPASS;
     b7e:	2301      	movs	r3, #1
     b80:	e062      	b.n	c48 <xQueueReceive+0x120>
			}
			else
			{
				if( xTicksToWait == ( TickType_t ) 0 )
     b82:	687b      	ldr	r3, [r7, #4]
     b84:	2b00      	cmp	r3, #0
     b86:	d103      	bne.n	b90 <xQueueReceive+0x68>
				{
					/* The queue was empty and no block time is specified (or
					the block time has expired) so leave now. */
					taskEXIT_CRITICAL();
     b88:	4b35      	ldr	r3, [pc, #212]	; (c60 <xQueueReceive+0x138>)
     b8a:	4798      	blx	r3
					traceQUEUE_RECEIVE_FAILED( pxQueue );
					return errQUEUE_EMPTY;
     b8c:	2300      	movs	r3, #0
     b8e:	e05b      	b.n	c48 <xQueueReceive+0x120>
				}
				else if( xEntryTimeSet == pdFALSE )
     b90:	6a7b      	ldr	r3, [r7, #36]	; 0x24
     b92:	2b00      	cmp	r3, #0
     b94:	d106      	bne.n	ba4 <xQueueReceive+0x7c>
				{
					/* The queue was empty and a block time was specified so
					configure the timeout structure. */
					vTaskInternalSetTimeOutState( &xTimeOut );
     b96:	2314      	movs	r3, #20
     b98:	18fb      	adds	r3, r7, r3
     b9a:	0018      	movs	r0, r3
     b9c:	4b31      	ldr	r3, [pc, #196]	; (c64 <xQueueReceive+0x13c>)
     b9e:	4798      	blx	r3
					xEntryTimeSet = pdTRUE;
     ba0:	2301      	movs	r3, #1
     ba2:	627b      	str	r3, [r7, #36]	; 0x24
					/* Entry time was already set. */
					mtCOVERAGE_TEST_MARKER();
				}
			}
		}
		taskEXIT_CRITICAL();
     ba4:	4b2e      	ldr	r3, [pc, #184]	; (c60 <xQueueReceive+0x138>)
     ba6:	4798      	blx	r3

		/* Interrupts and other tasks can send to and receive from the queue
		now the critical section has been exited. */

		vTaskSuspendAll();
     ba8:	4b2f      	ldr	r3, [pc, #188]	; (c68 <xQueueReceive+0x140>)
     baa:	4798      	blx	r3
		prvLockQueue( pxQueue );
     bac:	4b28      	ldr	r3, [pc, #160]	; (c50 <xQueueReceive+0x128>)
     bae:	4798      	blx	r3
     bb0:	6a3b      	ldr	r3, [r7, #32]
     bb2:	2244      	movs	r2, #68	; 0x44
     bb4:	5c9b      	ldrb	r3, [r3, r2]
     bb6:	b25b      	sxtb	r3, r3
     bb8:	3301      	adds	r3, #1
     bba:	d103      	bne.n	bc4 <xQueueReceive+0x9c>
     bbc:	6a3b      	ldr	r3, [r7, #32]
     bbe:	2244      	movs	r2, #68	; 0x44
     bc0:	2100      	movs	r1, #0
     bc2:	5499      	strb	r1, [r3, r2]
     bc4:	6a3b      	ldr	r3, [r7, #32]
     bc6:	2245      	movs	r2, #69	; 0x45
     bc8:	5c9b      	ldrb	r3, [r3, r2]
     bca:	b25b      	sxtb	r3, r3
     bcc:	3301      	adds	r3, #1
     bce:	d103      	bne.n	bd8 <xQueueReceive+0xb0>
     bd0:	6a3b      	ldr	r3, [r7, #32]
     bd2:	2245      	movs	r2, #69	; 0x45
     bd4:	2100      	movs	r1, #0
     bd6:	5499      	strb	r1, [r3, r2]
     bd8:	4b21      	ldr	r3, [pc, #132]	; (c60 <xQueueReceive+0x138>)
     bda:	4798      	blx	r3

		/* Update the timeout state to see if it has expired yet. */
		if( xTaskCheckForTimeOut( &xTimeOut, &xTicksToWait ) == pdFALSE )
     bdc:	1d3a      	adds	r2, r7, #4
     bde:	2314      	movs	r3, #20
     be0:	18fb      	adds	r3, r7, r3
     be2:	0011      	movs	r1, r2
     be4:	0018      	movs	r0, r3
     be6:	4b21      	ldr	r3, [pc, #132]	; (c6c <xQueueReceive+0x144>)
     be8:	4798      	blx	r3
     bea:	1e03      	subs	r3, r0, #0
     bec:	d11e      	bne.n	c2c <xQueueReceive+0x104>
		{
			/* The timeout has not expired.  If the queue is still empty place
			the task on the list of tasks waiting to receive from the queue. */
			if( prvIsQueueEmpty( pxQueue ) != pdFALSE )
     bee:	6a3b      	ldr	r3, [r7, #32]
     bf0:	0018      	movs	r0, r3
     bf2:	4b1f      	ldr	r3, [pc, #124]	; (c70 <xQueueReceive+0x148>)
     bf4:	4798      	blx	r3
     bf6:	1e03      	subs	r3, r0, #0
     bf8:	d011      	beq.n	c1e <xQueueReceive+0xf6>
			{
				traceBLOCKING_ON_QUEUE_RECEIVE( pxQueue );
				vTaskPlaceOnEventList( &( pxQueue->xTasksWaitingToReceive ), xTicksToWait );
     bfa:	6a3b      	ldr	r3, [r7, #32]
     bfc:	3324      	adds	r3, #36	; 0x24
     bfe:	687a      	ldr	r2, [r7, #4]
     c00:	0011      	movs	r1, r2
     c02:	0018      	movs	r0, r3
     c04:	4b1b      	ldr	r3, [pc, #108]	; (c74 <xQueueReceive+0x14c>)
     c06:	4798      	blx	r3
				prvUnlockQueue( pxQueue );
     c08:	6a3b      	ldr	r3, [r7, #32]
     c0a:	0018      	movs	r0, r3
     c0c:	4b1a      	ldr	r3, [pc, #104]	; (c78 <xQueueReceive+0x150>)
     c0e:	4798      	blx	r3
				if( xTaskResumeAll() == pdFALSE )
     c10:	4b1a      	ldr	r3, [pc, #104]	; (c7c <xQueueReceive+0x154>)
     c12:	4798      	blx	r3
     c14:	1e03      	subs	r3, r0, #0
     c16:	d191      	bne.n	b3c <xQueueReceive+0x14>
				{
					portYIELD_WITHIN_API();
     c18:	4b10      	ldr	r3, [pc, #64]	; (c5c <xQueueReceive+0x134>)
     c1a:	4798      	blx	r3
     c1c:	e78e      	b.n	b3c <xQueueReceive+0x14>
			}
			else
			{
				/* The queue contains data again.  Loop back to try and read the
				data. */
				prvUnlockQueue( pxQueue );
     c1e:	6a3b      	ldr	r3, [r7, #32]
     c20:	0018      	movs	r0, r3
     c22:	4b15      	ldr	r3, [pc, #84]	; (c78 <xQueueReceive+0x150>)
     c24:	4798      	blx	r3
				( void ) xTaskResumeAll();
     c26:	4b15      	ldr	r3, [pc, #84]	; (c7c <xQueueReceive+0x154>)
     c28:	4798      	blx	r3
     c2a:	e787      	b.n	b3c <xQueueReceive+0x14>
		}
		else
		{
			/* Timed out.  If there is no data in the queue exit, otherwise loop
			back and attempt to read the data. */
			prvUnlockQueue( pxQueue );
     c2c:	6a3b      	ldr	r3, [r7, #32]
     c2e:	0018      	movs	r0, r3
     c30:	4b11      	ldr	r3, [pc, #68]	; (c78 <xQueueReceive+0x150>)
     c32:	4798      	blx	r3
			( void ) xTaskResumeAll();
     c34:	4b11      	ldr	r3, [pc, #68]	; (c7c <xQueueReceive+0x154>)
     c36:	4798      	blx	r3

			if( prvIsQueueEmpty( pxQueue ) != pdFALSE )
     c38:	6a3b      	ldr	r3, [r7, #32]
     c3a:	0018      	movs	r0, r3
     c3c:	4b0c      	ldr	r3, [pc, #48]	; (c70 <xQueueReceive+0x148>)
     c3e:	4798      	blx	r3
     c40:	1e03      	subs	r3, r0, #0
     c42:	d100      	bne.n	c46 <xQueueReceive+0x11e>
     c44:	e77a      	b.n	b3c <xQueueReceive+0x14>
			{
				traceQUEUE_RECEIVE_FAILED( pxQueue );
				return errQUEUE_EMPTY;
     c46:	2300      	movs	r3, #0
			{
				mtCOVERAGE_TEST_MARKER();
			}
		}
	} /*lint -restore */
}
     c48:	0018      	movs	r0, r3
     c4a:	46bd      	mov	sp, r7
     c4c:	b00a      	add	sp, #40	; 0x28
     c4e:	bd80      	pop	{r7, pc}
     c50:	00000551 	.word	0x00000551
     c54:	00000e85 	.word	0x00000e85
     c58:	00001659 	.word	0x00001659
     c5c:	00000531 	.word	0x00000531
     c60:	00000575 	.word	0x00000575
     c64:	00001711 	.word	0x00001711
     c68:	000012e9 	.word	0x000012e9
     c6c:	00001739 	.word	0x00001739
     c70:	00000fa5 	.word	0x00000fa5
     c74:	0000161d 	.word	0x0000161d
     c78:	00000ed5 	.word	0x00000ed5
     c7c:	00001301 	.word	0x00001301

00000c80 <xQueueSemaphoreTake>:
/*-----------------------------------------------------------*/

BaseType_t xQueueSemaphoreTake( QueueHandle_t xQueue, TickType_t xTicksToWait )
{
     c80:	b580      	push	{r7, lr}
     c82:	b088      	sub	sp, #32
     c84:	af00      	add	r7, sp, #0
     c86:	6078      	str	r0, [r7, #4]
     c88:	6039      	str	r1, [r7, #0]
BaseType_t xEntryTimeSet = pdFALSE;
     c8a:	2300      	movs	r3, #0
     c8c:	61fb      	str	r3, [r7, #28]
TimeOut_t xTimeOut;
Queue_t * const pxQueue = xQueue;
     c8e:	687b      	ldr	r3, [r7, #4]
     c90:	61bb      	str	r3, [r7, #24]
	/*lint -save -e904 This function relaxes the coding standard somewhat to allow return
	statements within the function itself.  This is done in the interest
	of execution time efficiency. */
	for( ;; )
	{
		taskENTER_CRITICAL();
     c92:	4b42      	ldr	r3, [pc, #264]	; (d9c <xQueueSemaphoreTake+0x11c>)
     c94:	4798      	blx	r3
		{
			/* Semaphores are queues with an item size of 0, and where the
			number of messages in the queue is the semaphore's count value. */
			const UBaseType_t uxSemaphoreCount = pxQueue->uxMessagesWaiting;
     c96:	69bb      	ldr	r3, [r7, #24]
     c98:	6b9b      	ldr	r3, [r3, #56]	; 0x38
     c9a:	617b      	str	r3, [r7, #20]

			/* Is there data in the queue now?  To be running the calling task
			must be the highest priority task wanting to access the queue. */
			if( uxSemaphoreCount > ( UBaseType_t ) 0 )
     c9c:	697b      	ldr	r3, [r7, #20]
     c9e:	2b00      	cmp	r3, #0
     ca0:	d014      	beq.n	ccc <xQueueSemaphoreTake+0x4c>
			{
				traceQUEUE_RECEIVE( pxQueue );

				/* Semaphores are queues with a data size of zero and where the
				messages waiting is the semaphore's count.  Reduce the count. */
				pxQueue->uxMessagesWaiting = uxSemaphoreCount - ( UBaseType_t ) 1;
     ca2:	697b      	ldr	r3, [r7, #20]
     ca4:	1e5a      	subs	r2, r3, #1
     ca6:	69bb      	ldr	r3, [r7, #24]
     ca8:	639a      	str	r2, [r3, #56]	; 0x38
				}
				#endif /* configUSE_MUTEXES */

				/* Check to see if other tasks are blocked waiting to give the
				semaphore, and if so, unblock the highest priority such task. */
				if( listLIST_IS_EMPTY( &( pxQueue->xTasksWaitingToSend ) ) == pdFALSE )
     caa:	69bb      	ldr	r3, [r7, #24]
     cac:	691b      	ldr	r3, [r3, #16]
     cae:	2b00      	cmp	r3, #0
     cb0:	d008      	beq.n	cc4 <xQueueSemaphoreTake+0x44>
				{
					if( xTaskRemoveFromEventList( &( pxQueue->xTasksWaitingToSend ) ) != pdFALSE )
     cb2:	69bb      	ldr	r3, [r7, #24]
     cb4:	3310      	adds	r3, #16
     cb6:	0018      	movs	r0, r3
     cb8:	4b39      	ldr	r3, [pc, #228]	; (da0 <xQueueSemaphoreTake+0x120>)
     cba:	4798      	blx	r3
     cbc:	1e03      	subs	r3, r0, #0
     cbe:	d001      	beq.n	cc4 <xQueueSemaphoreTake+0x44>
					{
						queueYIELD_IF_USING_PREEMPTION();
     cc0:	4b38      	ldr	r3, [pc, #224]	; (da4 <xQueueSemaphoreTake+0x124>)
     cc2:	4798      	blx	r3
				else
				{
					mtCOVERAGE_TEST_MARKER();
				}

				taskEXIT_CRITICAL();
     cc4:	4b38      	ldr	r3, [pc, #224]	; (da8 <xQueueSemaphoreTake+0x128>)
     cc6:	4798      	blx	r3
				return pdPASS;
     cc8:	2301      	movs	r3, #1
     cca:	e062      	b.n	d92 <xQueueSemaphoreTake+0x112>
			}
			else
			{
				if( xTicksToWait == ( TickType_t ) 0 )
     ccc:	683b      	ldr	r3, [r7, #0]
     cce:	2b00      	cmp	r3, #0
     cd0:	d103      	bne.n	cda <xQueueSemaphoreTake+0x5a>
					}
					#endif /* configUSE_MUTEXES */

					/* The semaphore count was 0 and no block time is specified
					(or the block time has expired) so exit now. */
					taskEXIT_CRITICAL();
     cd2:	4b35      	ldr	r3, [pc, #212]	; (da8 <xQueueSemaphoreTake+0x128>)
     cd4:	4798      	blx	r3
					traceQUEUE_RECEIVE_FAILED( pxQueue );
					return errQUEUE_EMPTY;
     cd6:	2300      	movs	r3, #0
     cd8:	e05b      	b.n	d92 <xQueueSemaphoreTake+0x112>
				}
				else if( xEntryTimeSet == pdFALSE )
     cda:	69fb      	ldr	r3, [r7, #28]
     cdc:	2b00      	cmp	r3, #0
     cde:	d106      	bne.n	cee <xQueueSemaphoreTake+0x6e>
				{
					/* The semaphore count was 0 and a block time was specified
					so configure the timeout structure ready to block. */
					vTaskInternalSetTimeOutState( &xTimeOut );
     ce0:	230c      	movs	r3, #12
     ce2:	18fb      	adds	r3, r7, r3
     ce4:	0018      	movs	r0, r3
     ce6:	4b31      	ldr	r3, [pc, #196]	; (dac <xQueueSemaphoreTake+0x12c>)
     ce8:	4798      	blx	r3
					xEntryTimeSet = pdTRUE;
     cea:	2301      	movs	r3, #1
     cec:	61fb      	str	r3, [r7, #28]
					/* Entry time was already set. */
					mtCOVERAGE_TEST_MARKER();
				}
			}
		}
		taskEXIT_CRITICAL();
     cee:	4b2e      	ldr	r3, [pc, #184]	; (da8 <xQueueSemaphoreTake+0x128>)
     cf0:	4798      	blx	r3

		/* Interrupts and other tasks can give to and take from the semaphore
		now the critical section has been exited. */

		vTaskSuspendAll();
     cf2:	4b2f      	ldr	r3, [pc, #188]	; (db0 <xQueueSemaphoreTake+0x130>)
     cf4:	4798      	blx	r3
		prvLockQueue( pxQueue );
     cf6:	4b29      	ldr	r3, [pc, #164]	; (d9c <xQueueSemaphoreTake+0x11c>)
     cf8:	4798      	blx	r3
     cfa:	69bb      	ldr	r3, [r7, #24]
     cfc:	2244      	movs	r2, #68	; 0x44
     cfe:	5c9b      	ldrb	r3, [r3, r2]
     d00:	b25b      	sxtb	r3, r3
     d02:	3301      	adds	r3, #1
     d04:	d103      	bne.n	d0e <xQueueSemaphoreTake+0x8e>
     d06:	69bb      	ldr	r3, [r7, #24]
     d08:	2244      	movs	r2, #68	; 0x44
     d0a:	2100      	movs	r1, #0
     d0c:	5499      	strb	r1, [r3, r2]
     d0e:	69bb      	ldr	r3, [r7, #24]
     d10:	2245      	movs	r2, #69	; 0x45
     d12:	5c9b      	ldrb	r3, [r3, r2]
     d14:	b25b      	sxtb	r3, r3
     d16:	3301      	adds	r3, #1
     d18:	d103      	bne.n	d22 <xQueueSemaphoreTake+0xa2>
     d1a:	69bb      	ldr	r3, [r7, #24]
     d1c:	2245      	movs	r2, #69	; 0x45
     d1e:	2100      	movs	r1, #0
     d20:	5499      	strb	r1, [r3, r2]
     d22:	4b21      	ldr	r3, [pc, #132]	; (da8 <xQueueSemaphoreTake+0x128>)
     d24:	4798      	blx	r3

		/* Update the timeout state to see if it has expired yet. */
		if( xTaskCheckForTimeOut( &xTimeOut, &xTicksToWait ) == pdFALSE )
     d26:	003a      	movs	r2, r7
     d28:	230c      	movs	r3, #12
     d2a:	18fb      	adds	r3, r7, r3
     d2c:	0011      	movs	r1, r2
     d2e:	0018      	movs	r0, r3
     d30:	4b20      	ldr	r3, [pc, #128]	; (db4 <xQueueSemaphoreTake+0x134>)
     d32:	4798      	blx	r3
     d34:	1e03      	subs	r3, r0, #0
     d36:	d11e      	bne.n	d76 <xQueueSemaphoreTake+0xf6>
		{
			/* A block time is specified and not expired.  If the semaphore
			count is 0 then enter the Blocked state to wait for a semaphore to
			become available.  As semaphores are implemented with queues the
			queue being empty is equivalent to the semaphore count being 0. */
			if( prvIsQueueEmpty( pxQueue ) != pdFALSE )
     d38:	69bb      	ldr	r3, [r7, #24]
     d3a:	0018      	movs	r0, r3
     d3c:	4b1e      	ldr	r3, [pc, #120]	; (db8 <xQueueSemaphoreTake+0x138>)
     d3e:	4798      	blx	r3
     d40:	1e03      	subs	r3, r0, #0
     d42:	d011      	beq.n	d68 <xQueueSemaphoreTake+0xe8>
						mtCOVERAGE_TEST_MARKER();
					}
				}
				#endif

				vTaskPlaceOnEventList( &( pxQueue->xTasksWaitingToReceive ), xTicksToWait );
     d44:	69bb      	ldr	r3, [r7, #24]
     d46:	3324      	adds	r3, #36	; 0x24
     d48:	683a      	ldr	r2, [r7, #0]
     d4a:	0011      	movs	r1, r2
     d4c:	0018      	movs	r0, r3
     d4e:	4b1b      	ldr	r3, [pc, #108]	; (dbc <xQueueSemaphoreTake+0x13c>)
     d50:	4798      	blx	r3
				prvUnlockQueue( pxQueue );
     d52:	69bb      	ldr	r3, [r7, #24]
     d54:	0018      	movs	r0, r3
     d56:	4b1a      	ldr	r3, [pc, #104]	; (dc0 <xQueueSemaphoreTake+0x140>)
     d58:	4798      	blx	r3
				if( xTaskResumeAll() == pdFALSE )
     d5a:	4b1a      	ldr	r3, [pc, #104]	; (dc4 <xQueueSemaphoreTake+0x144>)
     d5c:	4798      	blx	r3
     d5e:	1e03      	subs	r3, r0, #0
     d60:	d197      	bne.n	c92 <xQueueSemaphoreTake+0x12>
				{
					portYIELD_WITHIN_API();
     d62:	4b10      	ldr	r3, [pc, #64]	; (da4 <xQueueSemaphoreTake+0x124>)
     d64:	4798      	blx	r3
     d66:	e794      	b.n	c92 <xQueueSemaphoreTake+0x12>
			}
			else
			{
				/* There was no timeout and the semaphore count was not 0, so
				attempt to take the semaphore again. */
				prvUnlockQueue( pxQueue );
     d68:	69bb      	ldr	r3, [r7, #24]
     d6a:	0018      	movs	r0, r3
     d6c:	4b14      	ldr	r3, [pc, #80]	; (dc0 <xQueueSemaphoreTake+0x140>)
     d6e:	4798      	blx	r3
				( void ) xTaskResumeAll();
     d70:	4b14      	ldr	r3, [pc, #80]	; (dc4 <xQueueSemaphoreTake+0x144>)
     d72:	4798      	blx	r3
     d74:	e78d      	b.n	c92 <xQueueSemaphoreTake+0x12>
			}
		}
		else
		{
			/* Timed out. */
			prvUnlockQueue( pxQueue );
     d76:	69bb      	ldr	r3, [r7, #24]
     d78:	0018      	movs	r0, r3
     d7a:	4b11      	ldr	r3, [pc, #68]	; (dc0 <xQueueSemaphoreTake+0x140>)
     d7c:	4798      	blx	r3
			( void ) xTaskResumeAll();
     d7e:	4b11      	ldr	r3, [pc, #68]	; (dc4 <xQueueSemaphoreTake+0x144>)
     d80:	4798      	blx	r3

			/* If the semaphore count is 0 exit now as the timeout has
			expired.  Otherwise return to attempt to take the semaphore that is
			known to be available.  As semaphores are implemented by queues the
			queue being empty is equivalent to the semaphore count being 0. */
			if( prvIsQueueEmpty( pxQueue ) != pdFALSE )
     d82:	69bb      	ldr	r3, [r7, #24]
     d84:	0018      	movs	r0, r3
     d86:	4b0c      	ldr	r3, [pc, #48]	; (db8 <xQueueSemaphoreTake+0x138>)
     d88:	4798      	blx	r3
     d8a:	1e03      	subs	r3, r0, #0
     d8c:	d100      	bne.n	d90 <xQueueSemaphoreTake+0x110>
     d8e:	e780      	b.n	c92 <xQueueSemaphoreTake+0x12>
					}
				}
				#endif /* configUSE_MUTEXES */

				traceQUEUE_RECEIVE_FAILED( pxQueue );
				return errQUEUE_EMPTY;
     d90:	2300      	movs	r3, #0
			{
				mtCOVERAGE_TEST_MARKER();
			}
		}
	} /*lint -restore */
}
     d92:	0018      	movs	r0, r3
     d94:	46bd      	mov	sp, r7
     d96:	b008      	add	sp, #32
     d98:	bd80      	pop	{r7, pc}
     d9a:	46c0      	nop			; (mov r8, r8)
     d9c:	00000551 	.word	0x00000551
     da0:	00001659 	.word	0x00001659
     da4:	00000531 	.word	0x00000531
     da8:	00000575 	.word	0x00000575
     dac:	00001711 	.word	0x00001711
     db0:	000012e9 	.word	0x000012e9
     db4:	00001739 	.word	0x00001739
     db8:	00000fa5 	.word	0x00000fa5
     dbc:	0000161d 	.word	0x0000161d
     dc0:	00000ed5 	.word	0x00000ed5
     dc4:	00001301 	.word	0x00001301

00000dc8 <prvCopyDataToQueue>:

#endif /* configUSE_MUTEXES */
/*-----------------------------------------------------------*/

static BaseType_t prvCopyDataToQueue( Queue_t * const pxQueue, const void *pvItemToQueue, const BaseType_t xPosition )
{
     dc8:	b580      	push	{r7, lr}
     dca:	b086      	sub	sp, #24
     dcc:	af00      	add	r7, sp, #0
     dce:	60f8      	str	r0, [r7, #12]
     dd0:	60b9      	str	r1, [r7, #8]
     dd2:	607a      	str	r2, [r7, #4]
BaseType_t xReturn = pdFALSE;
     dd4:	2300      	movs	r3, #0
     dd6:	613b      	str	r3, [r7, #16]
UBaseType_t uxMessagesWaiting;

	/* This function is called from a critical section. */

	uxMessagesWaiting = pxQueue->uxMessagesWaiting;
     dd8:	68fb      	ldr	r3, [r7, #12]
     dda:	6b9b      	ldr	r3, [r3, #56]	; 0x38
     ddc:	617b      	str	r3, [r7, #20]

	if( pxQueue->uxItemSize == ( UBaseType_t ) 0 )
     dde:	68fb      	ldr	r3, [r7, #12]
     de0:	6c1b      	ldr	r3, [r3, #64]	; 0x40
     de2:	2b00      	cmp	r3, #0
     de4:	d043      	beq.n	e6e <prvCopyDataToQueue+0xa6>
				mtCOVERAGE_TEST_MARKER();
			}
		}
		#endif /* configUSE_MUTEXES */
	}
	else if( xPosition == queueSEND_TO_BACK )
     de6:	687b      	ldr	r3, [r7, #4]
     de8:	2b00      	cmp	r3, #0
     dea:	d119      	bne.n	e20 <prvCopyDataToQueue+0x58>
	{
		( void ) memcpy( ( void * ) pxQueue->pcWriteTo, pvItemToQueue, ( size_t ) pxQueue->uxItemSize ); /*lint !e961 !e418 !e9087 MISRA exception as the casts are only redundant for some ports, plus previous logic ensures a null pointer can only be passed to memcpy() if the copy size is 0.  Cast to void required by function signature and safe as no alignment requirement and copy length specified in bytes. */
     dec:	68fb      	ldr	r3, [r7, #12]
     dee:	6858      	ldr	r0, [r3, #4]
     df0:	68fb      	ldr	r3, [r7, #12]
     df2:	6c1a      	ldr	r2, [r3, #64]	; 0x40
     df4:	68bb      	ldr	r3, [r7, #8]
     df6:	0019      	movs	r1, r3
     df8:	4b21      	ldr	r3, [pc, #132]	; (e80 <prvCopyDataToQueue+0xb8>)
     dfa:	4798      	blx	r3
		pxQueue->pcWriteTo += pxQueue->uxItemSize; /*lint !e9016 Pointer arithmetic on char types ok, especially in this use case where it is the clearest way of conveying intent. */
     dfc:	68fb      	ldr	r3, [r7, #12]
     dfe:	685a      	ldr	r2, [r3, #4]
     e00:	68fb      	ldr	r3, [r7, #12]
     e02:	6c1b      	ldr	r3, [r3, #64]	; 0x40
     e04:	18d2      	adds	r2, r2, r3
     e06:	68fb      	ldr	r3, [r7, #12]
     e08:	605a      	str	r2, [r3, #4]
		if( pxQueue->pcWriteTo >= pxQueue->u.xQueue.pcTail ) /*lint !e946 MISRA exception justified as comparison of pointers is the cleanest solution. */
     e0a:	68fb      	ldr	r3, [r7, #12]
     e0c:	685a      	ldr	r2, [r3, #4]
     e0e:	68fb      	ldr	r3, [r7, #12]
     e10:	689b      	ldr	r3, [r3, #8]
     e12:	429a      	cmp	r2, r3
     e14:	d32b      	bcc.n	e6e <prvCopyDataToQueue+0xa6>
		{
			pxQueue->pcWriteTo = pxQueue->pcHead;
     e16:	68fb      	ldr	r3, [r7, #12]
     e18:	681a      	ldr	r2, [r3, #0]
     e1a:	68fb      	ldr	r3, [r7, #12]
     e1c:	605a      	str	r2, [r3, #4]
     e1e:	e026      	b.n	e6e <prvCopyDataToQueue+0xa6>
			mtCOVERAGE_TEST_MARKER();
		}
	}
	else
	{
		( void ) memcpy( ( void * ) pxQueue->u.xQueue.pcReadFrom, pvItemToQueue, ( size_t ) pxQueue->uxItemSize ); /*lint !e961 !e9087 !e418 MISRA exception as the casts are only redundant for some ports.  Cast to void required by function signature and safe as no alignment requirement and copy length specified in bytes.  Assert checks null pointer only used when length is 0. */
     e20:	68fb      	ldr	r3, [r7, #12]
     e22:	68d8      	ldr	r0, [r3, #12]
     e24:	68fb      	ldr	r3, [r7, #12]
     e26:	6c1a      	ldr	r2, [r3, #64]	; 0x40
     e28:	68bb      	ldr	r3, [r7, #8]
     e2a:	0019      	movs	r1, r3
     e2c:	4b14      	ldr	r3, [pc, #80]	; (e80 <prvCopyDataToQueue+0xb8>)
     e2e:	4798      	blx	r3
		pxQueue->u.xQueue.pcReadFrom -= pxQueue->uxItemSize;
     e30:	68fb      	ldr	r3, [r7, #12]
     e32:	68da      	ldr	r2, [r3, #12]
     e34:	68fb      	ldr	r3, [r7, #12]
     e36:	6c1b      	ldr	r3, [r3, #64]	; 0x40
     e38:	425b      	negs	r3, r3
     e3a:	18d2      	adds	r2, r2, r3
     e3c:	68fb      	ldr	r3, [r7, #12]
     e3e:	60da      	str	r2, [r3, #12]
		if( pxQueue->u.xQueue.pcReadFrom < pxQueue->pcHead ) /*lint !e946 MISRA exception justified as comparison of pointers is the cleanest solution. */
     e40:	68fb      	ldr	r3, [r7, #12]
     e42:	68da      	ldr	r2, [r3, #12]
     e44:	68fb      	ldr	r3, [r7, #12]
     e46:	681b      	ldr	r3, [r3, #0]
     e48:	429a      	cmp	r2, r3
     e4a:	d207      	bcs.n	e5c <prvCopyDataToQueue+0x94>
		{
			pxQueue->u.xQueue.pcReadFrom = ( pxQueue->u.xQueue.pcTail - pxQueue->uxItemSize );
     e4c:	68fb      	ldr	r3, [r7, #12]
     e4e:	689a      	ldr	r2, [r3, #8]
     e50:	68fb      	ldr	r3, [r7, #12]
     e52:	6c1b      	ldr	r3, [r3, #64]	; 0x40
     e54:	425b      	negs	r3, r3
     e56:	18d2      	adds	r2, r2, r3
     e58:	68fb      	ldr	r3, [r7, #12]
     e5a:	60da      	str	r2, [r3, #12]
		else
		{
			mtCOVERAGE_TEST_MARKER();
		}

		if( xPosition == queueOVERWRITE )
     e5c:	687b      	ldr	r3, [r7, #4]
     e5e:	2b02      	cmp	r3, #2
     e60:	d105      	bne.n	e6e <prvCopyDataToQueue+0xa6>
		{
			if( uxMessagesWaiting > ( UBaseType_t ) 0 )
     e62:	697b      	ldr	r3, [r7, #20]
     e64:	2b00      	cmp	r3, #0
     e66:	d002      	beq.n	e6e <prvCopyDataToQueue+0xa6>
			{
				/* An item is not being added but overwritten, so subtract
				one from the recorded number of items in the queue so when
				one is added again below the number of recorded items remains
				correct. */
				--uxMessagesWaiting;
     e68:	697b      	ldr	r3, [r7, #20]
     e6a:	3b01      	subs	r3, #1
     e6c:	617b      	str	r3, [r7, #20]
		{
			mtCOVERAGE_TEST_MARKER();
		}
	}

	pxQueue->uxMessagesWaiting = uxMessagesWaiting + ( UBaseType_t ) 1;
     e6e:	697b      	ldr	r3, [r7, #20]
     e70:	1c5a      	adds	r2, r3, #1
     e72:	68fb      	ldr	r3, [r7, #12]
     e74:	639a      	str	r2, [r3, #56]	; 0x38

	return xReturn;
     e76:	693b      	ldr	r3, [r7, #16]
}
     e78:	0018      	movs	r0, r3
     e7a:	46bd      	mov	sp, r7
     e7c:	b006      	add	sp, #24
     e7e:	bd80      	pop	{r7, pc}
     e80:	000042b1 	.word	0x000042b1

00000e84 <prvCopyDataFromQueue>:
/*-----------------------------------------------------------*/

static void prvCopyDataFromQueue( Queue_t * const pxQueue, void * const pvBuffer )
{
     e84:	b580      	push	{r7, lr}
     e86:	b082      	sub	sp, #8
     e88:	af00      	add	r7, sp, #0
     e8a:	6078      	str	r0, [r7, #4]
     e8c:	6039      	str	r1, [r7, #0]
	if( pxQueue->uxItemSize != ( UBaseType_t ) 0 )
     e8e:	687b      	ldr	r3, [r7, #4]
     e90:	6c1b      	ldr	r3, [r3, #64]	; 0x40
     e92:	2b00      	cmp	r3, #0
     e94:	d018      	beq.n	ec8 <prvCopyDataFromQueue+0x44>
	{
		pxQueue->u.xQueue.pcReadFrom += pxQueue->uxItemSize; /*lint !e9016 Pointer arithmetic on char types ok, especially in this use case where it is the clearest way of conveying intent. */
     e96:	687b      	ldr	r3, [r7, #4]
     e98:	68da      	ldr	r2, [r3, #12]
     e9a:	687b      	ldr	r3, [r7, #4]
     e9c:	6c1b      	ldr	r3, [r3, #64]	; 0x40
     e9e:	18d2      	adds	r2, r2, r3
     ea0:	687b      	ldr	r3, [r7, #4]
     ea2:	60da      	str	r2, [r3, #12]
		if( pxQueue->u.xQueue.pcReadFrom >= pxQueue->u.xQueue.pcTail ) /*lint !e946 MISRA exception justified as use of the relational operator is the cleanest solutions. */
     ea4:	687b      	ldr	r3, [r7, #4]
     ea6:	68da      	ldr	r2, [r3, #12]
     ea8:	687b      	ldr	r3, [r7, #4]
     eaa:	689b      	ldr	r3, [r3, #8]
     eac:	429a      	cmp	r2, r3
     eae:	d303      	bcc.n	eb8 <prvCopyDataFromQueue+0x34>
		{
			pxQueue->u.xQueue.pcReadFrom = pxQueue->pcHead;
     eb0:	687b      	ldr	r3, [r7, #4]
     eb2:	681a      	ldr	r2, [r3, #0]
     eb4:	687b      	ldr	r3, [r7, #4]
     eb6:	60da      	str	r2, [r3, #12]
		}
		else
		{
			mtCOVERAGE_TEST_MARKER();
		}
		( void ) memcpy( ( void * ) pvBuffer, ( void * ) pxQueue->u.xQueue.pcReadFrom, ( size_t ) pxQueue->uxItemSize ); /*lint !e961 !e418 !e9087 MISRA exception as the casts are only redundant for some ports.  Also previous logic ensures a null pointer can only be passed to memcpy() when the count is 0.  Cast to void required by function signature and safe as no alignment requirement and copy length specified in bytes. */
     eb8:	687b      	ldr	r3, [r7, #4]
     eba:	68d9      	ldr	r1, [r3, #12]
     ebc:	687b      	ldr	r3, [r7, #4]
     ebe:	6c1a      	ldr	r2, [r3, #64]	; 0x40
     ec0:	683b      	ldr	r3, [r7, #0]
     ec2:	0018      	movs	r0, r3
     ec4:	4b02      	ldr	r3, [pc, #8]	; (ed0 <prvCopyDataFromQueue+0x4c>)
     ec6:	4798      	blx	r3
	}
}
     ec8:	46c0      	nop			; (mov r8, r8)
     eca:	46bd      	mov	sp, r7
     ecc:	b002      	add	sp, #8
     ece:	bd80      	pop	{r7, pc}
     ed0:	000042b1 	.word	0x000042b1

00000ed4 <prvUnlockQueue>:
/*-----------------------------------------------------------*/

static void prvUnlockQueue( Queue_t * const pxQueue )
{
     ed4:	b580      	push	{r7, lr}
     ed6:	b084      	sub	sp, #16
     ed8:	af00      	add	r7, sp, #0
     eda:	6078      	str	r0, [r7, #4]

	/* The lock counts contains the number of extra data items placed or
	removed from the queue while the queue was locked.  When a queue is
	locked items can be added or removed, but the event lists cannot be
	updated. */
	taskENTER_CRITICAL();
     edc:	4b2d      	ldr	r3, [pc, #180]	; (f94 <prvUnlockQueue+0xc0>)
     ede:	4798      	blx	r3
	{
		int8_t cTxLock = pxQueue->cTxLock;
     ee0:	230f      	movs	r3, #15
     ee2:	18fb      	adds	r3, r7, r3
     ee4:	687a      	ldr	r2, [r7, #4]
     ee6:	2145      	movs	r1, #69	; 0x45
     ee8:	5c52      	ldrb	r2, [r2, r1]
     eea:	701a      	strb	r2, [r3, #0]

		/* See if data was added to the queue while it was locked. */
		while( cTxLock > queueLOCKED_UNMODIFIED )
     eec:	e014      	b.n	f18 <prvUnlockQueue+0x44>
			}
			#else /* configUSE_QUEUE_SETS */
			{
				/* Tasks that are removed from the event list will get added to
				the pending ready list as the scheduler is still suspended. */
				if( listLIST_IS_EMPTY( &( pxQueue->xTasksWaitingToReceive ) ) == pdFALSE )
     eee:	687b      	ldr	r3, [r7, #4]
     ef0:	6a5b      	ldr	r3, [r3, #36]	; 0x24
     ef2:	2b00      	cmp	r3, #0
     ef4:	d017      	beq.n	f26 <prvUnlockQueue+0x52>
				{
					if( xTaskRemoveFromEventList( &( pxQueue->xTasksWaitingToReceive ) ) != pdFALSE )
     ef6:	687b      	ldr	r3, [r7, #4]
     ef8:	3324      	adds	r3, #36	; 0x24
     efa:	0018      	movs	r0, r3
     efc:	4b26      	ldr	r3, [pc, #152]	; (f98 <prvUnlockQueue+0xc4>)
     efe:	4798      	blx	r3
     f00:	1e03      	subs	r3, r0, #0
     f02:	d001      	beq.n	f08 <prvUnlockQueue+0x34>
					{
						/* The task waiting has a higher priority so record that
						a context switch is required. */
						vTaskMissedYield();
     f04:	4b25      	ldr	r3, [pc, #148]	; (f9c <prvUnlockQueue+0xc8>)
     f06:	4798      	blx	r3
					break;
				}
			}
			#endif /* configUSE_QUEUE_SETS */

			--cTxLock;
     f08:	230f      	movs	r3, #15
     f0a:	18fb      	adds	r3, r7, r3
     f0c:	781b      	ldrb	r3, [r3, #0]
     f0e:	3b01      	subs	r3, #1
     f10:	b2da      	uxtb	r2, r3
     f12:	230f      	movs	r3, #15
     f14:	18fb      	adds	r3, r7, r3
     f16:	701a      	strb	r2, [r3, #0]
		while( cTxLock > queueLOCKED_UNMODIFIED )
     f18:	230f      	movs	r3, #15
     f1a:	18fb      	adds	r3, r7, r3
     f1c:	781b      	ldrb	r3, [r3, #0]
     f1e:	b25b      	sxtb	r3, r3
     f20:	2b00      	cmp	r3, #0
     f22:	dce4      	bgt.n	eee <prvUnlockQueue+0x1a>
     f24:	e000      	b.n	f28 <prvUnlockQueue+0x54>
					break;
     f26:	46c0      	nop			; (mov r8, r8)
		}

		pxQueue->cTxLock = queueUNLOCKED;
     f28:	687b      	ldr	r3, [r7, #4]
     f2a:	2245      	movs	r2, #69	; 0x45
     f2c:	21ff      	movs	r1, #255	; 0xff
     f2e:	5499      	strb	r1, [r3, r2]
	}
	taskEXIT_CRITICAL();
     f30:	4b1b      	ldr	r3, [pc, #108]	; (fa0 <prvUnlockQueue+0xcc>)
     f32:	4798      	blx	r3

	/* Do the same for the Rx lock. */
	taskENTER_CRITICAL();
     f34:	4b17      	ldr	r3, [pc, #92]	; (f94 <prvUnlockQueue+0xc0>)
     f36:	4798      	blx	r3
	{
		int8_t cRxLock = pxQueue->cRxLock;
     f38:	230e      	movs	r3, #14
     f3a:	18fb      	adds	r3, r7, r3
     f3c:	687a      	ldr	r2, [r7, #4]
     f3e:	2144      	movs	r1, #68	; 0x44
     f40:	5c52      	ldrb	r2, [r2, r1]
     f42:	701a      	strb	r2, [r3, #0]

		while( cRxLock > queueLOCKED_UNMODIFIED )
     f44:	e014      	b.n	f70 <prvUnlockQueue+0x9c>
		{
			if( listLIST_IS_EMPTY( &( pxQueue->xTasksWaitingToSend ) ) == pdFALSE )
     f46:	687b      	ldr	r3, [r7, #4]
     f48:	691b      	ldr	r3, [r3, #16]
     f4a:	2b00      	cmp	r3, #0
     f4c:	d017      	beq.n	f7e <prvUnlockQueue+0xaa>
			{
				if( xTaskRemoveFromEventList( &( pxQueue->xTasksWaitingToSend ) ) != pdFALSE )
     f4e:	687b      	ldr	r3, [r7, #4]
     f50:	3310      	adds	r3, #16
     f52:	0018      	movs	r0, r3
     f54:	4b10      	ldr	r3, [pc, #64]	; (f98 <prvUnlockQueue+0xc4>)
     f56:	4798      	blx	r3
     f58:	1e03      	subs	r3, r0, #0
     f5a:	d001      	beq.n	f60 <prvUnlockQueue+0x8c>
				{
					vTaskMissedYield();
     f5c:	4b0f      	ldr	r3, [pc, #60]	; (f9c <prvUnlockQueue+0xc8>)
     f5e:	4798      	blx	r3
				else
				{
					mtCOVERAGE_TEST_MARKER();
				}

				--cRxLock;
     f60:	230e      	movs	r3, #14
     f62:	18fb      	adds	r3, r7, r3
     f64:	781b      	ldrb	r3, [r3, #0]
     f66:	3b01      	subs	r3, #1
     f68:	b2da      	uxtb	r2, r3
     f6a:	230e      	movs	r3, #14
     f6c:	18fb      	adds	r3, r7, r3
     f6e:	701a      	strb	r2, [r3, #0]
		while( cRxLock > queueLOCKED_UNMODIFIED )
     f70:	230e      	movs	r3, #14
     f72:	18fb      	adds	r3, r7, r3
     f74:	781b      	ldrb	r3, [r3, #0]
     f76:	b25b      	sxtb	r3, r3
     f78:	2b00      	cmp	r3, #0
     f7a:	dce4      	bgt.n	f46 <prvUnlockQueue+0x72>
     f7c:	e000      	b.n	f80 <prvUnlockQueue+0xac>
			}
			else
			{
				break;
     f7e:	46c0      	nop			; (mov r8, r8)
			}
		}

		pxQueue->cRxLock = queueUNLOCKED;
     f80:	687b      	ldr	r3, [r7, #4]
     f82:	2244      	movs	r2, #68	; 0x44
     f84:	21ff      	movs	r1, #255	; 0xff
     f86:	5499      	strb	r1, [r3, r2]
	}
	taskEXIT_CRITICAL();
     f88:	4b05      	ldr	r3, [pc, #20]	; (fa0 <prvUnlockQueue+0xcc>)
     f8a:	4798      	blx	r3
}
     f8c:	46c0      	nop			; (mov r8, r8)
     f8e:	46bd      	mov	sp, r7
     f90:	b004      	add	sp, #16
     f92:	bd80      	pop	{r7, pc}
     f94:	00000551 	.word	0x00000551
     f98:	00001659 	.word	0x00001659
     f9c:	000017d1 	.word	0x000017d1
     fa0:	00000575 	.word	0x00000575

00000fa4 <prvIsQueueEmpty>:
/*-----------------------------------------------------------*/

static BaseType_t prvIsQueueEmpty( const Queue_t *pxQueue )
{
     fa4:	b580      	push	{r7, lr}
     fa6:	b084      	sub	sp, #16
     fa8:	af00      	add	r7, sp, #0
     faa:	6078      	str	r0, [r7, #4]
BaseType_t xReturn;

	taskENTER_CRITICAL();
     fac:	4b08      	ldr	r3, [pc, #32]	; (fd0 <prvIsQueueEmpty+0x2c>)
     fae:	4798      	blx	r3
	{
		if( pxQueue->uxMessagesWaiting == ( UBaseType_t )  0 )
     fb0:	687b      	ldr	r3, [r7, #4]
     fb2:	6b9b      	ldr	r3, [r3, #56]	; 0x38
     fb4:	2b00      	cmp	r3, #0
     fb6:	d102      	bne.n	fbe <prvIsQueueEmpty+0x1a>
		{
			xReturn = pdTRUE;
     fb8:	2301      	movs	r3, #1
     fba:	60fb      	str	r3, [r7, #12]
     fbc:	e001      	b.n	fc2 <prvIsQueueEmpty+0x1e>
		}
		else
		{
			xReturn = pdFALSE;
     fbe:	2300      	movs	r3, #0
     fc0:	60fb      	str	r3, [r7, #12]
		}
	}
	taskEXIT_CRITICAL();
     fc2:	4b04      	ldr	r3, [pc, #16]	; (fd4 <prvIsQueueEmpty+0x30>)
     fc4:	4798      	blx	r3

	return xReturn;
     fc6:	68fb      	ldr	r3, [r7, #12]
}
     fc8:	0018      	movs	r0, r3
     fca:	46bd      	mov	sp, r7
     fcc:	b004      	add	sp, #16
     fce:	bd80      	pop	{r7, pc}
     fd0:	00000551 	.word	0x00000551
     fd4:	00000575 	.word	0x00000575

00000fd8 <prvIsQueueFull>:
	return xReturn;
} /*lint !e818 xQueue could not be pointer to const because it is a typedef. */
/*-----------------------------------------------------------*/

static BaseType_t prvIsQueueFull( const Queue_t *pxQueue )
{
     fd8:	b580      	push	{r7, lr}
     fda:	b084      	sub	sp, #16
     fdc:	af00      	add	r7, sp, #0
     fde:	6078      	str	r0, [r7, #4]
BaseType_t xReturn;

	taskENTER_CRITICAL();
     fe0:	4b09      	ldr	r3, [pc, #36]	; (1008 <prvIsQueueFull+0x30>)
     fe2:	4798      	blx	r3
	{
		if( pxQueue->uxMessagesWaiting == pxQueue->uxLength )
     fe4:	687b      	ldr	r3, [r7, #4]
     fe6:	6b9a      	ldr	r2, [r3, #56]	; 0x38
     fe8:	687b      	ldr	r3, [r7, #4]
     fea:	6bdb      	ldr	r3, [r3, #60]	; 0x3c
     fec:	429a      	cmp	r2, r3
     fee:	d102      	bne.n	ff6 <prvIsQueueFull+0x1e>
		{
			xReturn = pdTRUE;
     ff0:	2301      	movs	r3, #1
     ff2:	60fb      	str	r3, [r7, #12]
     ff4:	e001      	b.n	ffa <prvIsQueueFull+0x22>
		}
		else
		{
			xReturn = pdFALSE;
     ff6:	2300      	movs	r3, #0
     ff8:	60fb      	str	r3, [r7, #12]
		}
	}
	taskEXIT_CRITICAL();
     ffa:	4b04      	ldr	r3, [pc, #16]	; (100c <prvIsQueueFull+0x34>)
     ffc:	4798      	blx	r3

	return xReturn;
     ffe:	68fb      	ldr	r3, [r7, #12]
}
    1000:	0018      	movs	r0, r3
    1002:	46bd      	mov	sp, r7
    1004:	b004      	add	sp, #16
    1006:	bd80      	pop	{r7, pc}
    1008:	00000551 	.word	0x00000551
    100c:	00000575 	.word	0x00000575

00001010 <xTaskCreate>:
							const char * const pcName,		/*lint !e971 Unqualified char types are allowed for strings and single characters only. */
							const configSTACK_DEPTH_TYPE usStackDepth,
							void * const pvParameters,
							UBaseType_t uxPriority,
							TaskHandle_t * const pxCreatedTask )
	{
    1010:	b590      	push	{r4, r7, lr}
    1012:	b08d      	sub	sp, #52	; 0x34
    1014:	af04      	add	r7, sp, #16
    1016:	60f8      	str	r0, [r7, #12]
    1018:	60b9      	str	r1, [r7, #8]
    101a:	603b      	str	r3, [r7, #0]
    101c:	1dbb      	adds	r3, r7, #6
    101e:	801a      	strh	r2, [r3, #0]
		#else /* portSTACK_GROWTH */
		{
		StackType_t *pxStack;

			/* Allocate space for the stack used by the task being created. */
			pxStack = pvPortMalloc( ( ( ( size_t ) usStackDepth ) * sizeof( StackType_t ) ) ); /*lint !e9079 All values returned by pvPortMalloc() have at least the alignment required by the MCU's stack and this allocation is the stack. */
    1020:	1dbb      	adds	r3, r7, #6
    1022:	881b      	ldrh	r3, [r3, #0]
    1024:	009b      	lsls	r3, r3, #2
    1026:	0018      	movs	r0, r3
    1028:	4b1d      	ldr	r3, [pc, #116]	; (10a0 <xTaskCreate+0x90>)
    102a:	4798      	blx	r3
    102c:	0003      	movs	r3, r0
    102e:	617b      	str	r3, [r7, #20]

			if( pxStack != NULL )
    1030:	697b      	ldr	r3, [r7, #20]
    1032:	2b00      	cmp	r3, #0
    1034:	d010      	beq.n	1058 <xTaskCreate+0x48>
			{
				/* Allocate space for the TCB. */
				pxNewTCB = ( TCB_t * ) pvPortMalloc( sizeof( TCB_t ) ); /*lint !e9087 !e9079 All values returned by pvPortMalloc() have at least the alignment required by the MCU's stack, and the first member of TCB_t is always a pointer to the task's stack. */
    1036:	204c      	movs	r0, #76	; 0x4c
    1038:	4b19      	ldr	r3, [pc, #100]	; (10a0 <xTaskCreate+0x90>)
    103a:	4798      	blx	r3
    103c:	0003      	movs	r3, r0
    103e:	61fb      	str	r3, [r7, #28]

				if( pxNewTCB != NULL )
    1040:	69fb      	ldr	r3, [r7, #28]
    1042:	2b00      	cmp	r3, #0
    1044:	d003      	beq.n	104e <xTaskCreate+0x3e>
				{
					/* Store the stack location in the TCB. */
					pxNewTCB->pxStack = pxStack;
    1046:	69fb      	ldr	r3, [r7, #28]
    1048:	697a      	ldr	r2, [r7, #20]
    104a:	631a      	str	r2, [r3, #48]	; 0x30
    104c:	e006      	b.n	105c <xTaskCreate+0x4c>
				}
				else
				{
					/* The stack cannot be used as the TCB was not created.  Free
					it again. */
					vPortFree( pxStack );
    104e:	697b      	ldr	r3, [r7, #20]
    1050:	0018      	movs	r0, r3
    1052:	4b14      	ldr	r3, [pc, #80]	; (10a4 <xTaskCreate+0x94>)
    1054:	4798      	blx	r3
    1056:	e001      	b.n	105c <xTaskCreate+0x4c>
				}
			}
			else
			{
				pxNewTCB = NULL;
    1058:	2300      	movs	r3, #0
    105a:	61fb      	str	r3, [r7, #28]
			}
		}
		#endif /* portSTACK_GROWTH */

		if( pxNewTCB != NULL )
    105c:	69fb      	ldr	r3, [r7, #28]
    105e:	2b00      	cmp	r3, #0
    1060:	d016      	beq.n	1090 <xTaskCreate+0x80>
				task was created dynamically in case it is later deleted. */
				pxNewTCB->ucStaticallyAllocated = tskDYNAMICALLY_ALLOCATED_STACK_AND_TCB;
			}
			#endif /* tskSTATIC_AND_DYNAMIC_ALLOCATION_POSSIBLE */

			prvInitialiseNewTask( pxTaskCode, pcName, ( uint32_t ) usStackDepth, pvParameters, uxPriority, pxCreatedTask, pxNewTCB, NULL );
    1062:	1dbb      	adds	r3, r7, #6
    1064:	881a      	ldrh	r2, [r3, #0]
    1066:	683c      	ldr	r4, [r7, #0]
    1068:	68b9      	ldr	r1, [r7, #8]
    106a:	68f8      	ldr	r0, [r7, #12]
    106c:	2300      	movs	r3, #0
    106e:	9303      	str	r3, [sp, #12]
    1070:	69fb      	ldr	r3, [r7, #28]
    1072:	9302      	str	r3, [sp, #8]
    1074:	6b7b      	ldr	r3, [r7, #52]	; 0x34
    1076:	9301      	str	r3, [sp, #4]
    1078:	6b3b      	ldr	r3, [r7, #48]	; 0x30
    107a:	9300      	str	r3, [sp, #0]
    107c:	0023      	movs	r3, r4
    107e:	4c0a      	ldr	r4, [pc, #40]	; (10a8 <xTaskCreate+0x98>)
    1080:	47a0      	blx	r4
			prvAddNewTaskToReadyList( pxNewTCB );
    1082:	69fb      	ldr	r3, [r7, #28]
    1084:	0018      	movs	r0, r3
    1086:	4b09      	ldr	r3, [pc, #36]	; (10ac <xTaskCreate+0x9c>)
    1088:	4798      	blx	r3
			xReturn = pdPASS;
    108a:	2301      	movs	r3, #1
    108c:	61bb      	str	r3, [r7, #24]
    108e:	e002      	b.n	1096 <xTaskCreate+0x86>
		}
		else
		{
			xReturn = errCOULD_NOT_ALLOCATE_REQUIRED_MEMORY;
    1090:	2301      	movs	r3, #1
    1092:	425b      	negs	r3, r3
    1094:	61bb      	str	r3, [r7, #24]
		}

		return xReturn;
    1096:	69bb      	ldr	r3, [r7, #24]
	}
    1098:	0018      	movs	r0, r3
    109a:	46bd      	mov	sp, r7
    109c:	b009      	add	sp, #36	; 0x24
    109e:	bd90      	pop	{r4, r7, pc}
    10a0:	0000066d 	.word	0x0000066d
    10a4:	00000701 	.word	0x00000701
    10a8:	000010b1 	.word	0x000010b1
    10ac:	000011a5 	.word	0x000011a5

000010b0 <prvInitialiseNewTask>:
									void * const pvParameters,
									UBaseType_t uxPriority,
									TaskHandle_t * const pxCreatedTask,
									TCB_t *pxNewTCB,
									const MemoryRegion_t * const xRegions )
{
    10b0:	b580      	push	{r7, lr}
    10b2:	b086      	sub	sp, #24
    10b4:	af00      	add	r7, sp, #0
    10b6:	60f8      	str	r0, [r7, #12]
    10b8:	60b9      	str	r1, [r7, #8]
    10ba:	607a      	str	r2, [r7, #4]
    10bc:	603b      	str	r3, [r7, #0]
	grows from high memory to low (as per the 80x86) or vice versa.
	portSTACK_GROWTH is used to make the result positive or negative as required
	by the port. */
	#if( portSTACK_GROWTH < 0 )
	{
		pxTopOfStack = &( pxNewTCB->pxStack[ ulStackDepth - ( uint32_t ) 1 ] );
    10be:	6abb      	ldr	r3, [r7, #40]	; 0x28
    10c0:	6b1a      	ldr	r2, [r3, #48]	; 0x30
    10c2:	687b      	ldr	r3, [r7, #4]
    10c4:	4934      	ldr	r1, [pc, #208]	; (1198 <prvInitialiseNewTask+0xe8>)
    10c6:	468c      	mov	ip, r1
    10c8:	4463      	add	r3, ip
    10ca:	009b      	lsls	r3, r3, #2
    10cc:	18d3      	adds	r3, r2, r3
    10ce:	613b      	str	r3, [r7, #16]
		pxTopOfStack = ( StackType_t * ) ( ( ( portPOINTER_SIZE_TYPE ) pxTopOfStack ) & ( ~( ( portPOINTER_SIZE_TYPE ) portBYTE_ALIGNMENT_MASK ) ) ); /*lint !e923 !e9033 !e9078 MISRA exception.  Avoiding casts between pointers and integers is not practical.  Size differences accounted for using portPOINTER_SIZE_TYPE type.  Checked by assert(). */
    10d0:	693b      	ldr	r3, [r7, #16]
    10d2:	2207      	movs	r2, #7
    10d4:	4393      	bics	r3, r2
    10d6:	613b      	str	r3, [r7, #16]
		pxNewTCB->pxEndOfStack = pxNewTCB->pxStack + ( ulStackDepth - ( uint32_t ) 1 );
	}
	#endif /* portSTACK_GROWTH */

	/* Store the task name in the TCB. */
	if( pcName != NULL )
    10d8:	68bb      	ldr	r3, [r7, #8]
    10da:	2b00      	cmp	r3, #0
    10dc:	d020      	beq.n	1120 <prvInitialiseNewTask+0x70>
	{
		for( x = ( UBaseType_t ) 0; x < ( UBaseType_t ) configMAX_TASK_NAME_LEN; x++ )
    10de:	2300      	movs	r3, #0
    10e0:	617b      	str	r3, [r7, #20]
    10e2:	e013      	b.n	110c <prvInitialiseNewTask+0x5c>
		{
			pxNewTCB->pcTaskName[ x ] = pcName[ x ];
    10e4:	68ba      	ldr	r2, [r7, #8]
    10e6:	697b      	ldr	r3, [r7, #20]
    10e8:	18d3      	adds	r3, r2, r3
    10ea:	7818      	ldrb	r0, [r3, #0]
    10ec:	6aba      	ldr	r2, [r7, #40]	; 0x28
    10ee:	2134      	movs	r1, #52	; 0x34
    10f0:	697b      	ldr	r3, [r7, #20]
    10f2:	18d3      	adds	r3, r2, r3
    10f4:	185b      	adds	r3, r3, r1
    10f6:	1c02      	adds	r2, r0, #0
    10f8:	701a      	strb	r2, [r3, #0]

			/* Don't copy all configMAX_TASK_NAME_LEN if the string is shorter than
			configMAX_TASK_NAME_LEN characters just in case the memory after the
			string is not accessible (extremely unlikely). */
			if( pcName[ x ] == ( char ) 0x00 )
    10fa:	68ba      	ldr	r2, [r7, #8]
    10fc:	697b      	ldr	r3, [r7, #20]
    10fe:	18d3      	adds	r3, r2, r3
    1100:	781b      	ldrb	r3, [r3, #0]
    1102:	2b00      	cmp	r3, #0
    1104:	d006      	beq.n	1114 <prvInitialiseNewTask+0x64>
		for( x = ( UBaseType_t ) 0; x < ( UBaseType_t ) configMAX_TASK_NAME_LEN; x++ )
    1106:	697b      	ldr	r3, [r7, #20]
    1108:	3301      	adds	r3, #1
    110a:	617b      	str	r3, [r7, #20]
    110c:	697b      	ldr	r3, [r7, #20]
    110e:	2b0f      	cmp	r3, #15
    1110:	d9e8      	bls.n	10e4 <prvInitialiseNewTask+0x34>
    1112:	e000      	b.n	1116 <prvInitialiseNewTask+0x66>
			{
				break;
    1114:	46c0      	nop			; (mov r8, r8)
			}
		}

		/* Ensure the name string is terminated in the case that the string length
		was greater or equal to configMAX_TASK_NAME_LEN. */
		pxNewTCB->pcTaskName[ configMAX_TASK_NAME_LEN - 1 ] = '\0';
    1116:	6abb      	ldr	r3, [r7, #40]	; 0x28
    1118:	2243      	movs	r2, #67	; 0x43
    111a:	2100      	movs	r1, #0
    111c:	5499      	strb	r1, [r3, r2]
    111e:	e003      	b.n	1128 <prvInitialiseNewTask+0x78>
	}
	else
	{
		/* The task has not been given a name, so just ensure there is a NULL
		terminator when it is read out. */
		pxNewTCB->pcTaskName[ 0 ] = 0x00;
    1120:	6abb      	ldr	r3, [r7, #40]	; 0x28
    1122:	2234      	movs	r2, #52	; 0x34
    1124:	2100      	movs	r1, #0
    1126:	5499      	strb	r1, [r3, r2]
	}

	/* This is used as an array index so must ensure it's not too large.  First
	remove the privilege bit if one is present. */
	if( uxPriority >= ( UBaseType_t ) configMAX_PRIORITIES )
    1128:	6a3b      	ldr	r3, [r7, #32]
    112a:	2b04      	cmp	r3, #4
    112c:	d901      	bls.n	1132 <prvInitialiseNewTask+0x82>
	{
		uxPriority = ( UBaseType_t ) configMAX_PRIORITIES - ( UBaseType_t ) 1U;
    112e:	2304      	movs	r3, #4
    1130:	623b      	str	r3, [r7, #32]
	else
	{
		mtCOVERAGE_TEST_MARKER();
	}

	pxNewTCB->uxPriority = uxPriority;
    1132:	6abb      	ldr	r3, [r7, #40]	; 0x28
    1134:	6a3a      	ldr	r2, [r7, #32]
    1136:	62da      	str	r2, [r3, #44]	; 0x2c
		pxNewTCB->uxBasePriority = uxPriority;
		pxNewTCB->uxMutexesHeld = 0;
	}
	#endif /* configUSE_MUTEXES */

	vListInitialiseItem( &( pxNewTCB->xStateListItem ) );
    1138:	6abb      	ldr	r3, [r7, #40]	; 0x28
    113a:	3304      	adds	r3, #4
    113c:	0018      	movs	r0, r3
    113e:	4b17      	ldr	r3, [pc, #92]	; (119c <prvInitialiseNewTask+0xec>)
    1140:	4798      	blx	r3
	vListInitialiseItem( &( pxNewTCB->xEventListItem ) );
    1142:	6abb      	ldr	r3, [r7, #40]	; 0x28
    1144:	3318      	adds	r3, #24
    1146:	0018      	movs	r0, r3
    1148:	4b14      	ldr	r3, [pc, #80]	; (119c <prvInitialiseNewTask+0xec>)
    114a:	4798      	blx	r3

	/* Set the pxNewTCB as a link back from the ListItem_t.  This is so we can get
	back to	the containing TCB from a generic item in a list. */
	listSET_LIST_ITEM_OWNER( &( pxNewTCB->xStateListItem ), pxNewTCB );
    114c:	6abb      	ldr	r3, [r7, #40]	; 0x28
    114e:	6aba      	ldr	r2, [r7, #40]	; 0x28
    1150:	611a      	str	r2, [r3, #16]

	/* Event lists are always in priority order. */
	listSET_LIST_ITEM_VALUE( &( pxNewTCB->xEventListItem ), ( TickType_t ) configMAX_PRIORITIES - ( TickType_t ) uxPriority ); /*lint !e961 MISRA exception as the casts are only redundant for some ports. */
    1152:	6a3b      	ldr	r3, [r7, #32]
    1154:	2205      	movs	r2, #5
    1156:	1ad2      	subs	r2, r2, r3
    1158:	6abb      	ldr	r3, [r7, #40]	; 0x28
    115a:	619a      	str	r2, [r3, #24]
	listSET_LIST_ITEM_OWNER( &( pxNewTCB->xEventListItem ), pxNewTCB );
    115c:	6abb      	ldr	r3, [r7, #40]	; 0x28
    115e:	6aba      	ldr	r2, [r7, #40]	; 0x28
    1160:	625a      	str	r2, [r3, #36]	; 0x24
	}
	#endif

	#if ( configUSE_TASK_NOTIFICATIONS == 1 )
	{
		pxNewTCB->ulNotifiedValue = 0;
    1162:	6abb      	ldr	r3, [r7, #40]	; 0x28
    1164:	2200      	movs	r2, #0
    1166:	645a      	str	r2, [r3, #68]	; 0x44
		pxNewTCB->ucNotifyState = taskNOT_WAITING_NOTIFICATION;
    1168:	6abb      	ldr	r3, [r7, #40]	; 0x28
    116a:	2248      	movs	r2, #72	; 0x48
    116c:	2100      	movs	r1, #0
    116e:	5499      	strb	r1, [r3, r2]
			}
			#endif /* portSTACK_GROWTH */
		}
		#else /* portHAS_STACK_OVERFLOW_CHECKING */
		{
			pxNewTCB->pxTopOfStack = pxPortInitialiseStack( pxTopOfStack, pxTaskCode, pvParameters );
    1170:	683a      	ldr	r2, [r7, #0]
    1172:	68f9      	ldr	r1, [r7, #12]
    1174:	693b      	ldr	r3, [r7, #16]
    1176:	0018      	movs	r0, r3
    1178:	4b09      	ldr	r3, [pc, #36]	; (11a0 <prvInitialiseNewTask+0xf0>)
    117a:	4798      	blx	r3
    117c:	0002      	movs	r2, r0
    117e:	6abb      	ldr	r3, [r7, #40]	; 0x28
    1180:	601a      	str	r2, [r3, #0]
		}
		#endif /* portHAS_STACK_OVERFLOW_CHECKING */
	}
	#endif /* portUSING_MPU_WRAPPERS */

	if( pxCreatedTask != NULL )
    1182:	6a7b      	ldr	r3, [r7, #36]	; 0x24
    1184:	2b00      	cmp	r3, #0
    1186:	d002      	beq.n	118e <prvInitialiseNewTask+0xde>
	{
		/* Pass the handle out in an anonymous way.  The handle can be used to
		change the created task's priority, delete the created task, etc.*/
		*pxCreatedTask = ( TaskHandle_t ) pxNewTCB;
    1188:	6a7b      	ldr	r3, [r7, #36]	; 0x24
    118a:	6aba      	ldr	r2, [r7, #40]	; 0x28
    118c:	601a      	str	r2, [r3, #0]
	}
	else
	{
		mtCOVERAGE_TEST_MARKER();
	}
}
    118e:	46c0      	nop			; (mov r8, r8)
    1190:	46bd      	mov	sp, r7
    1192:	b006      	add	sp, #24
    1194:	bd80      	pop	{r7, pc}
    1196:	46c0      	nop			; (mov r8, r8)
    1198:	3fffffff 	.word	0x3fffffff
    119c:	00000301 	.word	0x00000301
    11a0:	00000419 	.word	0x00000419

000011a4 <prvAddNewTaskToReadyList>:
/*-----------------------------------------------------------*/

static void prvAddNewTaskToReadyList( TCB_t *pxNewTCB )
{
    11a4:	b580      	push	{r7, lr}
    11a6:	b082      	sub	sp, #8
    11a8:	af00      	add	r7, sp, #0
    11aa:	6078      	str	r0, [r7, #4]
	/* Ensure interrupts don't access the task lists while the lists are being
	updated. */
	taskENTER_CRITICAL();
    11ac:	4b29      	ldr	r3, [pc, #164]	; (1254 <prvAddNewTaskToReadyList+0xb0>)
    11ae:	4798      	blx	r3
	{
		uxCurrentNumberOfTasks++;
    11b0:	4b29      	ldr	r3, [pc, #164]	; (1258 <prvAddNewTaskToReadyList+0xb4>)
    11b2:	681b      	ldr	r3, [r3, #0]
    11b4:	1c5a      	adds	r2, r3, #1
    11b6:	4b28      	ldr	r3, [pc, #160]	; (1258 <prvAddNewTaskToReadyList+0xb4>)
    11b8:	601a      	str	r2, [r3, #0]
		if( pxCurrentTCB == NULL )
    11ba:	4b28      	ldr	r3, [pc, #160]	; (125c <prvAddNewTaskToReadyList+0xb8>)
    11bc:	681b      	ldr	r3, [r3, #0]
    11be:	2b00      	cmp	r3, #0
    11c0:	d109      	bne.n	11d6 <prvAddNewTaskToReadyList+0x32>
		{
			/* There are no other tasks, or all the other tasks are in
			the suspended state - make this the current task. */
			pxCurrentTCB = pxNewTCB;
    11c2:	4b26      	ldr	r3, [pc, #152]	; (125c <prvAddNewTaskToReadyList+0xb8>)
    11c4:	687a      	ldr	r2, [r7, #4]
    11c6:	601a      	str	r2, [r3, #0]

			if( uxCurrentNumberOfTasks == ( UBaseType_t ) 1 )
    11c8:	4b23      	ldr	r3, [pc, #140]	; (1258 <prvAddNewTaskToReadyList+0xb4>)
    11ca:	681b      	ldr	r3, [r3, #0]
    11cc:	2b01      	cmp	r3, #1
    11ce:	d110      	bne.n	11f2 <prvAddNewTaskToReadyList+0x4e>
			{
				/* This is the first task to be created so do the preliminary
				initialisation required.  We will not recover if this call
				fails, but we will report the failure. */
				prvInitialiseTaskLists();
    11d0:	4b23      	ldr	r3, [pc, #140]	; (1260 <prvAddNewTaskToReadyList+0xbc>)
    11d2:	4798      	blx	r3
    11d4:	e00d      	b.n	11f2 <prvAddNewTaskToReadyList+0x4e>
		else
		{
			/* If the scheduler is not already running, make this task the
			current task if it is the highest priority task to be created
			so far. */
			if( xSchedulerRunning == pdFALSE )
    11d6:	4b23      	ldr	r3, [pc, #140]	; (1264 <prvAddNewTaskToReadyList+0xc0>)
    11d8:	681b      	ldr	r3, [r3, #0]
    11da:	2b00      	cmp	r3, #0
    11dc:	d109      	bne.n	11f2 <prvAddNewTaskToReadyList+0x4e>
			{
				if( pxCurrentTCB->uxPriority <= pxNewTCB->uxPriority )
    11de:	4b1f      	ldr	r3, [pc, #124]	; (125c <prvAddNewTaskToReadyList+0xb8>)
    11e0:	681b      	ldr	r3, [r3, #0]
    11e2:	6ada      	ldr	r2, [r3, #44]	; 0x2c
    11e4:	687b      	ldr	r3, [r7, #4]
    11e6:	6adb      	ldr	r3, [r3, #44]	; 0x2c
    11e8:	429a      	cmp	r2, r3
    11ea:	d802      	bhi.n	11f2 <prvAddNewTaskToReadyList+0x4e>
				{
					pxCurrentTCB = pxNewTCB;
    11ec:	4b1b      	ldr	r3, [pc, #108]	; (125c <prvAddNewTaskToReadyList+0xb8>)
    11ee:	687a      	ldr	r2, [r7, #4]
    11f0:	601a      	str	r2, [r3, #0]
			{
				mtCOVERAGE_TEST_MARKER();
			}
		}

		uxTaskNumber++;
    11f2:	4b1d      	ldr	r3, [pc, #116]	; (1268 <prvAddNewTaskToReadyList+0xc4>)
    11f4:	681b      	ldr	r3, [r3, #0]
    11f6:	1c5a      	adds	r2, r3, #1
    11f8:	4b1b      	ldr	r3, [pc, #108]	; (1268 <prvAddNewTaskToReadyList+0xc4>)
    11fa:	601a      	str	r2, [r3, #0]
			pxNewTCB->uxTCBNumber = uxTaskNumber;
		}
		#endif /* configUSE_TRACE_FACILITY */
		traceTASK_CREATE( pxNewTCB );

		prvAddTaskToReadyList( pxNewTCB );
    11fc:	687b      	ldr	r3, [r7, #4]
    11fe:	6ada      	ldr	r2, [r3, #44]	; 0x2c
    1200:	4b1a      	ldr	r3, [pc, #104]	; (126c <prvAddNewTaskToReadyList+0xc8>)
    1202:	681b      	ldr	r3, [r3, #0]
    1204:	429a      	cmp	r2, r3
    1206:	d903      	bls.n	1210 <prvAddNewTaskToReadyList+0x6c>
    1208:	687b      	ldr	r3, [r7, #4]
    120a:	6ada      	ldr	r2, [r3, #44]	; 0x2c
    120c:	4b17      	ldr	r3, [pc, #92]	; (126c <prvAddNewTaskToReadyList+0xc8>)
    120e:	601a      	str	r2, [r3, #0]
    1210:	687b      	ldr	r3, [r7, #4]
    1212:	6ada      	ldr	r2, [r3, #44]	; 0x2c
    1214:	0013      	movs	r3, r2
    1216:	009b      	lsls	r3, r3, #2
    1218:	189b      	adds	r3, r3, r2
    121a:	009b      	lsls	r3, r3, #2
    121c:	4a14      	ldr	r2, [pc, #80]	; (1270 <prvAddNewTaskToReadyList+0xcc>)
    121e:	189a      	adds	r2, r3, r2
    1220:	687b      	ldr	r3, [r7, #4]
    1222:	3304      	adds	r3, #4
    1224:	0019      	movs	r1, r3
    1226:	0010      	movs	r0, r2
    1228:	4b12      	ldr	r3, [pc, #72]	; (1274 <prvAddNewTaskToReadyList+0xd0>)
    122a:	4798      	blx	r3

		portSETUP_TCB( pxNewTCB );
	}
	taskEXIT_CRITICAL();
    122c:	4b12      	ldr	r3, [pc, #72]	; (1278 <prvAddNewTaskToReadyList+0xd4>)
    122e:	4798      	blx	r3

	if( xSchedulerRunning != pdFALSE )
    1230:	4b0c      	ldr	r3, [pc, #48]	; (1264 <prvAddNewTaskToReadyList+0xc0>)
    1232:	681b      	ldr	r3, [r3, #0]
    1234:	2b00      	cmp	r3, #0
    1236:	d008      	beq.n	124a <prvAddNewTaskToReadyList+0xa6>
	{
		/* If the created task is of a higher priority than the current task
		then it should run now. */
		if( pxCurrentTCB->uxPriority < pxNewTCB->uxPriority )
    1238:	4b08      	ldr	r3, [pc, #32]	; (125c <prvAddNewTaskToReadyList+0xb8>)
    123a:	681b      	ldr	r3, [r3, #0]
    123c:	6ada      	ldr	r2, [r3, #44]	; 0x2c
    123e:	687b      	ldr	r3, [r7, #4]
    1240:	6adb      	ldr	r3, [r3, #44]	; 0x2c
    1242:	429a      	cmp	r2, r3
    1244:	d201      	bcs.n	124a <prvAddNewTaskToReadyList+0xa6>
		{
			taskYIELD_IF_USING_PREEMPTION();
    1246:	4b0d      	ldr	r3, [pc, #52]	; (127c <prvAddNewTaskToReadyList+0xd8>)
    1248:	4798      	blx	r3
	}
	else
	{
		mtCOVERAGE_TEST_MARKER();
	}
}
    124a:	46c0      	nop			; (mov r8, r8)
    124c:	46bd      	mov	sp, r7
    124e:	b002      	add	sp, #8
    1250:	bd80      	pop	{r7, pc}
    1252:	46c0      	nop			; (mov r8, r8)
    1254:	00000551 	.word	0x00000551
    1258:	200038c8 	.word	0x200038c8
    125c:	20003808 	.word	0x20003808
    1260:	00001815 	.word	0x00001815
    1264:	200038d4 	.word	0x200038d4
    1268:	200038e4 	.word	0x200038e4
    126c:	200038d0 	.word	0x200038d0
    1270:	2000380c 	.word	0x2000380c
    1274:	00000317 	.word	0x00000317
    1278:	00000575 	.word	0x00000575
    127c:	00000531 	.word	0x00000531

00001280 <vTaskStartScheduler>:

#endif /* ( ( INCLUDE_xTaskResumeFromISR == 1 ) && ( INCLUDE_vTaskSuspend == 1 ) ) */
/*-----------------------------------------------------------*/

void vTaskStartScheduler( void )
{
    1280:	b590      	push	{r4, r7, lr}
    1282:	b085      	sub	sp, #20
    1284:	af02      	add	r7, sp, #8
		}
	}
	#else
	{
		/* The Idle task is being created using dynamically allocated RAM. */
		xReturn = xTaskCreate(	prvIdleTask,
    1286:	23fa      	movs	r3, #250	; 0xfa
    1288:	005a      	lsls	r2, r3, #1
    128a:	490f      	ldr	r1, [pc, #60]	; (12c8 <vTaskStartScheduler+0x48>)
    128c:	480f      	ldr	r0, [pc, #60]	; (12cc <vTaskStartScheduler+0x4c>)
    128e:	4b10      	ldr	r3, [pc, #64]	; (12d0 <vTaskStartScheduler+0x50>)
    1290:	9301      	str	r3, [sp, #4]
    1292:	2300      	movs	r3, #0
    1294:	9300      	str	r3, [sp, #0]
    1296:	2300      	movs	r3, #0
    1298:	4c0e      	ldr	r4, [pc, #56]	; (12d4 <vTaskStartScheduler+0x54>)
    129a:	47a0      	blx	r4
    129c:	0003      	movs	r3, r0
    129e:	607b      	str	r3, [r7, #4]
			mtCOVERAGE_TEST_MARKER();
		}
	}
	#endif /* configUSE_TIMERS */

	if( xReturn == pdPASS )
    12a0:	687b      	ldr	r3, [r7, #4]
    12a2:	2b01      	cmp	r3, #1
    12a4:	d10c      	bne.n	12c0 <vTaskStartScheduler+0x40>
		/* Interrupts are turned off here, to ensure a tick does not occur
		before or during the call to xPortStartScheduler().  The stacks of
		the created tasks contain a status word with interrupts switched on
		so interrupts will automatically get re-enabled when the first task
		starts to run. */
		portDISABLE_INTERRUPTS();
    12a6:	b672      	cpsid	i
			structure specific to the task that will run first. */
			_impure_ptr = &( pxCurrentTCB->xNewLib_reent );
		}
		#endif /* configUSE_NEWLIB_REENTRANT */

		xNextTaskUnblockTime = portMAX_DELAY;
    12a8:	4b0b      	ldr	r3, [pc, #44]	; (12d8 <vTaskStartScheduler+0x58>)
    12aa:	2201      	movs	r2, #1
    12ac:	4252      	negs	r2, r2
    12ae:	601a      	str	r2, [r3, #0]
		xSchedulerRunning = pdTRUE;
    12b0:	4b0a      	ldr	r3, [pc, #40]	; (12dc <vTaskStartScheduler+0x5c>)
    12b2:	2201      	movs	r2, #1
    12b4:	601a      	str	r2, [r3, #0]
		xTickCount = ( TickType_t ) configINITIAL_TICK_COUNT;
    12b6:	4b0a      	ldr	r3, [pc, #40]	; (12e0 <vTaskStartScheduler+0x60>)
    12b8:	2200      	movs	r2, #0
    12ba:	601a      	str	r2, [r3, #0]

		traceTASK_SWITCHED_IN();

		/* Setting up the timer tick is hardware specific and thus in the
		portable interface. */
		if( xPortStartScheduler() != pdFALSE )
    12bc:	4b09      	ldr	r3, [pc, #36]	; (12e4 <vTaskStartScheduler+0x64>)
    12be:	4798      	blx	r3
	}

	/* Prevent compiler warnings if INCLUDE_xTaskGetIdleTaskHandle is set to 0,
	meaning xIdleTaskHandle is not used anywhere else. */
	( void ) xIdleTaskHandle;
}
    12c0:	46c0      	nop			; (mov r8, r8)
    12c2:	46bd      	mov	sp, r7
    12c4:	b003      	add	sp, #12
    12c6:	bd90      	pop	{r4, r7, pc}
    12c8:	00004dc4 	.word	0x00004dc4
    12cc:	000017e5 	.word	0x000017e5
    12d0:	200038ec 	.word	0x200038ec
    12d4:	00001011 	.word	0x00001011
    12d8:	200038e8 	.word	0x200038e8
    12dc:	200038d4 	.word	0x200038d4
    12e0:	200038cc 	.word	0x200038cc
    12e4:	000004d9 	.word	0x000004d9

000012e8 <vTaskSuspendAll>:
	vPortEndScheduler();
}
/*----------------------------------------------------------*/

void vTaskSuspendAll( void )
{
    12e8:	b580      	push	{r7, lr}
    12ea:	af00      	add	r7, sp, #0
	/* A critical section is not required as the variable is of type
	BaseType_t.  Please read Richard Barry's reply in the following link to a
	post in the FreeRTOS support forum before reporting this as a bug! -
	http://goo.gl/wu4acr */
	++uxSchedulerSuspended;
    12ec:	4b03      	ldr	r3, [pc, #12]	; (12fc <vTaskSuspendAll+0x14>)
    12ee:	681b      	ldr	r3, [r3, #0]
    12f0:	1c5a      	adds	r2, r3, #1
    12f2:	4b02      	ldr	r3, [pc, #8]	; (12fc <vTaskSuspendAll+0x14>)
    12f4:	601a      	str	r2, [r3, #0]
	portMEMORY_BARRIER();
}
    12f6:	46c0      	nop			; (mov r8, r8)
    12f8:	46bd      	mov	sp, r7
    12fa:	bd80      	pop	{r7, pc}
    12fc:	200038f0 	.word	0x200038f0

00001300 <xTaskResumeAll>:

#endif /* configUSE_TICKLESS_IDLE */
/*----------------------------------------------------------*/

BaseType_t xTaskResumeAll( void )
{
    1300:	b580      	push	{r7, lr}
    1302:	b084      	sub	sp, #16
    1304:	af00      	add	r7, sp, #0
TCB_t *pxTCB = NULL;
    1306:	2300      	movs	r3, #0
    1308:	60fb      	str	r3, [r7, #12]
BaseType_t xAlreadyYielded = pdFALSE;
    130a:	2300      	movs	r3, #0
    130c:	60bb      	str	r3, [r7, #8]
	/* It is possible that an ISR caused a task to be removed from an event
	list while the scheduler was suspended.  If this was the case then the
	removed task will have been added to the xPendingReadyList.  Once the
	scheduler has been resumed it is safe to move all the pending ready
	tasks from this list into their appropriate ready list. */
	taskENTER_CRITICAL();
    130e:	4b37      	ldr	r3, [pc, #220]	; (13ec <xTaskResumeAll+0xec>)
    1310:	4798      	blx	r3
	{
		--uxSchedulerSuspended;
    1312:	4b37      	ldr	r3, [pc, #220]	; (13f0 <xTaskResumeAll+0xf0>)
    1314:	681b      	ldr	r3, [r3, #0]
    1316:	1e5a      	subs	r2, r3, #1
    1318:	4b35      	ldr	r3, [pc, #212]	; (13f0 <xTaskResumeAll+0xf0>)
    131a:	601a      	str	r2, [r3, #0]

		if( uxSchedulerSuspended == ( UBaseType_t ) pdFALSE )
    131c:	4b34      	ldr	r3, [pc, #208]	; (13f0 <xTaskResumeAll+0xf0>)
    131e:	681b      	ldr	r3, [r3, #0]
    1320:	2b00      	cmp	r3, #0
    1322:	d15b      	bne.n	13dc <xTaskResumeAll+0xdc>
		{
			if( uxCurrentNumberOfTasks > ( UBaseType_t ) 0U )
    1324:	4b33      	ldr	r3, [pc, #204]	; (13f4 <xTaskResumeAll+0xf4>)
    1326:	681b      	ldr	r3, [r3, #0]
    1328:	2b00      	cmp	r3, #0
    132a:	d057      	beq.n	13dc <xTaskResumeAll+0xdc>
			{
				/* Move any readied tasks from the pending list into the
				appropriate ready list. */
				while( listLIST_IS_EMPTY( &xPendingReadyList ) == pdFALSE )
    132c:	e02f      	b.n	138e <xTaskResumeAll+0x8e>
				{
					pxTCB = listGET_OWNER_OF_HEAD_ENTRY( ( &xPendingReadyList ) ); /*lint !e9079 void * is used as this macro is used with timers and co-routines too.  Alignment is known to be fine as the type of the pointer stored and retrieved is the same. */
    132e:	4b32      	ldr	r3, [pc, #200]	; (13f8 <xTaskResumeAll+0xf8>)
    1330:	68db      	ldr	r3, [r3, #12]
    1332:	68db      	ldr	r3, [r3, #12]
    1334:	60fb      	str	r3, [r7, #12]
					( void ) uxListRemove( &( pxTCB->xEventListItem ) );
    1336:	68fb      	ldr	r3, [r7, #12]
    1338:	3318      	adds	r3, #24
    133a:	0018      	movs	r0, r3
    133c:	4b2f      	ldr	r3, [pc, #188]	; (13fc <xTaskResumeAll+0xfc>)
    133e:	4798      	blx	r3
					( void ) uxListRemove( &( pxTCB->xStateListItem ) );
    1340:	68fb      	ldr	r3, [r7, #12]
    1342:	3304      	adds	r3, #4
    1344:	0018      	movs	r0, r3
    1346:	4b2d      	ldr	r3, [pc, #180]	; (13fc <xTaskResumeAll+0xfc>)
    1348:	4798      	blx	r3
					prvAddTaskToReadyList( pxTCB );
    134a:	68fb      	ldr	r3, [r7, #12]
    134c:	6ada      	ldr	r2, [r3, #44]	; 0x2c
    134e:	4b2c      	ldr	r3, [pc, #176]	; (1400 <xTaskResumeAll+0x100>)
    1350:	681b      	ldr	r3, [r3, #0]
    1352:	429a      	cmp	r2, r3
    1354:	d903      	bls.n	135e <xTaskResumeAll+0x5e>
    1356:	68fb      	ldr	r3, [r7, #12]
    1358:	6ada      	ldr	r2, [r3, #44]	; 0x2c
    135a:	4b29      	ldr	r3, [pc, #164]	; (1400 <xTaskResumeAll+0x100>)
    135c:	601a      	str	r2, [r3, #0]
    135e:	68fb      	ldr	r3, [r7, #12]
    1360:	6ada      	ldr	r2, [r3, #44]	; 0x2c
    1362:	0013      	movs	r3, r2
    1364:	009b      	lsls	r3, r3, #2
    1366:	189b      	adds	r3, r3, r2
    1368:	009b      	lsls	r3, r3, #2
    136a:	4a26      	ldr	r2, [pc, #152]	; (1404 <xTaskResumeAll+0x104>)
    136c:	189a      	adds	r2, r3, r2
    136e:	68fb      	ldr	r3, [r7, #12]
    1370:	3304      	adds	r3, #4
    1372:	0019      	movs	r1, r3
    1374:	0010      	movs	r0, r2
    1376:	4b24      	ldr	r3, [pc, #144]	; (1408 <xTaskResumeAll+0x108>)
    1378:	4798      	blx	r3

					/* If the moved task has a priority higher than the current
					task then a yield must be performed. */
					if( pxTCB->uxPriority >= pxCurrentTCB->uxPriority )
    137a:	68fb      	ldr	r3, [r7, #12]
    137c:	6ada      	ldr	r2, [r3, #44]	; 0x2c
    137e:	4b23      	ldr	r3, [pc, #140]	; (140c <xTaskResumeAll+0x10c>)
    1380:	681b      	ldr	r3, [r3, #0]
    1382:	6adb      	ldr	r3, [r3, #44]	; 0x2c
    1384:	429a      	cmp	r2, r3
    1386:	d302      	bcc.n	138e <xTaskResumeAll+0x8e>
					{
						xYieldPending = pdTRUE;
    1388:	4b21      	ldr	r3, [pc, #132]	; (1410 <xTaskResumeAll+0x110>)
    138a:	2201      	movs	r2, #1
    138c:	601a      	str	r2, [r3, #0]
				while( listLIST_IS_EMPTY( &xPendingReadyList ) == pdFALSE )
    138e:	4b1a      	ldr	r3, [pc, #104]	; (13f8 <xTaskResumeAll+0xf8>)
    1390:	681b      	ldr	r3, [r3, #0]
    1392:	2b00      	cmp	r3, #0
    1394:	d1cb      	bne.n	132e <xTaskResumeAll+0x2e>
					{
						mtCOVERAGE_TEST_MARKER();
					}
				}

				if( pxTCB != NULL )
    1396:	68fb      	ldr	r3, [r7, #12]
    1398:	2b00      	cmp	r3, #0
    139a:	d001      	beq.n	13a0 <xTaskResumeAll+0xa0>
					which may have prevented the next unblock time from being
					re-calculated, in which case re-calculate it now.  Mainly
					important for low power tickless implementations, where
					this can prevent an unnecessary exit from low power
					state. */
					prvResetNextTaskUnblockTime();
    139c:	4b1d      	ldr	r3, [pc, #116]	; (1414 <xTaskResumeAll+0x114>)
    139e:	4798      	blx	r3
				/* If any ticks occurred while the scheduler was suspended then
				they should be processed now.  This ensures the tick count does
				not	slip, and that any delayed tasks are resumed at the correct
				time. */
				{
					UBaseType_t uxPendedCounts = uxPendedTicks; /* Non-volatile copy. */
    13a0:	4b1d      	ldr	r3, [pc, #116]	; (1418 <xTaskResumeAll+0x118>)
    13a2:	681b      	ldr	r3, [r3, #0]
    13a4:	607b      	str	r3, [r7, #4]

					if( uxPendedCounts > ( UBaseType_t ) 0U )
    13a6:	687b      	ldr	r3, [r7, #4]
    13a8:	2b00      	cmp	r3, #0
    13aa:	d00f      	beq.n	13cc <xTaskResumeAll+0xcc>
					{
						do
						{
							if( xTaskIncrementTick() != pdFALSE )
    13ac:	4b1b      	ldr	r3, [pc, #108]	; (141c <xTaskResumeAll+0x11c>)
    13ae:	4798      	blx	r3
    13b0:	1e03      	subs	r3, r0, #0
    13b2:	d002      	beq.n	13ba <xTaskResumeAll+0xba>
							{
								xYieldPending = pdTRUE;
    13b4:	4b16      	ldr	r3, [pc, #88]	; (1410 <xTaskResumeAll+0x110>)
    13b6:	2201      	movs	r2, #1
    13b8:	601a      	str	r2, [r3, #0]
							}
							else
							{
								mtCOVERAGE_TEST_MARKER();
							}
							--uxPendedCounts;
    13ba:	687b      	ldr	r3, [r7, #4]
    13bc:	3b01      	subs	r3, #1
    13be:	607b      	str	r3, [r7, #4]
						} while( uxPendedCounts > ( UBaseType_t ) 0U );
    13c0:	687b      	ldr	r3, [r7, #4]
    13c2:	2b00      	cmp	r3, #0
    13c4:	d1f2      	bne.n	13ac <xTaskResumeAll+0xac>

						uxPendedTicks = 0;
    13c6:	4b14      	ldr	r3, [pc, #80]	; (1418 <xTaskResumeAll+0x118>)
    13c8:	2200      	movs	r2, #0
    13ca:	601a      	str	r2, [r3, #0]
					{
						mtCOVERAGE_TEST_MARKER();
					}
				}

				if( xYieldPending != pdFALSE )
    13cc:	4b10      	ldr	r3, [pc, #64]	; (1410 <xTaskResumeAll+0x110>)
    13ce:	681b      	ldr	r3, [r3, #0]
    13d0:	2b00      	cmp	r3, #0
    13d2:	d003      	beq.n	13dc <xTaskResumeAll+0xdc>
				{
					#if( configUSE_PREEMPTION != 0 )
					{
						xAlreadyYielded = pdTRUE;
    13d4:	2301      	movs	r3, #1
    13d6:	60bb      	str	r3, [r7, #8]
					}
					#endif
					taskYIELD_IF_USING_PREEMPTION();
    13d8:	4b11      	ldr	r3, [pc, #68]	; (1420 <xTaskResumeAll+0x120>)
    13da:	4798      	blx	r3
		else
		{
			mtCOVERAGE_TEST_MARKER();
		}
	}
	taskEXIT_CRITICAL();
    13dc:	4b11      	ldr	r3, [pc, #68]	; (1424 <xTaskResumeAll+0x124>)
    13de:	4798      	blx	r3

	return xAlreadyYielded;
    13e0:	68bb      	ldr	r3, [r7, #8]
}
    13e2:	0018      	movs	r0, r3
    13e4:	46bd      	mov	sp, r7
    13e6:	b004      	add	sp, #16
    13e8:	bd80      	pop	{r7, pc}
    13ea:	46c0      	nop			; (mov r8, r8)
    13ec:	00000551 	.word	0x00000551
    13f0:	200038f0 	.word	0x200038f0
    13f4:	200038c8 	.word	0x200038c8
    13f8:	200038a0 	.word	0x200038a0
    13fc:	000003c7 	.word	0x000003c7
    1400:	200038d0 	.word	0x200038d0
    1404:	2000380c 	.word	0x2000380c
    1408:	00000317 	.word	0x00000317
    140c:	20003808 	.word	0x20003808
    1410:	200038dc 	.word	0x200038dc
    1414:	000018a1 	.word	0x000018a1
    1418:	200038d8 	.word	0x200038d8
    141c:	00001429 	.word	0x00001429
    1420:	00000531 	.word	0x00000531
    1424:	00000575 	.word	0x00000575

00001428 <xTaskIncrementTick>:

#endif /* INCLUDE_xTaskAbortDelay */
/*----------------------------------------------------------*/

BaseType_t xTaskIncrementTick( void )
{
    1428:	b580      	push	{r7, lr}
    142a:	b086      	sub	sp, #24
    142c:	af00      	add	r7, sp, #0
TCB_t * pxTCB;
TickType_t xItemValue;
BaseType_t xSwitchRequired = pdFALSE;
    142e:	2300      	movs	r3, #0
    1430:	617b      	str	r3, [r7, #20]

	/* Called by the portable layer each time a tick interrupt occurs.
	Increments the tick then checks to see if the new tick value will cause any
	tasks to be unblocked. */
	traceTASK_INCREMENT_TICK( xTickCount );
	if( uxSchedulerSuspended == ( UBaseType_t ) pdFALSE )
    1432:	4b46      	ldr	r3, [pc, #280]	; (154c <xTaskIncrementTick+0x124>)
    1434:	681b      	ldr	r3, [r3, #0]
    1436:	2b00      	cmp	r3, #0
    1438:	d000      	beq.n	143c <xTaskIncrementTick+0x14>
    143a:	e077      	b.n	152c <xTaskIncrementTick+0x104>
	{
		/* Minor optimisation.  The tick count cannot change in this
		block. */
		const TickType_t xConstTickCount = xTickCount + ( TickType_t ) 1;
    143c:	4b44      	ldr	r3, [pc, #272]	; (1550 <xTaskIncrementTick+0x128>)
    143e:	681b      	ldr	r3, [r3, #0]
    1440:	3301      	adds	r3, #1
    1442:	613b      	str	r3, [r7, #16]

		/* Increment the RTOS tick, switching the delayed and overflowed
		delayed lists if it wraps to 0. */
		xTickCount = xConstTickCount;
    1444:	4b42      	ldr	r3, [pc, #264]	; (1550 <xTaskIncrementTick+0x128>)
    1446:	693a      	ldr	r2, [r7, #16]
    1448:	601a      	str	r2, [r3, #0]

		if( xConstTickCount == ( TickType_t ) 0U ) /*lint !e774 'if' does not always evaluate to false as it is looking for an overflow. */
    144a:	693b      	ldr	r3, [r7, #16]
    144c:	2b00      	cmp	r3, #0
    144e:	d110      	bne.n	1472 <xTaskIncrementTick+0x4a>
		{
			taskSWITCH_DELAYED_LISTS();
    1450:	4b40      	ldr	r3, [pc, #256]	; (1554 <xTaskIncrementTick+0x12c>)
    1452:	681b      	ldr	r3, [r3, #0]
    1454:	60fb      	str	r3, [r7, #12]
    1456:	4b40      	ldr	r3, [pc, #256]	; (1558 <xTaskIncrementTick+0x130>)
    1458:	681a      	ldr	r2, [r3, #0]
    145a:	4b3e      	ldr	r3, [pc, #248]	; (1554 <xTaskIncrementTick+0x12c>)
    145c:	601a      	str	r2, [r3, #0]
    145e:	4b3e      	ldr	r3, [pc, #248]	; (1558 <xTaskIncrementTick+0x130>)
    1460:	68fa      	ldr	r2, [r7, #12]
    1462:	601a      	str	r2, [r3, #0]
    1464:	4b3d      	ldr	r3, [pc, #244]	; (155c <xTaskIncrementTick+0x134>)
    1466:	681b      	ldr	r3, [r3, #0]
    1468:	1c5a      	adds	r2, r3, #1
    146a:	4b3c      	ldr	r3, [pc, #240]	; (155c <xTaskIncrementTick+0x134>)
    146c:	601a      	str	r2, [r3, #0]
    146e:	4b3c      	ldr	r3, [pc, #240]	; (1560 <xTaskIncrementTick+0x138>)
    1470:	4798      	blx	r3

		/* See if this tick has made a timeout expire.  Tasks are stored in
		the	queue in the order of their wake time - meaning once one task
		has been found whose block time has not expired there is no need to
		look any further down the list. */
		if( xConstTickCount >= xNextTaskUnblockTime )
    1472:	4b3c      	ldr	r3, [pc, #240]	; (1564 <xTaskIncrementTick+0x13c>)
    1474:	681b      	ldr	r3, [r3, #0]
    1476:	693a      	ldr	r2, [r7, #16]
    1478:	429a      	cmp	r2, r3
    147a:	d349      	bcc.n	1510 <xTaskIncrementTick+0xe8>
		{
			for( ;; )
			{
				if( listLIST_IS_EMPTY( pxDelayedTaskList ) != pdFALSE )
    147c:	4b35      	ldr	r3, [pc, #212]	; (1554 <xTaskIncrementTick+0x12c>)
    147e:	681b      	ldr	r3, [r3, #0]
    1480:	681b      	ldr	r3, [r3, #0]
    1482:	2b00      	cmp	r3, #0
    1484:	d104      	bne.n	1490 <xTaskIncrementTick+0x68>
					/* The delayed list is empty.  Set xNextTaskUnblockTime
					to the maximum possible value so it is extremely
					unlikely that the
					if( xTickCount >= xNextTaskUnblockTime ) test will pass
					next time through. */
					xNextTaskUnblockTime = portMAX_DELAY; /*lint !e961 MISRA exception as the casts are only redundant for some ports. */
    1486:	4b37      	ldr	r3, [pc, #220]	; (1564 <xTaskIncrementTick+0x13c>)
    1488:	2201      	movs	r2, #1
    148a:	4252      	negs	r2, r2
    148c:	601a      	str	r2, [r3, #0]
					break;
    148e:	e03f      	b.n	1510 <xTaskIncrementTick+0xe8>
				{
					/* The delayed list is not empty, get the value of the
					item at the head of the delayed list.  This is the time
					at which the task at the head of the delayed list must
					be removed from the Blocked state. */
					pxTCB = listGET_OWNER_OF_HEAD_ENTRY( pxDelayedTaskList ); /*lint !e9079 void * is used as this macro is used with timers and co-routines too.  Alignment is known to be fine as the type of the pointer stored and retrieved is the same. */
    1490:	4b30      	ldr	r3, [pc, #192]	; (1554 <xTaskIncrementTick+0x12c>)
    1492:	681b      	ldr	r3, [r3, #0]
    1494:	68db      	ldr	r3, [r3, #12]
    1496:	68db      	ldr	r3, [r3, #12]
    1498:	60bb      	str	r3, [r7, #8]
					xItemValue = listGET_LIST_ITEM_VALUE( &( pxTCB->xStateListItem ) );
    149a:	68bb      	ldr	r3, [r7, #8]
    149c:	685b      	ldr	r3, [r3, #4]
    149e:	607b      	str	r3, [r7, #4]

					if( xConstTickCount < xItemValue )
    14a0:	693a      	ldr	r2, [r7, #16]
    14a2:	687b      	ldr	r3, [r7, #4]
    14a4:	429a      	cmp	r2, r3
    14a6:	d203      	bcs.n	14b0 <xTaskIncrementTick+0x88>
						/* It is not time to unblock this item yet, but the
						item value is the time at which the task at the head
						of the blocked list must be removed from the Blocked
						state -	so record the item value in
						xNextTaskUnblockTime. */
						xNextTaskUnblockTime = xItemValue;
    14a8:	4b2e      	ldr	r3, [pc, #184]	; (1564 <xTaskIncrementTick+0x13c>)
    14aa:	687a      	ldr	r2, [r7, #4]
    14ac:	601a      	str	r2, [r3, #0]
						break; /*lint !e9011 Code structure here is deedmed easier to understand with multiple breaks. */
    14ae:	e02f      	b.n	1510 <xTaskIncrementTick+0xe8>
					{
						mtCOVERAGE_TEST_MARKER();
					}

					/* It is time to remove the item from the Blocked state. */
					( void ) uxListRemove( &( pxTCB->xStateListItem ) );
    14b0:	68bb      	ldr	r3, [r7, #8]
    14b2:	3304      	adds	r3, #4
    14b4:	0018      	movs	r0, r3
    14b6:	4b2c      	ldr	r3, [pc, #176]	; (1568 <xTaskIncrementTick+0x140>)
    14b8:	4798      	blx	r3

					/* Is the task waiting on an event also?  If so remove
					it from the event list. */
					if( listLIST_ITEM_CONTAINER( &( pxTCB->xEventListItem ) ) != NULL )
    14ba:	68bb      	ldr	r3, [r7, #8]
    14bc:	6a9b      	ldr	r3, [r3, #40]	; 0x28
    14be:	2b00      	cmp	r3, #0
    14c0:	d004      	beq.n	14cc <xTaskIncrementTick+0xa4>
					{
						( void ) uxListRemove( &( pxTCB->xEventListItem ) );
    14c2:	68bb      	ldr	r3, [r7, #8]
    14c4:	3318      	adds	r3, #24
    14c6:	0018      	movs	r0, r3
    14c8:	4b27      	ldr	r3, [pc, #156]	; (1568 <xTaskIncrementTick+0x140>)
    14ca:	4798      	blx	r3
						mtCOVERAGE_TEST_MARKER();
					}

					/* Place the unblocked task into the appropriate ready
					list. */
					prvAddTaskToReadyList( pxTCB );
    14cc:	68bb      	ldr	r3, [r7, #8]
    14ce:	6ada      	ldr	r2, [r3, #44]	; 0x2c
    14d0:	4b26      	ldr	r3, [pc, #152]	; (156c <xTaskIncrementTick+0x144>)
    14d2:	681b      	ldr	r3, [r3, #0]
    14d4:	429a      	cmp	r2, r3
    14d6:	d903      	bls.n	14e0 <xTaskIncrementTick+0xb8>
    14d8:	68bb      	ldr	r3, [r7, #8]
    14da:	6ada      	ldr	r2, [r3, #44]	; 0x2c
    14dc:	4b23      	ldr	r3, [pc, #140]	; (156c <xTaskIncrementTick+0x144>)
    14de:	601a      	str	r2, [r3, #0]
    14e0:	68bb      	ldr	r3, [r7, #8]
    14e2:	6ada      	ldr	r2, [r3, #44]	; 0x2c
    14e4:	0013      	movs	r3, r2
    14e6:	009b      	lsls	r3, r3, #2
    14e8:	189b      	adds	r3, r3, r2
    14ea:	009b      	lsls	r3, r3, #2
    14ec:	4a20      	ldr	r2, [pc, #128]	; (1570 <xTaskIncrementTick+0x148>)
    14ee:	189a      	adds	r2, r3, r2
    14f0:	68bb      	ldr	r3, [r7, #8]
    14f2:	3304      	adds	r3, #4
    14f4:	0019      	movs	r1, r3
    14f6:	0010      	movs	r0, r2
    14f8:	4b1e      	ldr	r3, [pc, #120]	; (1574 <xTaskIncrementTick+0x14c>)
    14fa:	4798      	blx	r3
					{
						/* Preemption is on, but a context switch should
						only be performed if the unblocked task has a
						priority that is equal to or higher than the
						currently executing task. */
						if( pxTCB->uxPriority >= pxCurrentTCB->uxPriority )
    14fc:	68bb      	ldr	r3, [r7, #8]
    14fe:	6ada      	ldr	r2, [r3, #44]	; 0x2c
    1500:	4b1d      	ldr	r3, [pc, #116]	; (1578 <xTaskIncrementTick+0x150>)
    1502:	681b      	ldr	r3, [r3, #0]
    1504:	6adb      	ldr	r3, [r3, #44]	; 0x2c
    1506:	429a      	cmp	r2, r3
    1508:	d3b8      	bcc.n	147c <xTaskIncrementTick+0x54>
						{
							xSwitchRequired = pdTRUE;
    150a:	2301      	movs	r3, #1
    150c:	617b      	str	r3, [r7, #20]
				if( listLIST_IS_EMPTY( pxDelayedTaskList ) != pdFALSE )
    150e:	e7b5      	b.n	147c <xTaskIncrementTick+0x54>
		/* Tasks of equal priority to the currently running task will share
		processing time (time slice) if preemption is on, and the application
		writer has not explicitly turned time slicing off. */
		#if ( ( configUSE_PREEMPTION == 1 ) && ( configUSE_TIME_SLICING == 1 ) )
		{
			if( listCURRENT_LIST_LENGTH( &( pxReadyTasksLists[ pxCurrentTCB->uxPriority ] ) ) > ( UBaseType_t ) 1 )
    1510:	4b19      	ldr	r3, [pc, #100]	; (1578 <xTaskIncrementTick+0x150>)
    1512:	681b      	ldr	r3, [r3, #0]
    1514:	6ada      	ldr	r2, [r3, #44]	; 0x2c
    1516:	4916      	ldr	r1, [pc, #88]	; (1570 <xTaskIncrementTick+0x148>)
    1518:	0013      	movs	r3, r2
    151a:	009b      	lsls	r3, r3, #2
    151c:	189b      	adds	r3, r3, r2
    151e:	009b      	lsls	r3, r3, #2
    1520:	585b      	ldr	r3, [r3, r1]
    1522:	2b01      	cmp	r3, #1
    1524:	d907      	bls.n	1536 <xTaskIncrementTick+0x10e>
			{
				xSwitchRequired = pdTRUE;
    1526:	2301      	movs	r3, #1
    1528:	617b      	str	r3, [r7, #20]
    152a:	e004      	b.n	1536 <xTaskIncrementTick+0x10e>
		}
		#endif /* configUSE_TICK_HOOK */
	}
	else
	{
		++uxPendedTicks;
    152c:	4b13      	ldr	r3, [pc, #76]	; (157c <xTaskIncrementTick+0x154>)
    152e:	681b      	ldr	r3, [r3, #0]
    1530:	1c5a      	adds	r2, r3, #1
    1532:	4b12      	ldr	r3, [pc, #72]	; (157c <xTaskIncrementTick+0x154>)
    1534:	601a      	str	r2, [r3, #0]
		#endif
	}

	#if ( configUSE_PREEMPTION == 1 )
	{
		if( xYieldPending != pdFALSE )
    1536:	4b12      	ldr	r3, [pc, #72]	; (1580 <xTaskIncrementTick+0x158>)
    1538:	681b      	ldr	r3, [r3, #0]
    153a:	2b00      	cmp	r3, #0
    153c:	d001      	beq.n	1542 <xTaskIncrementTick+0x11a>
		{
			xSwitchRequired = pdTRUE;
    153e:	2301      	movs	r3, #1
    1540:	617b      	str	r3, [r7, #20]
			mtCOVERAGE_TEST_MARKER();
		}
	}
	#endif /* configUSE_PREEMPTION */

	return xSwitchRequired;
    1542:	697b      	ldr	r3, [r7, #20]
}
    1544:	0018      	movs	r0, r3
    1546:	46bd      	mov	sp, r7
    1548:	b006      	add	sp, #24
    154a:	bd80      	pop	{r7, pc}
    154c:	200038f0 	.word	0x200038f0
    1550:	200038cc 	.word	0x200038cc
    1554:	20003898 	.word	0x20003898
    1558:	2000389c 	.word	0x2000389c
    155c:	200038e0 	.word	0x200038e0
    1560:	000018a1 	.word	0x000018a1
    1564:	200038e8 	.word	0x200038e8
    1568:	000003c7 	.word	0x000003c7
    156c:	200038d0 	.word	0x200038d0
    1570:	2000380c 	.word	0x2000380c
    1574:	00000317 	.word	0x00000317
    1578:	20003808 	.word	0x20003808
    157c:	200038d8 	.word	0x200038d8
    1580:	200038dc 	.word	0x200038dc

00001584 <vTaskSwitchContext>:

#endif /* configUSE_APPLICATION_TASK_TAG */
/*-----------------------------------------------------------*/

void vTaskSwitchContext( void )
{
    1584:	b580      	push	{r7, lr}
    1586:	b082      	sub	sp, #8
    1588:	af00      	add	r7, sp, #0
	if( uxSchedulerSuspended != ( UBaseType_t ) pdFALSE )
    158a:	4b1f      	ldr	r3, [pc, #124]	; (1608 <vTaskSwitchContext+0x84>)
    158c:	681b      	ldr	r3, [r3, #0]
    158e:	2b00      	cmp	r3, #0
    1590:	d003      	beq.n	159a <vTaskSwitchContext+0x16>
	{
		/* The scheduler is currently suspended - do not allow a context
		switch. */
		xYieldPending = pdTRUE;
    1592:	4b1e      	ldr	r3, [pc, #120]	; (160c <vTaskSwitchContext+0x88>)
    1594:	2201      	movs	r2, #1
    1596:	601a      	str	r2, [r3, #0]
			structure specific to this task. */
			_impure_ptr = &( pxCurrentTCB->xNewLib_reent );
		}
		#endif /* configUSE_NEWLIB_REENTRANT */
	}
}
    1598:	e032      	b.n	1600 <vTaskSwitchContext+0x7c>
		xYieldPending = pdFALSE;
    159a:	4b1c      	ldr	r3, [pc, #112]	; (160c <vTaskSwitchContext+0x88>)
    159c:	2200      	movs	r2, #0
    159e:	601a      	str	r2, [r3, #0]
		taskSELECT_HIGHEST_PRIORITY_TASK(); /*lint !e9079 void * is used as this macro is used with timers and co-routines too.  Alignment is known to be fine as the type of the pointer stored and retrieved is the same. */
    15a0:	4b1b      	ldr	r3, [pc, #108]	; (1610 <vTaskSwitchContext+0x8c>)
    15a2:	681b      	ldr	r3, [r3, #0]
    15a4:	607b      	str	r3, [r7, #4]
    15a6:	e002      	b.n	15ae <vTaskSwitchContext+0x2a>
    15a8:	687b      	ldr	r3, [r7, #4]
    15aa:	3b01      	subs	r3, #1
    15ac:	607b      	str	r3, [r7, #4]
    15ae:	4919      	ldr	r1, [pc, #100]	; (1614 <vTaskSwitchContext+0x90>)
    15b0:	687a      	ldr	r2, [r7, #4]
    15b2:	0013      	movs	r3, r2
    15b4:	009b      	lsls	r3, r3, #2
    15b6:	189b      	adds	r3, r3, r2
    15b8:	009b      	lsls	r3, r3, #2
    15ba:	585b      	ldr	r3, [r3, r1]
    15bc:	2b00      	cmp	r3, #0
    15be:	d0f3      	beq.n	15a8 <vTaskSwitchContext+0x24>
    15c0:	687a      	ldr	r2, [r7, #4]
    15c2:	0013      	movs	r3, r2
    15c4:	009b      	lsls	r3, r3, #2
    15c6:	189b      	adds	r3, r3, r2
    15c8:	009b      	lsls	r3, r3, #2
    15ca:	4a12      	ldr	r2, [pc, #72]	; (1614 <vTaskSwitchContext+0x90>)
    15cc:	189b      	adds	r3, r3, r2
    15ce:	603b      	str	r3, [r7, #0]
    15d0:	683b      	ldr	r3, [r7, #0]
    15d2:	685b      	ldr	r3, [r3, #4]
    15d4:	685a      	ldr	r2, [r3, #4]
    15d6:	683b      	ldr	r3, [r7, #0]
    15d8:	605a      	str	r2, [r3, #4]
    15da:	683b      	ldr	r3, [r7, #0]
    15dc:	685a      	ldr	r2, [r3, #4]
    15de:	683b      	ldr	r3, [r7, #0]
    15e0:	3308      	adds	r3, #8
    15e2:	429a      	cmp	r2, r3
    15e4:	d104      	bne.n	15f0 <vTaskSwitchContext+0x6c>
    15e6:	683b      	ldr	r3, [r7, #0]
    15e8:	685b      	ldr	r3, [r3, #4]
    15ea:	685a      	ldr	r2, [r3, #4]
    15ec:	683b      	ldr	r3, [r7, #0]
    15ee:	605a      	str	r2, [r3, #4]
    15f0:	683b      	ldr	r3, [r7, #0]
    15f2:	685b      	ldr	r3, [r3, #4]
    15f4:	68da      	ldr	r2, [r3, #12]
    15f6:	4b08      	ldr	r3, [pc, #32]	; (1618 <vTaskSwitchContext+0x94>)
    15f8:	601a      	str	r2, [r3, #0]
    15fa:	4b05      	ldr	r3, [pc, #20]	; (1610 <vTaskSwitchContext+0x8c>)
    15fc:	687a      	ldr	r2, [r7, #4]
    15fe:	601a      	str	r2, [r3, #0]
}
    1600:	46c0      	nop			; (mov r8, r8)
    1602:	46bd      	mov	sp, r7
    1604:	b002      	add	sp, #8
    1606:	bd80      	pop	{r7, pc}
    1608:	200038f0 	.word	0x200038f0
    160c:	200038dc 	.word	0x200038dc
    1610:	200038d0 	.word	0x200038d0
    1614:	2000380c 	.word	0x2000380c
    1618:	20003808 	.word	0x20003808

0000161c <vTaskPlaceOnEventList>:
/*-----------------------------------------------------------*/

void vTaskPlaceOnEventList( List_t * const pxEventList, const TickType_t xTicksToWait )
{
    161c:	b580      	push	{r7, lr}
    161e:	b082      	sub	sp, #8
    1620:	af00      	add	r7, sp, #0
    1622:	6078      	str	r0, [r7, #4]
    1624:	6039      	str	r1, [r7, #0]

	/* Place the event list item of the TCB in the appropriate event list.
	This is placed in the list in priority order so the highest priority task
	is the first to be woken by the event.  The queue that contains the event
	list is locked, preventing simultaneous access from interrupts. */
	vListInsert( pxEventList, &( pxCurrentTCB->xEventListItem ) );
    1626:	4b09      	ldr	r3, [pc, #36]	; (164c <vTaskPlaceOnEventList+0x30>)
    1628:	681b      	ldr	r3, [r3, #0]
    162a:	3318      	adds	r3, #24
    162c:	001a      	movs	r2, r3
    162e:	687b      	ldr	r3, [r7, #4]
    1630:	0011      	movs	r1, r2
    1632:	0018      	movs	r0, r3
    1634:	4b06      	ldr	r3, [pc, #24]	; (1650 <vTaskPlaceOnEventList+0x34>)
    1636:	4798      	blx	r3

	prvAddCurrentTaskToDelayedList( xTicksToWait, pdTRUE );
    1638:	683b      	ldr	r3, [r7, #0]
    163a:	2101      	movs	r1, #1
    163c:	0018      	movs	r0, r3
    163e:	4b05      	ldr	r3, [pc, #20]	; (1654 <vTaskPlaceOnEventList+0x38>)
    1640:	4798      	blx	r3
}
    1642:	46c0      	nop			; (mov r8, r8)
    1644:	46bd      	mov	sp, r7
    1646:	b002      	add	sp, #8
    1648:	bd80      	pop	{r7, pc}
    164a:	46c0      	nop			; (mov r8, r8)
    164c:	20003808 	.word	0x20003808
    1650:	0000035b 	.word	0x0000035b
    1654:	000018dd 	.word	0x000018dd

00001658 <xTaskRemoveFromEventList>:

#endif /* configUSE_TIMERS */
/*-----------------------------------------------------------*/

BaseType_t xTaskRemoveFromEventList( const List_t * const pxEventList )
{
    1658:	b580      	push	{r7, lr}
    165a:	b084      	sub	sp, #16
    165c:	af00      	add	r7, sp, #0
    165e:	6078      	str	r0, [r7, #4]
	get called - the lock count on the queue will get modified instead.  This
	means exclusive access to the event list is guaranteed here.

	This function assumes that a check has already been made to ensure that
	pxEventList is not empty. */
	pxUnblockedTCB = listGET_OWNER_OF_HEAD_ENTRY( pxEventList ); /*lint !e9079 void * is used as this macro is used with timers and co-routines too.  Alignment is known to be fine as the type of the pointer stored and retrieved is the same. */
    1660:	687b      	ldr	r3, [r7, #4]
    1662:	68db      	ldr	r3, [r3, #12]
    1664:	68db      	ldr	r3, [r3, #12]
    1666:	60bb      	str	r3, [r7, #8]
	configASSERT( pxUnblockedTCB );
	( void ) uxListRemove( &( pxUnblockedTCB->xEventListItem ) );
    1668:	68bb      	ldr	r3, [r7, #8]
    166a:	3318      	adds	r3, #24
    166c:	0018      	movs	r0, r3
    166e:	4b20      	ldr	r3, [pc, #128]	; (16f0 <xTaskRemoveFromEventList+0x98>)
    1670:	4798      	blx	r3

	if( uxSchedulerSuspended == ( UBaseType_t ) pdFALSE )
    1672:	4b20      	ldr	r3, [pc, #128]	; (16f4 <xTaskRemoveFromEventList+0x9c>)
    1674:	681b      	ldr	r3, [r3, #0]
    1676:	2b00      	cmp	r3, #0
    1678:	d11d      	bne.n	16b6 <xTaskRemoveFromEventList+0x5e>
	{
		( void ) uxListRemove( &( pxUnblockedTCB->xStateListItem ) );
    167a:	68bb      	ldr	r3, [r7, #8]
    167c:	3304      	adds	r3, #4
    167e:	0018      	movs	r0, r3
    1680:	4b1b      	ldr	r3, [pc, #108]	; (16f0 <xTaskRemoveFromEventList+0x98>)
    1682:	4798      	blx	r3
		prvAddTaskToReadyList( pxUnblockedTCB );
    1684:	68bb      	ldr	r3, [r7, #8]
    1686:	6ada      	ldr	r2, [r3, #44]	; 0x2c
    1688:	4b1b      	ldr	r3, [pc, #108]	; (16f8 <xTaskRemoveFromEventList+0xa0>)
    168a:	681b      	ldr	r3, [r3, #0]
    168c:	429a      	cmp	r2, r3
    168e:	d903      	bls.n	1698 <xTaskRemoveFromEventList+0x40>
    1690:	68bb      	ldr	r3, [r7, #8]
    1692:	6ada      	ldr	r2, [r3, #44]	; 0x2c
    1694:	4b18      	ldr	r3, [pc, #96]	; (16f8 <xTaskRemoveFromEventList+0xa0>)
    1696:	601a      	str	r2, [r3, #0]
    1698:	68bb      	ldr	r3, [r7, #8]
    169a:	6ada      	ldr	r2, [r3, #44]	; 0x2c
    169c:	0013      	movs	r3, r2
    169e:	009b      	lsls	r3, r3, #2
    16a0:	189b      	adds	r3, r3, r2
    16a2:	009b      	lsls	r3, r3, #2
    16a4:	4a15      	ldr	r2, [pc, #84]	; (16fc <xTaskRemoveFromEventList+0xa4>)
    16a6:	189a      	adds	r2, r3, r2
    16a8:	68bb      	ldr	r3, [r7, #8]
    16aa:	3304      	adds	r3, #4
    16ac:	0019      	movs	r1, r3
    16ae:	0010      	movs	r0, r2
    16b0:	4b13      	ldr	r3, [pc, #76]	; (1700 <xTaskRemoveFromEventList+0xa8>)
    16b2:	4798      	blx	r3
    16b4:	e007      	b.n	16c6 <xTaskRemoveFromEventList+0x6e>
	}
	else
	{
		/* The delayed and ready lists cannot be accessed, so hold this task
		pending until the scheduler is resumed. */
		vListInsertEnd( &( xPendingReadyList ), &( pxUnblockedTCB->xEventListItem ) );
    16b6:	68bb      	ldr	r3, [r7, #8]
    16b8:	3318      	adds	r3, #24
    16ba:	001a      	movs	r2, r3
    16bc:	4b11      	ldr	r3, [pc, #68]	; (1704 <xTaskRemoveFromEventList+0xac>)
    16be:	0011      	movs	r1, r2
    16c0:	0018      	movs	r0, r3
    16c2:	4b0f      	ldr	r3, [pc, #60]	; (1700 <xTaskRemoveFromEventList+0xa8>)
    16c4:	4798      	blx	r3
	}

	if( pxUnblockedTCB->uxPriority > pxCurrentTCB->uxPriority )
    16c6:	68bb      	ldr	r3, [r7, #8]
    16c8:	6ada      	ldr	r2, [r3, #44]	; 0x2c
    16ca:	4b0f      	ldr	r3, [pc, #60]	; (1708 <xTaskRemoveFromEventList+0xb0>)
    16cc:	681b      	ldr	r3, [r3, #0]
    16ce:	6adb      	ldr	r3, [r3, #44]	; 0x2c
    16d0:	429a      	cmp	r2, r3
    16d2:	d905      	bls.n	16e0 <xTaskRemoveFromEventList+0x88>
	{
		/* Return true if the task removed from the event list has a higher
		priority than the calling task.  This allows the calling task to know if
		it should force a context switch now. */
		xReturn = pdTRUE;
    16d4:	2301      	movs	r3, #1
    16d6:	60fb      	str	r3, [r7, #12]

		/* Mark that a yield is pending in case the user is not using the
		"xHigherPriorityTaskWoken" parameter to an ISR safe FreeRTOS function. */
		xYieldPending = pdTRUE;
    16d8:	4b0c      	ldr	r3, [pc, #48]	; (170c <xTaskRemoveFromEventList+0xb4>)
    16da:	2201      	movs	r2, #1
    16dc:	601a      	str	r2, [r3, #0]
    16de:	e001      	b.n	16e4 <xTaskRemoveFromEventList+0x8c>
	}
	else
	{
		xReturn = pdFALSE;
    16e0:	2300      	movs	r3, #0
    16e2:	60fb      	str	r3, [r7, #12]
	}

	return xReturn;
    16e4:	68fb      	ldr	r3, [r7, #12]
}
    16e6:	0018      	movs	r0, r3
    16e8:	46bd      	mov	sp, r7
    16ea:	b004      	add	sp, #16
    16ec:	bd80      	pop	{r7, pc}
    16ee:	46c0      	nop			; (mov r8, r8)
    16f0:	000003c7 	.word	0x000003c7
    16f4:	200038f0 	.word	0x200038f0
    16f8:	200038d0 	.word	0x200038d0
    16fc:	2000380c 	.word	0x2000380c
    1700:	00000317 	.word	0x00000317
    1704:	200038a0 	.word	0x200038a0
    1708:	20003808 	.word	0x20003808
    170c:	200038dc 	.word	0x200038dc

00001710 <vTaskInternalSetTimeOutState>:
	taskEXIT_CRITICAL();
}
/*-----------------------------------------------------------*/

void vTaskInternalSetTimeOutState( TimeOut_t * const pxTimeOut )
{
    1710:	b580      	push	{r7, lr}
    1712:	b082      	sub	sp, #8
    1714:	af00      	add	r7, sp, #0
    1716:	6078      	str	r0, [r7, #4]
	/* For internal use only as it does not use a critical section. */
	pxTimeOut->xOverflowCount = xNumOfOverflows;
    1718:	4b05      	ldr	r3, [pc, #20]	; (1730 <vTaskInternalSetTimeOutState+0x20>)
    171a:	681a      	ldr	r2, [r3, #0]
    171c:	687b      	ldr	r3, [r7, #4]
    171e:	601a      	str	r2, [r3, #0]
	pxTimeOut->xTimeOnEntering = xTickCount;
    1720:	4b04      	ldr	r3, [pc, #16]	; (1734 <vTaskInternalSetTimeOutState+0x24>)
    1722:	681a      	ldr	r2, [r3, #0]
    1724:	687b      	ldr	r3, [r7, #4]
    1726:	605a      	str	r2, [r3, #4]
}
    1728:	46c0      	nop			; (mov r8, r8)
    172a:	46bd      	mov	sp, r7
    172c:	b002      	add	sp, #8
    172e:	bd80      	pop	{r7, pc}
    1730:	200038e0 	.word	0x200038e0
    1734:	200038cc 	.word	0x200038cc

00001738 <xTaskCheckForTimeOut>:
/*-----------------------------------------------------------*/

BaseType_t xTaskCheckForTimeOut( TimeOut_t * const pxTimeOut, TickType_t * const pxTicksToWait )
{
    1738:	b580      	push	{r7, lr}
    173a:	b086      	sub	sp, #24
    173c:	af00      	add	r7, sp, #0
    173e:	6078      	str	r0, [r7, #4]
    1740:	6039      	str	r1, [r7, #0]
BaseType_t xReturn;

	configASSERT( pxTimeOut );
	configASSERT( pxTicksToWait );

	taskENTER_CRITICAL();
    1742:	4b1e      	ldr	r3, [pc, #120]	; (17bc <xTaskCheckForTimeOut+0x84>)
    1744:	4798      	blx	r3
	{
		/* Minor optimisation.  The tick count cannot change in this block. */
		const TickType_t xConstTickCount = xTickCount;
    1746:	4b1e      	ldr	r3, [pc, #120]	; (17c0 <xTaskCheckForTimeOut+0x88>)
    1748:	681b      	ldr	r3, [r3, #0]
    174a:	613b      	str	r3, [r7, #16]
		const TickType_t xElapsedTime = xConstTickCount - pxTimeOut->xTimeOnEntering;
    174c:	687b      	ldr	r3, [r7, #4]
    174e:	685b      	ldr	r3, [r3, #4]
    1750:	693a      	ldr	r2, [r7, #16]
    1752:	1ad3      	subs	r3, r2, r3
    1754:	60fb      	str	r3, [r7, #12]
			}
			else
		#endif

		#if ( INCLUDE_vTaskSuspend == 1 )
			if( *pxTicksToWait == portMAX_DELAY )
    1756:	683b      	ldr	r3, [r7, #0]
    1758:	681b      	ldr	r3, [r3, #0]
    175a:	3301      	adds	r3, #1
    175c:	d102      	bne.n	1764 <xTaskCheckForTimeOut+0x2c>
			{
				/* If INCLUDE_vTaskSuspend is set to 1 and the block time
				specified is the maximum block time then the task should block
				indefinitely, and therefore never time out. */
				xReturn = pdFALSE;
    175e:	2300      	movs	r3, #0
    1760:	617b      	str	r3, [r7, #20]
    1762:	e024      	b.n	17ae <xTaskCheckForTimeOut+0x76>
			}
			else
		#endif

		if( ( xNumOfOverflows != pxTimeOut->xOverflowCount ) && ( xConstTickCount >= pxTimeOut->xTimeOnEntering ) ) /*lint !e525 Indentation preferred as is to make code within pre-processor directives clearer. */
    1764:	687b      	ldr	r3, [r7, #4]
    1766:	681a      	ldr	r2, [r3, #0]
    1768:	4b16      	ldr	r3, [pc, #88]	; (17c4 <xTaskCheckForTimeOut+0x8c>)
    176a:	681b      	ldr	r3, [r3, #0]
    176c:	429a      	cmp	r2, r3
    176e:	d007      	beq.n	1780 <xTaskCheckForTimeOut+0x48>
    1770:	687b      	ldr	r3, [r7, #4]
    1772:	685a      	ldr	r2, [r3, #4]
    1774:	693b      	ldr	r3, [r7, #16]
    1776:	429a      	cmp	r2, r3
    1778:	d802      	bhi.n	1780 <xTaskCheckForTimeOut+0x48>
			/* The tick count is greater than the time at which
			vTaskSetTimeout() was called, but has also overflowed since
			vTaskSetTimeOut() was called.  It must have wrapped all the way
			around and gone past again. This passed since vTaskSetTimeout()
			was called. */
			xReturn = pdTRUE;
    177a:	2301      	movs	r3, #1
    177c:	617b      	str	r3, [r7, #20]
    177e:	e016      	b.n	17ae <xTaskCheckForTimeOut+0x76>
		}
		else if( xElapsedTime < *pxTicksToWait ) /*lint !e961 Explicit casting is only redundant with some compilers, whereas others require it to prevent integer conversion errors. */
    1780:	683b      	ldr	r3, [r7, #0]
    1782:	681a      	ldr	r2, [r3, #0]
    1784:	68fb      	ldr	r3, [r7, #12]
    1786:	429a      	cmp	r2, r3
    1788:	d90c      	bls.n	17a4 <xTaskCheckForTimeOut+0x6c>
		{
			/* Not a genuine timeout. Adjust parameters for time remaining. */
			*pxTicksToWait -= xElapsedTime;
    178a:	683b      	ldr	r3, [r7, #0]
    178c:	681a      	ldr	r2, [r3, #0]
    178e:	68fb      	ldr	r3, [r7, #12]
    1790:	1ad2      	subs	r2, r2, r3
    1792:	683b      	ldr	r3, [r7, #0]
    1794:	601a      	str	r2, [r3, #0]
			vTaskInternalSetTimeOutState( pxTimeOut );
    1796:	687b      	ldr	r3, [r7, #4]
    1798:	0018      	movs	r0, r3
    179a:	4b0b      	ldr	r3, [pc, #44]	; (17c8 <xTaskCheckForTimeOut+0x90>)
    179c:	4798      	blx	r3
			xReturn = pdFALSE;
    179e:	2300      	movs	r3, #0
    17a0:	617b      	str	r3, [r7, #20]
    17a2:	e004      	b.n	17ae <xTaskCheckForTimeOut+0x76>
		}
		else
		{
			*pxTicksToWait = 0;
    17a4:	683b      	ldr	r3, [r7, #0]
    17a6:	2200      	movs	r2, #0
    17a8:	601a      	str	r2, [r3, #0]
			xReturn = pdTRUE;
    17aa:	2301      	movs	r3, #1
    17ac:	617b      	str	r3, [r7, #20]
		}
	}
	taskEXIT_CRITICAL();
    17ae:	4b07      	ldr	r3, [pc, #28]	; (17cc <xTaskCheckForTimeOut+0x94>)
    17b0:	4798      	blx	r3

	return xReturn;
    17b2:	697b      	ldr	r3, [r7, #20]
}
    17b4:	0018      	movs	r0, r3
    17b6:	46bd      	mov	sp, r7
    17b8:	b006      	add	sp, #24
    17ba:	bd80      	pop	{r7, pc}
    17bc:	00000551 	.word	0x00000551
    17c0:	200038cc 	.word	0x200038cc
    17c4:	200038e0 	.word	0x200038e0
    17c8:	00001711 	.word	0x00001711
    17cc:	00000575 	.word	0x00000575

000017d0 <vTaskMissedYield>:
/*-----------------------------------------------------------*/

void vTaskMissedYield( void )
{
    17d0:	b580      	push	{r7, lr}
    17d2:	af00      	add	r7, sp, #0
	xYieldPending = pdTRUE;
    17d4:	4b02      	ldr	r3, [pc, #8]	; (17e0 <vTaskMissedYield+0x10>)
    17d6:	2201      	movs	r2, #1
    17d8:	601a      	str	r2, [r3, #0]
}
    17da:	46c0      	nop			; (mov r8, r8)
    17dc:	46bd      	mov	sp, r7
    17de:	bd80      	pop	{r7, pc}
    17e0:	200038dc 	.word	0x200038dc

000017e4 <prvIdleTask>:
 *
 * void prvIdleTask( void *pvParameters );
 *
 */
static portTASK_FUNCTION( prvIdleTask, pvParameters )
{
    17e4:	b580      	push	{r7, lr}
    17e6:	b082      	sub	sp, #8
    17e8:	af00      	add	r7, sp, #0
    17ea:	6078      	str	r0, [r7, #4]

	for( ;; )
	{
		/* See if any tasks have deleted themselves - if so then the idle task
		is responsible for freeing the deleted task's TCB and stack. */
		prvCheckTasksWaitingTermination();
    17ec:	4b05      	ldr	r3, [pc, #20]	; (1804 <prvIdleTask+0x20>)
    17ee:	4798      	blx	r3

			A critical region is not required here as we are just reading from
			the list, and an occasional incorrect value will not matter.  If
			the ready list at the idle priority contains more than one task
			then a task other than the idle task is ready to execute. */
			if( listCURRENT_LIST_LENGTH( &( pxReadyTasksLists[ tskIDLE_PRIORITY ] ) ) > ( UBaseType_t ) 1 )
    17f0:	4b05      	ldr	r3, [pc, #20]	; (1808 <prvIdleTask+0x24>)
    17f2:	681b      	ldr	r3, [r3, #0]
    17f4:	2b01      	cmp	r3, #1
    17f6:	d901      	bls.n	17fc <prvIdleTask+0x18>
			{
				taskYIELD();
    17f8:	4b04      	ldr	r3, [pc, #16]	; (180c <prvIdleTask+0x28>)
    17fa:	4798      	blx	r3
			/* Call the user defined function from within the idle task.  This
			allows the application designer to add background functionality
			without the overhead of a separate task.
			NOTE: vApplicationIdleHook() MUST NOT, UNDER ANY CIRCUMSTANCES,
			CALL A FUNCTION THAT MIGHT BLOCK. */
			vApplicationIdleHook();
    17fc:	4b04      	ldr	r3, [pc, #16]	; (1810 <prvIdleTask+0x2c>)
    17fe:	4798      	blx	r3
		prvCheckTasksWaitingTermination();
    1800:	e7f4      	b.n	17ec <prvIdleTask+0x8>
    1802:	46c0      	nop			; (mov r8, r8)
    1804:	00001895 	.word	0x00001895
    1808:	2000380c 	.word	0x2000380c
    180c:	00000531 	.word	0x00000531
    1810:	00000109 	.word	0x00000109

00001814 <prvInitialiseTaskLists>:

#endif /* portUSING_MPU_WRAPPERS */
/*-----------------------------------------------------------*/

static void prvInitialiseTaskLists( void )
{
    1814:	b580      	push	{r7, lr}
    1816:	b082      	sub	sp, #8
    1818:	af00      	add	r7, sp, #0
UBaseType_t uxPriority;

	for( uxPriority = ( UBaseType_t ) 0U; uxPriority < ( UBaseType_t ) configMAX_PRIORITIES; uxPriority++ )
    181a:	2300      	movs	r3, #0
    181c:	607b      	str	r3, [r7, #4]
    181e:	e00c      	b.n	183a <prvInitialiseTaskLists+0x26>
	{
		vListInitialise( &( pxReadyTasksLists[ uxPriority ] ) );
    1820:	687a      	ldr	r2, [r7, #4]
    1822:	0013      	movs	r3, r2
    1824:	009b      	lsls	r3, r3, #2
    1826:	189b      	adds	r3, r3, r2
    1828:	009b      	lsls	r3, r3, #2
    182a:	4a12      	ldr	r2, [pc, #72]	; (1874 <prvInitialiseTaskLists+0x60>)
    182c:	189b      	adds	r3, r3, r2
    182e:	0018      	movs	r0, r3
    1830:	4b11      	ldr	r3, [pc, #68]	; (1878 <prvInitialiseTaskLists+0x64>)
    1832:	4798      	blx	r3
	for( uxPriority = ( UBaseType_t ) 0U; uxPriority < ( UBaseType_t ) configMAX_PRIORITIES; uxPriority++ )
    1834:	687b      	ldr	r3, [r7, #4]
    1836:	3301      	adds	r3, #1
    1838:	607b      	str	r3, [r7, #4]
    183a:	687b      	ldr	r3, [r7, #4]
    183c:	2b04      	cmp	r3, #4
    183e:	d9ef      	bls.n	1820 <prvInitialiseTaskLists+0xc>
	}

	vListInitialise( &xDelayedTaskList1 );
    1840:	4b0e      	ldr	r3, [pc, #56]	; (187c <prvInitialiseTaskLists+0x68>)
    1842:	0018      	movs	r0, r3
    1844:	4b0c      	ldr	r3, [pc, #48]	; (1878 <prvInitialiseTaskLists+0x64>)
    1846:	4798      	blx	r3
	vListInitialise( &xDelayedTaskList2 );
    1848:	4b0d      	ldr	r3, [pc, #52]	; (1880 <prvInitialiseTaskLists+0x6c>)
    184a:	0018      	movs	r0, r3
    184c:	4b0a      	ldr	r3, [pc, #40]	; (1878 <prvInitialiseTaskLists+0x64>)
    184e:	4798      	blx	r3
	vListInitialise( &xPendingReadyList );
    1850:	4b0c      	ldr	r3, [pc, #48]	; (1884 <prvInitialiseTaskLists+0x70>)
    1852:	0018      	movs	r0, r3
    1854:	4b08      	ldr	r3, [pc, #32]	; (1878 <prvInitialiseTaskLists+0x64>)
    1856:	4798      	blx	r3
	}
	#endif /* INCLUDE_vTaskDelete */

	#if ( INCLUDE_vTaskSuspend == 1 )
	{
		vListInitialise( &xSuspendedTaskList );
    1858:	4b0b      	ldr	r3, [pc, #44]	; (1888 <prvInitialiseTaskLists+0x74>)
    185a:	0018      	movs	r0, r3
    185c:	4b06      	ldr	r3, [pc, #24]	; (1878 <prvInitialiseTaskLists+0x64>)
    185e:	4798      	blx	r3
	}
	#endif /* INCLUDE_vTaskSuspend */

	/* Start with pxDelayedTaskList using list1 and the pxOverflowDelayedTaskList
	using list2. */
	pxDelayedTaskList = &xDelayedTaskList1;
    1860:	4b0a      	ldr	r3, [pc, #40]	; (188c <prvInitialiseTaskLists+0x78>)
    1862:	4a06      	ldr	r2, [pc, #24]	; (187c <prvInitialiseTaskLists+0x68>)
    1864:	601a      	str	r2, [r3, #0]
	pxOverflowDelayedTaskList = &xDelayedTaskList2;
    1866:	4b0a      	ldr	r3, [pc, #40]	; (1890 <prvInitialiseTaskLists+0x7c>)
    1868:	4a05      	ldr	r2, [pc, #20]	; (1880 <prvInitialiseTaskLists+0x6c>)
    186a:	601a      	str	r2, [r3, #0]
}
    186c:	46c0      	nop			; (mov r8, r8)
    186e:	46bd      	mov	sp, r7
    1870:	b002      	add	sp, #8
    1872:	bd80      	pop	{r7, pc}
    1874:	2000380c 	.word	0x2000380c
    1878:	000002c5 	.word	0x000002c5
    187c:	20003870 	.word	0x20003870
    1880:	20003884 	.word	0x20003884
    1884:	200038a0 	.word	0x200038a0
    1888:	200038b4 	.word	0x200038b4
    188c:	20003898 	.word	0x20003898
    1890:	2000389c 	.word	0x2000389c

00001894 <prvCheckTasksWaitingTermination>:
/*-----------------------------------------------------------*/

static void prvCheckTasksWaitingTermination( void )
{
    1894:	b580      	push	{r7, lr}
    1896:	af00      	add	r7, sp, #0

			prvDeleteTCB( pxTCB );
		}
	}
	#endif /* INCLUDE_vTaskDelete */
}
    1898:	46c0      	nop			; (mov r8, r8)
    189a:	46bd      	mov	sp, r7
    189c:	bd80      	pop	{r7, pc}
	...

000018a0 <prvResetNextTaskUnblockTime>:

#endif /* INCLUDE_vTaskDelete */
/*-----------------------------------------------------------*/

static void prvResetNextTaskUnblockTime( void )
{
    18a0:	b580      	push	{r7, lr}
    18a2:	b082      	sub	sp, #8
    18a4:	af00      	add	r7, sp, #0
TCB_t *pxTCB;

	if( listLIST_IS_EMPTY( pxDelayedTaskList ) != pdFALSE )
    18a6:	4b0b      	ldr	r3, [pc, #44]	; (18d4 <prvResetNextTaskUnblockTime+0x34>)
    18a8:	681b      	ldr	r3, [r3, #0]
    18aa:	681b      	ldr	r3, [r3, #0]
    18ac:	2b00      	cmp	r3, #0
    18ae:	d104      	bne.n	18ba <prvResetNextTaskUnblockTime+0x1a>
	{
		/* The new current delayed list is empty.  Set xNextTaskUnblockTime to
		the maximum possible value so it is	extremely unlikely that the
		if( xTickCount >= xNextTaskUnblockTime ) test will pass until
		there is an item in the delayed list. */
		xNextTaskUnblockTime = portMAX_DELAY;
    18b0:	4b09      	ldr	r3, [pc, #36]	; (18d8 <prvResetNextTaskUnblockTime+0x38>)
    18b2:	2201      	movs	r2, #1
    18b4:	4252      	negs	r2, r2
    18b6:	601a      	str	r2, [r3, #0]
		which the task at the head of the delayed list should be removed
		from the Blocked state. */
		( pxTCB ) = listGET_OWNER_OF_HEAD_ENTRY( pxDelayedTaskList ); /*lint !e9079 void * is used as this macro is used with timers and co-routines too.  Alignment is known to be fine as the type of the pointer stored and retrieved is the same. */
		xNextTaskUnblockTime = listGET_LIST_ITEM_VALUE( &( ( pxTCB )->xStateListItem ) );
	}
}
    18b8:	e008      	b.n	18cc <prvResetNextTaskUnblockTime+0x2c>
		( pxTCB ) = listGET_OWNER_OF_HEAD_ENTRY( pxDelayedTaskList ); /*lint !e9079 void * is used as this macro is used with timers and co-routines too.  Alignment is known to be fine as the type of the pointer stored and retrieved is the same. */
    18ba:	4b06      	ldr	r3, [pc, #24]	; (18d4 <prvResetNextTaskUnblockTime+0x34>)
    18bc:	681b      	ldr	r3, [r3, #0]
    18be:	68db      	ldr	r3, [r3, #12]
    18c0:	68db      	ldr	r3, [r3, #12]
    18c2:	607b      	str	r3, [r7, #4]
		xNextTaskUnblockTime = listGET_LIST_ITEM_VALUE( &( ( pxTCB )->xStateListItem ) );
    18c4:	687b      	ldr	r3, [r7, #4]
    18c6:	685a      	ldr	r2, [r3, #4]
    18c8:	4b03      	ldr	r3, [pc, #12]	; (18d8 <prvResetNextTaskUnblockTime+0x38>)
    18ca:	601a      	str	r2, [r3, #0]
}
    18cc:	46c0      	nop			; (mov r8, r8)
    18ce:	46bd      	mov	sp, r7
    18d0:	b002      	add	sp, #8
    18d2:	bd80      	pop	{r7, pc}
    18d4:	20003898 	.word	0x20003898
    18d8:	200038e8 	.word	0x200038e8

000018dc <prvAddCurrentTaskToDelayedList>:
	}
#endif
/*-----------------------------------------------------------*/

static void prvAddCurrentTaskToDelayedList( TickType_t xTicksToWait, const BaseType_t xCanBlockIndefinitely )
{
    18dc:	b580      	push	{r7, lr}
    18de:	b084      	sub	sp, #16
    18e0:	af00      	add	r7, sp, #0
    18e2:	6078      	str	r0, [r7, #4]
    18e4:	6039      	str	r1, [r7, #0]
TickType_t xTimeToWake;
const TickType_t xConstTickCount = xTickCount;
    18e6:	4b21      	ldr	r3, [pc, #132]	; (196c <prvAddCurrentTaskToDelayedList+0x90>)
    18e8:	681b      	ldr	r3, [r3, #0]
    18ea:	60fb      	str	r3, [r7, #12]
	}
	#endif

	/* Remove the task from the ready list before adding it to the blocked list
	as the same list item is used for both lists. */
	if( uxListRemove( &( pxCurrentTCB->xStateListItem ) ) == ( UBaseType_t ) 0 )
    18ec:	4b20      	ldr	r3, [pc, #128]	; (1970 <prvAddCurrentTaskToDelayedList+0x94>)
    18ee:	681b      	ldr	r3, [r3, #0]
    18f0:	3304      	adds	r3, #4
    18f2:	0018      	movs	r0, r3
    18f4:	4b1f      	ldr	r3, [pc, #124]	; (1974 <prvAddCurrentTaskToDelayedList+0x98>)
    18f6:	4798      	blx	r3
		mtCOVERAGE_TEST_MARKER();
	}

	#if ( INCLUDE_vTaskSuspend == 1 )
	{
		if( ( xTicksToWait == portMAX_DELAY ) && ( xCanBlockIndefinitely != pdFALSE ) )
    18f8:	687b      	ldr	r3, [r7, #4]
    18fa:	3301      	adds	r3, #1
    18fc:	d10b      	bne.n	1916 <prvAddCurrentTaskToDelayedList+0x3a>
    18fe:	683b      	ldr	r3, [r7, #0]
    1900:	2b00      	cmp	r3, #0
    1902:	d008      	beq.n	1916 <prvAddCurrentTaskToDelayedList+0x3a>
		{
			/* Add the task to the suspended task list instead of a delayed task
			list to ensure it is not woken by a timing event.  It will block
			indefinitely. */
			vListInsertEnd( &xSuspendedTaskList, &( pxCurrentTCB->xStateListItem ) );
    1904:	4b1a      	ldr	r3, [pc, #104]	; (1970 <prvAddCurrentTaskToDelayedList+0x94>)
    1906:	681b      	ldr	r3, [r3, #0]
    1908:	1d1a      	adds	r2, r3, #4
    190a:	4b1b      	ldr	r3, [pc, #108]	; (1978 <prvAddCurrentTaskToDelayedList+0x9c>)
    190c:	0011      	movs	r1, r2
    190e:	0018      	movs	r0, r3
    1910:	4b1a      	ldr	r3, [pc, #104]	; (197c <prvAddCurrentTaskToDelayedList+0xa0>)
    1912:	4798      	blx	r3

		/* Avoid compiler warning when INCLUDE_vTaskSuspend is not 1. */
		( void ) xCanBlockIndefinitely;
	}
	#endif /* INCLUDE_vTaskSuspend */
}
    1914:	e026      	b.n	1964 <prvAddCurrentTaskToDelayedList+0x88>
			xTimeToWake = xConstTickCount + xTicksToWait;
    1916:	68fa      	ldr	r2, [r7, #12]
    1918:	687b      	ldr	r3, [r7, #4]
    191a:	18d3      	adds	r3, r2, r3
    191c:	60bb      	str	r3, [r7, #8]
			listSET_LIST_ITEM_VALUE( &( pxCurrentTCB->xStateListItem ), xTimeToWake );
    191e:	4b14      	ldr	r3, [pc, #80]	; (1970 <prvAddCurrentTaskToDelayedList+0x94>)
    1920:	681b      	ldr	r3, [r3, #0]
    1922:	68ba      	ldr	r2, [r7, #8]
    1924:	605a      	str	r2, [r3, #4]
			if( xTimeToWake < xConstTickCount )
    1926:	68ba      	ldr	r2, [r7, #8]
    1928:	68fb      	ldr	r3, [r7, #12]
    192a:	429a      	cmp	r2, r3
    192c:	d209      	bcs.n	1942 <prvAddCurrentTaskToDelayedList+0x66>
				vListInsert( pxOverflowDelayedTaskList, &( pxCurrentTCB->xStateListItem ) );
    192e:	4b14      	ldr	r3, [pc, #80]	; (1980 <prvAddCurrentTaskToDelayedList+0xa4>)
    1930:	681a      	ldr	r2, [r3, #0]
    1932:	4b0f      	ldr	r3, [pc, #60]	; (1970 <prvAddCurrentTaskToDelayedList+0x94>)
    1934:	681b      	ldr	r3, [r3, #0]
    1936:	3304      	adds	r3, #4
    1938:	0019      	movs	r1, r3
    193a:	0010      	movs	r0, r2
    193c:	4b11      	ldr	r3, [pc, #68]	; (1984 <prvAddCurrentTaskToDelayedList+0xa8>)
    193e:	4798      	blx	r3
}
    1940:	e010      	b.n	1964 <prvAddCurrentTaskToDelayedList+0x88>
				vListInsert( pxDelayedTaskList, &( pxCurrentTCB->xStateListItem ) );
    1942:	4b11      	ldr	r3, [pc, #68]	; (1988 <prvAddCurrentTaskToDelayedList+0xac>)
    1944:	681a      	ldr	r2, [r3, #0]
    1946:	4b0a      	ldr	r3, [pc, #40]	; (1970 <prvAddCurrentTaskToDelayedList+0x94>)
    1948:	681b      	ldr	r3, [r3, #0]
    194a:	3304      	adds	r3, #4
    194c:	0019      	movs	r1, r3
    194e:	0010      	movs	r0, r2
    1950:	4b0c      	ldr	r3, [pc, #48]	; (1984 <prvAddCurrentTaskToDelayedList+0xa8>)
    1952:	4798      	blx	r3
				if( xTimeToWake < xNextTaskUnblockTime )
    1954:	4b0d      	ldr	r3, [pc, #52]	; (198c <prvAddCurrentTaskToDelayedList+0xb0>)
    1956:	681b      	ldr	r3, [r3, #0]
    1958:	68ba      	ldr	r2, [r7, #8]
    195a:	429a      	cmp	r2, r3
    195c:	d202      	bcs.n	1964 <prvAddCurrentTaskToDelayedList+0x88>
					xNextTaskUnblockTime = xTimeToWake;
    195e:	4b0b      	ldr	r3, [pc, #44]	; (198c <prvAddCurrentTaskToDelayedList+0xb0>)
    1960:	68ba      	ldr	r2, [r7, #8]
    1962:	601a      	str	r2, [r3, #0]
}
    1964:	46c0      	nop			; (mov r8, r8)
    1966:	46bd      	mov	sp, r7
    1968:	b004      	add	sp, #16
    196a:	bd80      	pop	{r7, pc}
    196c:	200038cc 	.word	0x200038cc
    1970:	20003808 	.word	0x20003808
    1974:	000003c7 	.word	0x000003c7
    1978:	200038b4 	.word	0x200038b4
    197c:	00000317 	.word	0x00000317
    1980:	2000389c 	.word	0x2000389c
    1984:	0000035b 	.word	0x0000035b
    1988:	20003898 	.word	0x20003898
    198c:	200038e8 	.word	0x200038e8

00001990 <_read>:
int __attribute__((weak))
_read (int file, char * ptr, int len); // Remove GCC compiler warning

int __attribute__((weak))
_read (int file, char * ptr, int len)
{
    1990:	b580      	push	{r7, lr}
    1992:	b086      	sub	sp, #24
    1994:	af00      	add	r7, sp, #0
    1996:	60f8      	str	r0, [r7, #12]
    1998:	60b9      	str	r1, [r7, #8]
    199a:	607a      	str	r2, [r7, #4]
	int nChars = 0;
    199c:	2300      	movs	r3, #0
    199e:	617b      	str	r3, [r7, #20]

	if (file != 0) {
    19a0:	68fb      	ldr	r3, [r7, #12]
    19a2:	2b00      	cmp	r3, #0
    19a4:	d012      	beq.n	19cc <_read+0x3c>
		return -1;
    19a6:	2301      	movs	r3, #1
    19a8:	425b      	negs	r3, r3
    19aa:	e013      	b.n	19d4 <_read+0x44>
	}

	for (; len > 0; --len) {
		ptr_get(stdio_base, ptr);
    19ac:	4b0b      	ldr	r3, [pc, #44]	; (19dc <_read+0x4c>)
    19ae:	681a      	ldr	r2, [r3, #0]
    19b0:	4b0b      	ldr	r3, [pc, #44]	; (19e0 <_read+0x50>)
    19b2:	681b      	ldr	r3, [r3, #0]
    19b4:	68b9      	ldr	r1, [r7, #8]
    19b6:	0018      	movs	r0, r3
    19b8:	4790      	blx	r2
		ptr++;
    19ba:	68bb      	ldr	r3, [r7, #8]
    19bc:	3301      	adds	r3, #1
    19be:	60bb      	str	r3, [r7, #8]
		nChars++;
    19c0:	697b      	ldr	r3, [r7, #20]
    19c2:	3301      	adds	r3, #1
    19c4:	617b      	str	r3, [r7, #20]
	for (; len > 0; --len) {
    19c6:	687b      	ldr	r3, [r7, #4]
    19c8:	3b01      	subs	r3, #1
    19ca:	607b      	str	r3, [r7, #4]
    19cc:	687b      	ldr	r3, [r7, #4]
    19ce:	2b00      	cmp	r3, #0
    19d0:	dcec      	bgt.n	19ac <_read+0x1c>
	}
	return nChars;
    19d2:	697b      	ldr	r3, [r7, #20]
}
    19d4:	0018      	movs	r0, r3
    19d6:	46bd      	mov	sp, r7
    19d8:	b006      	add	sp, #24
    19da:	bd80      	pop	{r7, pc}
    19dc:	20003990 	.word	0x20003990
    19e0:	20003998 	.word	0x20003998

000019e4 <_write>:
int __attribute__((weak))
_write (int file, char * ptr, int len);

int __attribute__((weak))
_write (int file, char * ptr, int len)
{
    19e4:	b580      	push	{r7, lr}
    19e6:	b086      	sub	sp, #24
    19e8:	af00      	add	r7, sp, #0
    19ea:	60f8      	str	r0, [r7, #12]
    19ec:	60b9      	str	r1, [r7, #8]
    19ee:	607a      	str	r2, [r7, #4]
	int nChars = 0;
    19f0:	2300      	movs	r3, #0
    19f2:	617b      	str	r3, [r7, #20]

	if ((file != 1) && (file != 2) && (file!=3)) {
    19f4:	68fb      	ldr	r3, [r7, #12]
    19f6:	2b01      	cmp	r3, #1
    19f8:	d01d      	beq.n	1a36 <_write+0x52>
    19fa:	68fb      	ldr	r3, [r7, #12]
    19fc:	2b02      	cmp	r3, #2
    19fe:	d01a      	beq.n	1a36 <_write+0x52>
    1a00:	68fb      	ldr	r3, [r7, #12]
    1a02:	2b03      	cmp	r3, #3
    1a04:	d017      	beq.n	1a36 <_write+0x52>
		return -1;
    1a06:	2301      	movs	r3, #1
    1a08:	425b      	negs	r3, r3
    1a0a:	e018      	b.n	1a3e <_write+0x5a>
	}

	for (; len != 0; --len) {
		if (ptr_put(stdio_base, *ptr++) < 0) {
    1a0c:	4b0e      	ldr	r3, [pc, #56]	; (1a48 <_write+0x64>)
    1a0e:	681a      	ldr	r2, [r3, #0]
    1a10:	4b0e      	ldr	r3, [pc, #56]	; (1a4c <_write+0x68>)
    1a12:	6818      	ldr	r0, [r3, #0]
    1a14:	68bb      	ldr	r3, [r7, #8]
    1a16:	1c59      	adds	r1, r3, #1
    1a18:	60b9      	str	r1, [r7, #8]
    1a1a:	781b      	ldrb	r3, [r3, #0]
    1a1c:	0019      	movs	r1, r3
    1a1e:	4790      	blx	r2
    1a20:	1e03      	subs	r3, r0, #0
    1a22:	da02      	bge.n	1a2a <_write+0x46>
			return -1;
    1a24:	2301      	movs	r3, #1
    1a26:	425b      	negs	r3, r3
    1a28:	e009      	b.n	1a3e <_write+0x5a>
		}
		++nChars;
    1a2a:	697b      	ldr	r3, [r7, #20]
    1a2c:	3301      	adds	r3, #1
    1a2e:	617b      	str	r3, [r7, #20]
	for (; len != 0; --len) {
    1a30:	687b      	ldr	r3, [r7, #4]
    1a32:	3b01      	subs	r3, #1
    1a34:	607b      	str	r3, [r7, #4]
    1a36:	687b      	ldr	r3, [r7, #4]
    1a38:	2b00      	cmp	r3, #0
    1a3a:	d1e7      	bne.n	1a0c <_write+0x28>
	}
	return nChars;
    1a3c:	697b      	ldr	r3, [r7, #20]
}
    1a3e:	0018      	movs	r0, r3
    1a40:	46bd      	mov	sp, r7
    1a42:	b006      	add	sp, #24
    1a44:	bd80      	pop	{r7, pc}
    1a46:	46c0      	nop			; (mov r8, r8)
    1a48:	20003994 	.word	0x20003994
    1a4c:	20003998 	.word	0x20003998

00001a50 <system_interrupt_enable>:
 *
 * \param[in] vector Interrupt vector to enable
 */
static inline void system_interrupt_enable(
		const enum system_interrupt_vector vector)
{
    1a50:	b580      	push	{r7, lr}
    1a52:	b082      	sub	sp, #8
    1a54:	af00      	add	r7, sp, #0
    1a56:	0002      	movs	r2, r0
    1a58:	1dfb      	adds	r3, r7, #7
    1a5a:	701a      	strb	r2, [r3, #0]
	NVIC->ISER[0] = (uint32_t)(1 << ((uint32_t)vector & 0x0000001f));
    1a5c:	4b06      	ldr	r3, [pc, #24]	; (1a78 <system_interrupt_enable+0x28>)
    1a5e:	1dfa      	adds	r2, r7, #7
    1a60:	7812      	ldrb	r2, [r2, #0]
    1a62:	0011      	movs	r1, r2
    1a64:	221f      	movs	r2, #31
    1a66:	400a      	ands	r2, r1
    1a68:	2101      	movs	r1, #1
    1a6a:	4091      	lsls	r1, r2
    1a6c:	000a      	movs	r2, r1
    1a6e:	601a      	str	r2, [r3, #0]
}
    1a70:	46c0      	nop			; (mov r8, r8)
    1a72:	46bd      	mov	sp, r7
    1a74:	b002      	add	sp, #8
    1a76:	bd80      	pop	{r7, pc}
    1a78:	e000e100 	.word	0xe000e100

00001a7c <usart_is_syncing>:
 * \retval false  Peripheral is not busy syncing and can be read/written without
 *                stalling the bus
 */
static inline bool usart_is_syncing(
		const struct usart_module *const module)
{
    1a7c:	b580      	push	{r7, lr}
    1a7e:	b084      	sub	sp, #16
    1a80:	af00      	add	r7, sp, #0
    1a82:	6078      	str	r0, [r7, #4]
	/* Sanity check arguments */
	Assert(module);
	Assert(module->hw);

	SercomUsart *const usart_hw = &(module->hw->USART);
    1a84:	687b      	ldr	r3, [r7, #4]
    1a86:	681b      	ldr	r3, [r3, #0]
    1a88:	60fb      	str	r3, [r7, #12]

#ifdef FEATURE_USART_SYNC_SCHEME_V2
	return (usart_hw->SYNCBUSY.reg);
    1a8a:	68fb      	ldr	r3, [r7, #12]
    1a8c:	69db      	ldr	r3, [r3, #28]
    1a8e:	1e5a      	subs	r2, r3, #1
    1a90:	4193      	sbcs	r3, r2
    1a92:	b2db      	uxtb	r3, r3
#else
	return (usart_hw->STATUS.reg & SERCOM_USART_STATUS_SYNCBUSY);
#endif
}
    1a94:	0018      	movs	r0, r3
    1a96:	46bd      	mov	sp, r7
    1a98:	b004      	add	sp, #16
    1a9a:	bd80      	pop	{r7, pc}

00001a9c <_usart_wait_for_sync>:
 * \internal
 * Waits until synchronization is complete
 */
static inline void _usart_wait_for_sync(
		const struct usart_module *const module)
{
    1a9c:	b580      	push	{r7, lr}
    1a9e:	b082      	sub	sp, #8
    1aa0:	af00      	add	r7, sp, #0
    1aa2:	6078      	str	r0, [r7, #4]
	/* Sanity check */
	Assert(module);

	while (usart_is_syncing(module)) {
    1aa4:	46c0      	nop			; (mov r8, r8)
    1aa6:	687b      	ldr	r3, [r7, #4]
    1aa8:	0018      	movs	r0, r3
    1aaa:	4b04      	ldr	r3, [pc, #16]	; (1abc <_usart_wait_for_sync+0x20>)
    1aac:	4798      	blx	r3
    1aae:	1e03      	subs	r3, r0, #0
    1ab0:	d1f9      	bne.n	1aa6 <_usart_wait_for_sync+0xa>
		/* Wait until the synchronization is complete */
	}
}
    1ab2:	46c0      	nop			; (mov r8, r8)
    1ab4:	46bd      	mov	sp, r7
    1ab6:	b002      	add	sp, #8
    1ab8:	bd80      	pop	{r7, pc}
    1aba:	46c0      	nop			; (mov r8, r8)
    1abc:	00001a7d 	.word	0x00001a7d

00001ac0 <usart_get_config_defaults>:
 *
 * \param[in,out] config  Pointer to configuration struct
 */
static inline void usart_get_config_defaults(
		struct usart_config *const config)
{
    1ac0:	b580      	push	{r7, lr}
    1ac2:	b082      	sub	sp, #8
    1ac4:	af00      	add	r7, sp, #0
    1ac6:	6078      	str	r0, [r7, #4]
	/* Sanity check arguments */
	Assert(config);

	/* Set default config in the config struct */
	config->data_order       = USART_DATAORDER_LSB;
    1ac8:	687b      	ldr	r3, [r7, #4]
    1aca:	2280      	movs	r2, #128	; 0x80
    1acc:	05d2      	lsls	r2, r2, #23
    1ace:	601a      	str	r2, [r3, #0]
	config->transfer_mode    = USART_TRANSFER_ASYNCHRONOUSLY;
    1ad0:	687b      	ldr	r3, [r7, #4]
    1ad2:	2200      	movs	r2, #0
    1ad4:	605a      	str	r2, [r3, #4]
	config->parity           = USART_PARITY_NONE;
    1ad6:	687b      	ldr	r3, [r7, #4]
    1ad8:	22ff      	movs	r2, #255	; 0xff
    1ada:	811a      	strh	r2, [r3, #8]
	config->stopbits         = USART_STOPBITS_1;
    1adc:	687b      	ldr	r3, [r7, #4]
    1ade:	2200      	movs	r2, #0
    1ae0:	729a      	strb	r2, [r3, #10]
	config->character_size   = USART_CHARACTER_SIZE_8BIT;
    1ae2:	687b      	ldr	r3, [r7, #4]
    1ae4:	2200      	movs	r2, #0
    1ae6:	72da      	strb	r2, [r3, #11]
	config->baudrate         = 9600;
    1ae8:	687b      	ldr	r3, [r7, #4]
    1aea:	2296      	movs	r2, #150	; 0x96
    1aec:	0192      	lsls	r2, r2, #6
    1aee:	63da      	str	r2, [r3, #60]	; 0x3c
	config->receiver_enable  = true;
    1af0:	687b      	ldr	r3, [r7, #4]
    1af2:	2240      	movs	r2, #64	; 0x40
    1af4:	2101      	movs	r1, #1
    1af6:	5499      	strb	r1, [r3, r2]
	config->transmitter_enable = true;
    1af8:	687b      	ldr	r3, [r7, #4]
    1afa:	2241      	movs	r2, #65	; 0x41
    1afc:	2101      	movs	r1, #1
    1afe:	5499      	strb	r1, [r3, r2]
	config->clock_polarity_inverted = false;
    1b00:	687b      	ldr	r3, [r7, #4]
    1b02:	2242      	movs	r2, #66	; 0x42
    1b04:	2100      	movs	r1, #0
    1b06:	5499      	strb	r1, [r3, r2]
	config->use_external_clock = false;
    1b08:	687b      	ldr	r3, [r7, #4]
    1b0a:	2243      	movs	r2, #67	; 0x43
    1b0c:	2100      	movs	r1, #0
    1b0e:	5499      	strb	r1, [r3, r2]
	config->ext_clock_freq   = 0;
    1b10:	687b      	ldr	r3, [r7, #4]
    1b12:	2200      	movs	r2, #0
    1b14:	645a      	str	r2, [r3, #68]	; 0x44
	config->mux_setting      = USART_RX_1_TX_2_XCK_3;
    1b16:	687b      	ldr	r3, [r7, #4]
    1b18:	2288      	movs	r2, #136	; 0x88
    1b1a:	0352      	lsls	r2, r2, #13
    1b1c:	60da      	str	r2, [r3, #12]
	config->run_in_standby   = false;
    1b1e:	687b      	ldr	r3, [r7, #4]
    1b20:	2248      	movs	r2, #72	; 0x48
    1b22:	2100      	movs	r1, #0
    1b24:	5499      	strb	r1, [r3, r2]
	config->generator_source = GCLK_GENERATOR_0;
    1b26:	687b      	ldr	r3, [r7, #4]
    1b28:	2249      	movs	r2, #73	; 0x49
    1b2a:	2100      	movs	r1, #0
    1b2c:	5499      	strb	r1, [r3, r2]
	config->pinmux_pad0      = PINMUX_DEFAULT;
    1b2e:	687b      	ldr	r3, [r7, #4]
    1b30:	2200      	movs	r2, #0
    1b32:	64da      	str	r2, [r3, #76]	; 0x4c
	config->pinmux_pad1      = PINMUX_DEFAULT;
    1b34:	687b      	ldr	r3, [r7, #4]
    1b36:	2200      	movs	r2, #0
    1b38:	651a      	str	r2, [r3, #80]	; 0x50
	config->pinmux_pad2      = PINMUX_DEFAULT;
    1b3a:	687b      	ldr	r3, [r7, #4]
    1b3c:	2200      	movs	r2, #0
    1b3e:	655a      	str	r2, [r3, #84]	; 0x54
	config->pinmux_pad3      = PINMUX_DEFAULT;
    1b40:	687b      	ldr	r3, [r7, #4]
    1b42:	2200      	movs	r2, #0
    1b44:	659a      	str	r2, [r3, #88]	; 0x58
#ifdef FEATURE_USART_OVER_SAMPLE
	config->sample_adjustment     = USART_SAMPLE_ADJUSTMENT_7_8_9;
    1b46:	687b      	ldr	r3, [r7, #4]
    1b48:	2200      	movs	r2, #0
    1b4a:	615a      	str	r2, [r3, #20]
	config->sample_rate           = USART_SAMPLE_RATE_16X_ARITHMETIC;
    1b4c:	687b      	ldr	r3, [r7, #4]
    1b4e:	2200      	movs	r2, #0
    1b50:	821a      	strh	r2, [r3, #16]
#endif
#ifdef FEATURE_USART_LIN_SLAVE
	config->lin_slave_enable      = false;
    1b52:	687b      	ldr	r3, [r7, #4]
    1b54:	2200      	movs	r2, #0
    1b56:	76da      	strb	r2, [r3, #27]
	config->lin_header_delay = LIN_MASTER_HEADER_DELAY_0;
	config->lin_break_length = LIN_MASTER_BREAK_LENGTH_13_BIT;
#endif

#ifdef FEATURE_USART_IMMEDIATE_BUFFER_OVERFLOW_NOTIFICATION
	config->immediate_buffer_overflow_notification  = false;
    1b58:	687b      	ldr	r3, [r7, #4]
    1b5a:	2200      	movs	r2, #0
    1b5c:	761a      	strb	r2, [r3, #24]
#endif
#ifdef FEATURE_USART_START_FRAME_DECTION
	config->start_frame_detection_enable            = false;
    1b5e:	687b      	ldr	r3, [r7, #4]
    1b60:	2200      	movs	r2, #0
    1b62:	771a      	strb	r2, [r3, #28]
#endif
#ifdef FEATURE_USART_IRDA
	config->encoding_format_enable                  = false;
    1b64:	687b      	ldr	r3, [r7, #4]
    1b66:	2200      	movs	r2, #0
    1b68:	765a      	strb	r2, [r3, #25]
	config->receive_pulse_length                    = 19;
    1b6a:	687b      	ldr	r3, [r7, #4]
    1b6c:	2213      	movs	r2, #19
    1b6e:	769a      	strb	r2, [r3, #26]
#endif
#ifdef FEATURE_USART_ISO7816
	config->iso7816_config.enabled                  = false;
    1b70:	687b      	ldr	r3, [r7, #4]
    1b72:	2220      	movs	r2, #32
    1b74:	2100      	movs	r1, #0
    1b76:	5499      	strb	r1, [r3, r2]
	config->iso7816_config.guard_time               = ISO7816_GUARD_TIME_2_BIT;
    1b78:	687b      	ldr	r3, [r7, #4]
    1b7a:	2229      	movs	r2, #41	; 0x29
    1b7c:	2102      	movs	r1, #2
    1b7e:	5499      	strb	r1, [r3, r2]
	config->iso7816_config.protocol_t               = ISO7816_PROTOCOL_T_0;
    1b80:	687b      	ldr	r3, [r7, #4]
    1b82:	2280      	movs	r2, #128	; 0x80
    1b84:	0552      	lsls	r2, r2, #21
    1b86:	625a      	str	r2, [r3, #36]	; 0x24
	config->iso7816_config.enable_inverse           = false;
    1b88:	687b      	ldr	r3, [r7, #4]
    1b8a:	2228      	movs	r2, #40	; 0x28
    1b8c:	2100      	movs	r1, #0
    1b8e:	5499      	strb	r1, [r3, r2]
	config->iso7816_config.inhibit_nack             = ISO7816_INHIBIT_NACK_DISABLE;
    1b90:	687b      	ldr	r3, [r7, #4]
    1b92:	2200      	movs	r2, #0
    1b94:	62da      	str	r2, [r3, #44]	; 0x2c
	config->iso7816_config.successive_recv_nack     = ISO7816_SUCCESSIVE_RECV_NACK_DISABLE;
    1b96:	687b      	ldr	r3, [r7, #4]
    1b98:	2200      	movs	r2, #0
    1b9a:	631a      	str	r2, [r3, #48]	; 0x30
	config->iso7816_config.max_iterations           = 7;
    1b9c:	687b      	ldr	r3, [r7, #4]
    1b9e:	2207      	movs	r2, #7
    1ba0:	635a      	str	r2, [r3, #52]	; 0x34
#endif
#ifdef FEATURE_USART_COLLISION_DECTION
	config->collision_detection_enable              = false;
    1ba2:	687b      	ldr	r3, [r7, #4]
    1ba4:	2239      	movs	r2, #57	; 0x39
    1ba6:	2100      	movs	r1, #0
    1ba8:	5499      	strb	r1, [r3, r2]
#endif
#ifdef FEATURE_USART_RS485
	config->rs485_guard_time = RS485_GUARD_TIME_0_BIT;
    1baa:	687b      	ldr	r3, [r7, #4]
    1bac:	2238      	movs	r2, #56	; 0x38
    1bae:	2100      	movs	r1, #0
    1bb0:	5499      	strb	r1, [r3, r2]
#endif
}
    1bb2:	46c0      	nop			; (mov r8, r8)
    1bb4:	46bd      	mov	sp, r7
    1bb6:	b002      	add	sp, #8
    1bb8:	bd80      	pop	{r7, pc}
	...

00001bbc <usart_enable>:
 *
 * \param[in]  module  Pointer to USART software instance struct
 */
static inline void usart_enable(
		const struct usart_module *const module)
{
    1bbc:	b580      	push	{r7, lr}
    1bbe:	b084      	sub	sp, #16
    1bc0:	af00      	add	r7, sp, #0
    1bc2:	6078      	str	r0, [r7, #4]
	/* Sanity check arguments */
	Assert(module);
	Assert(module->hw);

	/* Get a pointer to the hardware module instance */
	SercomUsart *const usart_hw = &(module->hw->USART);
    1bc4:	687b      	ldr	r3, [r7, #4]
    1bc6:	681b      	ldr	r3, [r3, #0]
    1bc8:	60fb      	str	r3, [r7, #12]

#if USART_CALLBACK_MODE == true
	/* Enable Global interrupt for module */
	system_interrupt_enable(_sercom_get_interrupt_vector(module->hw));
    1bca:	687b      	ldr	r3, [r7, #4]
    1bcc:	681b      	ldr	r3, [r3, #0]
    1bce:	0018      	movs	r0, r3
    1bd0:	4b0b      	ldr	r3, [pc, #44]	; (1c00 <usart_enable+0x44>)
    1bd2:	4798      	blx	r3
    1bd4:	0003      	movs	r3, r0
    1bd6:	0018      	movs	r0, r3
    1bd8:	4b0a      	ldr	r3, [pc, #40]	; (1c04 <usart_enable+0x48>)
    1bda:	4798      	blx	r3
#endif

	/* Wait until synchronization is complete */
	_usart_wait_for_sync(module);
    1bdc:	687b      	ldr	r3, [r7, #4]
    1bde:	0018      	movs	r0, r3
    1be0:	4b09      	ldr	r3, [pc, #36]	; (1c08 <usart_enable+0x4c>)
    1be2:	4798      	blx	r3

	/*Enable receive  interrupt*/
	usart_hw->INTENSET.reg = 1u << 2u;
    1be4:	68fb      	ldr	r3, [r7, #12]
    1be6:	2204      	movs	r2, #4
    1be8:	759a      	strb	r2, [r3, #22]

	/* Enable USART module */
	usart_hw->CTRLA.reg |= SERCOM_USART_CTRLA_ENABLE;
    1bea:	68fb      	ldr	r3, [r7, #12]
    1bec:	681b      	ldr	r3, [r3, #0]
    1bee:	2202      	movs	r2, #2
    1bf0:	431a      	orrs	r2, r3
    1bf2:	68fb      	ldr	r3, [r7, #12]
    1bf4:	601a      	str	r2, [r3, #0]
}
    1bf6:	46c0      	nop			; (mov r8, r8)
    1bf8:	46bd      	mov	sp, r7
    1bfa:	b004      	add	sp, #16
    1bfc:	bd80      	pop	{r7, pc}
    1bfe:	46c0      	nop			; (mov r8, r8)
    1c00:	000023e5 	.word	0x000023e5
    1c04:	00001a51 	.word	0x00001a51
    1c08:	00001a9d 	.word	0x00001a9d

00001c0c <usart_serial_init>:
 */
static inline bool usart_serial_init(
		struct usart_module *const module,
		usart_inst_t const hw,
		const struct usart_config *const config)
{
    1c0c:	b580      	push	{r7, lr}
    1c0e:	b084      	sub	sp, #16
    1c10:	af00      	add	r7, sp, #0
    1c12:	60f8      	str	r0, [r7, #12]
    1c14:	60b9      	str	r1, [r7, #8]
    1c16:	607a      	str	r2, [r7, #4]
	if (usart_init(module, hw, config) == STATUS_OK) {
    1c18:	687a      	ldr	r2, [r7, #4]
    1c1a:	68b9      	ldr	r1, [r7, #8]
    1c1c:	68fb      	ldr	r3, [r7, #12]
    1c1e:	0018      	movs	r0, r3
    1c20:	4b05      	ldr	r3, [pc, #20]	; (1c38 <usart_serial_init+0x2c>)
    1c22:	4798      	blx	r3
    1c24:	1e03      	subs	r3, r0, #0
    1c26:	d101      	bne.n	1c2c <usart_serial_init+0x20>
		return true;
    1c28:	2301      	movs	r3, #1
    1c2a:	e000      	b.n	1c2e <usart_serial_init+0x22>
	}
	else {
		return false;
    1c2c:	2300      	movs	r3, #0
	}
}
    1c2e:	0018      	movs	r0, r3
    1c30:	46bd      	mov	sp, r7
    1c32:	b004      	add	sp, #16
    1c34:	bd80      	pop	{r7, pc}
    1c36:	46c0      	nop			; (mov r8, r8)
    1c38:	00002989 	.word	0x00002989

00001c3c <usart_serial_putchar>:
 * \return Status code
 */
static inline enum status_code usart_serial_putchar(
		struct usart_module *const module,
		uint8_t c)
{
    1c3c:	b580      	push	{r7, lr}
    1c3e:	b082      	sub	sp, #8
    1c40:	af00      	add	r7, sp, #0
    1c42:	6078      	str	r0, [r7, #4]
    1c44:	000a      	movs	r2, r1
    1c46:	1cfb      	adds	r3, r7, #3
    1c48:	701a      	strb	r2, [r3, #0]
	while(STATUS_OK !=usart_write_wait(module, c));
    1c4a:	46c0      	nop			; (mov r8, r8)
    1c4c:	1cfb      	adds	r3, r7, #3
    1c4e:	781b      	ldrb	r3, [r3, #0]
    1c50:	b29a      	uxth	r2, r3
    1c52:	687b      	ldr	r3, [r7, #4]
    1c54:	0011      	movs	r1, r2
    1c56:	0018      	movs	r0, r3
    1c58:	4b04      	ldr	r3, [pc, #16]	; (1c6c <usart_serial_putchar+0x30>)
    1c5a:	4798      	blx	r3
    1c5c:	1e03      	subs	r3, r0, #0
    1c5e:	d1f5      	bne.n	1c4c <usart_serial_putchar+0x10>

	return STATUS_OK;
    1c60:	2300      	movs	r3, #0
}
    1c62:	0018      	movs	r0, r3
    1c64:	46bd      	mov	sp, r7
    1c66:	b002      	add	sp, #8
    1c68:	bd80      	pop	{r7, pc}
    1c6a:	46c0      	nop			; (mov r8, r8)
    1c6c:	00002c05 	.word	0x00002c05

00001c70 <usart_serial_getchar>:
 * \param[out]    c       Destination for the read character.
 */
static inline void usart_serial_getchar(
		struct usart_module *const module,
		uint8_t *c)
{
    1c70:	b580      	push	{r7, lr}
    1c72:	b084      	sub	sp, #16
    1c74:	af00      	add	r7, sp, #0
    1c76:	6078      	str	r0, [r7, #4]
    1c78:	6039      	str	r1, [r7, #0]
	uint16_t temp = 0;
    1c7a:	230e      	movs	r3, #14
    1c7c:	18fb      	adds	r3, r7, r3
    1c7e:	2200      	movs	r2, #0
    1c80:	801a      	strh	r2, [r3, #0]

	while(STATUS_OK != usart_read_wait(module, &temp));
    1c82:	46c0      	nop			; (mov r8, r8)
    1c84:	230e      	movs	r3, #14
    1c86:	18fa      	adds	r2, r7, r3
    1c88:	687b      	ldr	r3, [r7, #4]
    1c8a:	0011      	movs	r1, r2
    1c8c:	0018      	movs	r0, r3
    1c8e:	4b07      	ldr	r3, [pc, #28]	; (1cac <usart_serial_getchar+0x3c>)
    1c90:	4798      	blx	r3
    1c92:	1e03      	subs	r3, r0, #0
    1c94:	d1f6      	bne.n	1c84 <usart_serial_getchar+0x14>

	*c = temp;
    1c96:	230e      	movs	r3, #14
    1c98:	18fb      	adds	r3, r7, r3
    1c9a:	881b      	ldrh	r3, [r3, #0]
    1c9c:	b2da      	uxtb	r2, r3
    1c9e:	683b      	ldr	r3, [r7, #0]
    1ca0:	701a      	strb	r2, [r3, #0]
}
    1ca2:	46c0      	nop			; (mov r8, r8)
    1ca4:	46bd      	mov	sp, r7
    1ca6:	b004      	add	sp, #16
    1ca8:	bd80      	pop	{r7, pc}
    1caa:	46c0      	nop			; (mov r8, r8)
    1cac:	00002c69 	.word	0x00002c69

00001cb0 <stdio_serial_init>:
 */
static inline void stdio_serial_init(
		struct usart_module *const module,
		usart_inst_t const hw,
		const struct usart_config *const config)
{
    1cb0:	b580      	push	{r7, lr}
    1cb2:	b084      	sub	sp, #16
    1cb4:	af00      	add	r7, sp, #0
    1cb6:	60f8      	str	r0, [r7, #12]
    1cb8:	60b9      	str	r1, [r7, #8]
    1cba:	607a      	str	r2, [r7, #4]
	stdio_base = (void *)module;
    1cbc:	4b10      	ldr	r3, [pc, #64]	; (1d00 <stdio_serial_init+0x50>)
    1cbe:	68fa      	ldr	r2, [r7, #12]
    1cc0:	601a      	str	r2, [r3, #0]
	ptr_put = (int (*)(void volatile*,char))&usart_serial_putchar;
    1cc2:	4b10      	ldr	r3, [pc, #64]	; (1d04 <stdio_serial_init+0x54>)
    1cc4:	4a10      	ldr	r2, [pc, #64]	; (1d08 <stdio_serial_init+0x58>)
    1cc6:	601a      	str	r2, [r3, #0]
	ptr_get = (void (*)(void volatile*,char*))&usart_serial_getchar;
    1cc8:	4b10      	ldr	r3, [pc, #64]	; (1d0c <stdio_serial_init+0x5c>)
    1cca:	4a11      	ldr	r2, [pc, #68]	; (1d10 <stdio_serial_init+0x60>)
    1ccc:	601a      	str	r2, [r3, #0]

	usart_serial_init(module, hw, config);
    1cce:	687a      	ldr	r2, [r7, #4]
    1cd0:	68b9      	ldr	r1, [r7, #8]
    1cd2:	68fb      	ldr	r3, [r7, #12]
    1cd4:	0018      	movs	r0, r3
    1cd6:	4b0f      	ldr	r3, [pc, #60]	; (1d14 <stdio_serial_init+0x64>)
    1cd8:	4798      	blx	r3
# if defined(__GNUC__)
	// Specify that stdout and stdin should not be buffered.
	setbuf(stdout, NULL);
    1cda:	4b0f      	ldr	r3, [pc, #60]	; (1d18 <stdio_serial_init+0x68>)
    1cdc:	681b      	ldr	r3, [r3, #0]
    1cde:	689b      	ldr	r3, [r3, #8]
    1ce0:	2100      	movs	r1, #0
    1ce2:	0018      	movs	r0, r3
    1ce4:	4b0d      	ldr	r3, [pc, #52]	; (1d1c <stdio_serial_init+0x6c>)
    1ce6:	4798      	blx	r3
	setbuf(stdin, NULL);
    1ce8:	4b0b      	ldr	r3, [pc, #44]	; (1d18 <stdio_serial_init+0x68>)
    1cea:	681b      	ldr	r3, [r3, #0]
    1cec:	685b      	ldr	r3, [r3, #4]
    1cee:	2100      	movs	r1, #0
    1cf0:	0018      	movs	r0, r3
    1cf2:	4b0a      	ldr	r3, [pc, #40]	; (1d1c <stdio_serial_init+0x6c>)
    1cf4:	4798      	blx	r3
	// Note: Already the case in IAR's Normal DLIB default configuration
	// and AVR GCC library:
	// - printf() emits one character at a time.
	// - getchar() requests only 1 byte to exit.
#  endif
}
    1cf6:	46c0      	nop			; (mov r8, r8)
    1cf8:	46bd      	mov	sp, r7
    1cfa:	b004      	add	sp, #16
    1cfc:	bd80      	pop	{r7, pc}
    1cfe:	46c0      	nop			; (mov r8, r8)
    1d00:	20003998 	.word	0x20003998
    1d04:	20003994 	.word	0x20003994
    1d08:	00001c3d 	.word	0x00001c3d
    1d0c:	20003990 	.word	0x20003990
    1d10:	00001c71 	.word	0x00001c71
    1d14:	00001c0d 	.word	0x00001c0d
    1d18:	20000008 	.word	0x20000008
    1d1c:	000043a9 	.word	0x000043a9

00001d20 <configure_console>:

/**
 *  Configure UART console.
 */
 void configure_console(void)
{
    1d20:	b580      	push	{r7, lr}
    1d22:	b098      	sub	sp, #96	; 0x60
    1d24:	af00      	add	r7, sp, #0
	struct usart_config usart_conf;

	usart_get_config_defaults(&usart_conf);
    1d26:	1d3b      	adds	r3, r7, #4
    1d28:	0018      	movs	r0, r3
    1d2a:	4b13      	ldr	r3, [pc, #76]	; (1d78 <configure_console+0x58>)
    1d2c:	4798      	blx	r3
	usart_conf.mux_setting = CONF_STDIO_MUX_SETTING;
    1d2e:	1d3b      	adds	r3, r7, #4
    1d30:	22c4      	movs	r2, #196	; 0xc4
    1d32:	0392      	lsls	r2, r2, #14
    1d34:	60da      	str	r2, [r3, #12]
	usart_conf.pinmux_pad0 = CONF_STDIO_PINMUX_PAD0;
    1d36:	1d3b      	adds	r3, r7, #4
    1d38:	2201      	movs	r2, #1
    1d3a:	4252      	negs	r2, r2
    1d3c:	64da      	str	r2, [r3, #76]	; 0x4c
	usart_conf.pinmux_pad1 = CONF_STDIO_PINMUX_PAD1;
    1d3e:	1d3b      	adds	r3, r7, #4
    1d40:	2201      	movs	r2, #1
    1d42:	4252      	negs	r2, r2
    1d44:	651a      	str	r2, [r3, #80]	; 0x50
	usart_conf.pinmux_pad2 = CONF_STDIO_PINMUX_PAD2;
    1d46:	1d3b      	adds	r3, r7, #4
    1d48:	4a0c      	ldr	r2, [pc, #48]	; (1d7c <configure_console+0x5c>)
    1d4a:	655a      	str	r2, [r3, #84]	; 0x54
	usart_conf.pinmux_pad3 = CONF_STDIO_PINMUX_PAD3;
    1d4c:	1d3b      	adds	r3, r7, #4
    1d4e:	4a0c      	ldr	r2, [pc, #48]	; (1d80 <configure_console+0x60>)
    1d50:	659a      	str	r2, [r3, #88]	; 0x58
	usart_conf.baudrate    = CONF_STDIO_BAUDRATE;
    1d52:	1d3b      	adds	r3, r7, #4
    1d54:	2296      	movs	r2, #150	; 0x96
    1d56:	0212      	lsls	r2, r2, #8
    1d58:	63da      	str	r2, [r3, #60]	; 0x3c

	stdio_serial_init(&cdc_uart_module, CONF_STDIO_USART_MODULE, &usart_conf);
    1d5a:	1d3a      	adds	r2, r7, #4
    1d5c:	4909      	ldr	r1, [pc, #36]	; (1d84 <configure_console+0x64>)
    1d5e:	4b0a      	ldr	r3, [pc, #40]	; (1d88 <configure_console+0x68>)
    1d60:	0018      	movs	r0, r3
    1d62:	4b0a      	ldr	r3, [pc, #40]	; (1d8c <configure_console+0x6c>)
    1d64:	4798      	blx	r3
	usart_enable(&cdc_uart_module);
    1d66:	4b08      	ldr	r3, [pc, #32]	; (1d88 <configure_console+0x68>)
    1d68:	0018      	movs	r0, r3
    1d6a:	4b09      	ldr	r3, [pc, #36]	; (1d90 <configure_console+0x70>)
    1d6c:	4798      	blx	r3
    1d6e:	46c0      	nop			; (mov r8, r8)
    1d70:	46bd      	mov	sp, r7
    1d72:	b018      	add	sp, #96	; 0x60
    1d74:	bd80      	pop	{r7, pc}
    1d76:	46c0      	nop			; (mov r8, r8)
    1d78:	00001ac1 	.word	0x00001ac1
    1d7c:	00580003 	.word	0x00580003
    1d80:	00590003 	.word	0x00590003
    1d84:	42001400 	.word	0x42001400
    1d88:	200038f4 	.word	0x200038f4
    1d8c:	00001cb1 	.word	0x00001cb1
    1d90:	00001bbd 	.word	0x00001bbd

00001d94 <system_gclk_chan_get_config_defaults>:
 *
 * \param[out] config  Configuration structure to initialize to default values
 */
static inline void system_gclk_chan_get_config_defaults(
		struct system_gclk_chan_config *const config)
{
    1d94:	b580      	push	{r7, lr}
    1d96:	b082      	sub	sp, #8
    1d98:	af00      	add	r7, sp, #0
    1d9a:	6078      	str	r0, [r7, #4]
	/* Sanity check arguments */
	Assert(config);

	/* Default configuration values */
	config->source_generator = GCLK_GENERATOR_0;
    1d9c:	687b      	ldr	r3, [r7, #4]
    1d9e:	2200      	movs	r2, #0
    1da0:	701a      	strb	r2, [r3, #0]
}
    1da2:	46c0      	nop			; (mov r8, r8)
    1da4:	46bd      	mov	sp, r7
    1da6:	b002      	add	sp, #8
    1da8:	bd80      	pop	{r7, pc}

00001daa <long_division>:
/**
 * \internal Calculate 64 bit division, ref can be found in
 * http://en.wikipedia.org/wiki/Division_algorithm#Long_division
 */
static uint64_t long_division(uint64_t n, uint64_t d)
{
    1daa:	b5f0      	push	{r4, r5, r6, r7, lr}
    1dac:	b08d      	sub	sp, #52	; 0x34
    1dae:	af00      	add	r7, sp, #0
    1db0:	60b8      	str	r0, [r7, #8]
    1db2:	60f9      	str	r1, [r7, #12]
    1db4:	603a      	str	r2, [r7, #0]
    1db6:	607b      	str	r3, [r7, #4]
	int32_t i;
	uint64_t q = 0, r = 0, bit_shift;
    1db8:	2300      	movs	r3, #0
    1dba:	2400      	movs	r4, #0
    1dbc:	623b      	str	r3, [r7, #32]
    1dbe:	627c      	str	r4, [r7, #36]	; 0x24
    1dc0:	2300      	movs	r3, #0
    1dc2:	2400      	movs	r4, #0
    1dc4:	61bb      	str	r3, [r7, #24]
    1dc6:	61fc      	str	r4, [r7, #28]
	for (i = 63; i >= 0; i--) {
    1dc8:	233f      	movs	r3, #63	; 0x3f
    1dca:	62fb      	str	r3, [r7, #44]	; 0x2c
    1dcc:	e053      	b.n	1e76 <long_division+0xcc>
		bit_shift = (uint64_t)1 << i;
    1dce:	6afb      	ldr	r3, [r7, #44]	; 0x2c
    1dd0:	3b20      	subs	r3, #32
    1dd2:	2b00      	cmp	r3, #0
    1dd4:	db04      	blt.n	1de0 <long_division+0x36>
    1dd6:	2201      	movs	r2, #1
    1dd8:	409a      	lsls	r2, r3
    1dda:	0013      	movs	r3, r2
    1ddc:	617b      	str	r3, [r7, #20]
    1dde:	e00b      	b.n	1df8 <long_division+0x4e>
    1de0:	6afb      	ldr	r3, [r7, #44]	; 0x2c
    1de2:	2220      	movs	r2, #32
    1de4:	1ad3      	subs	r3, r2, r3
    1de6:	2201      	movs	r2, #1
    1de8:	40da      	lsrs	r2, r3
    1dea:	0013      	movs	r3, r2
    1dec:	2100      	movs	r1, #0
    1dee:	6afa      	ldr	r2, [r7, #44]	; 0x2c
    1df0:	4091      	lsls	r1, r2
    1df2:	000a      	movs	r2, r1
    1df4:	4313      	orrs	r3, r2
    1df6:	617b      	str	r3, [r7, #20]
    1df8:	2201      	movs	r2, #1
    1dfa:	6afb      	ldr	r3, [r7, #44]	; 0x2c
    1dfc:	409a      	lsls	r2, r3
    1dfe:	0013      	movs	r3, r2
    1e00:	613b      	str	r3, [r7, #16]

		r = r << 1;
    1e02:	69bb      	ldr	r3, [r7, #24]
    1e04:	69fc      	ldr	r4, [r7, #28]
    1e06:	18db      	adds	r3, r3, r3
    1e08:	4164      	adcs	r4, r4
    1e0a:	61bb      	str	r3, [r7, #24]
    1e0c:	61fc      	str	r4, [r7, #28]

		if (n & bit_shift) {
    1e0e:	68bb      	ldr	r3, [r7, #8]
    1e10:	693a      	ldr	r2, [r7, #16]
    1e12:	401a      	ands	r2, r3
    1e14:	0015      	movs	r5, r2
    1e16:	68fb      	ldr	r3, [r7, #12]
    1e18:	697a      	ldr	r2, [r7, #20]
    1e1a:	401a      	ands	r2, r3
    1e1c:	0016      	movs	r6, r2
    1e1e:	002b      	movs	r3, r5
    1e20:	4333      	orrs	r3, r6
    1e22:	d007      	beq.n	1e34 <long_division+0x8a>
			r |= 0x01;
    1e24:	69bb      	ldr	r3, [r7, #24]
    1e26:	2201      	movs	r2, #1
    1e28:	4313      	orrs	r3, r2
    1e2a:	61bb      	str	r3, [r7, #24]
    1e2c:	69fb      	ldr	r3, [r7, #28]
    1e2e:	2200      	movs	r2, #0
    1e30:	4313      	orrs	r3, r2
    1e32:	61fb      	str	r3, [r7, #28]
		}

		if (r >= d) {
    1e34:	687a      	ldr	r2, [r7, #4]
    1e36:	69fb      	ldr	r3, [r7, #28]
    1e38:	429a      	cmp	r2, r3
    1e3a:	d819      	bhi.n	1e70 <long_division+0xc6>
    1e3c:	687a      	ldr	r2, [r7, #4]
    1e3e:	69fb      	ldr	r3, [r7, #28]
    1e40:	429a      	cmp	r2, r3
    1e42:	d103      	bne.n	1e4c <long_division+0xa2>
    1e44:	683a      	ldr	r2, [r7, #0]
    1e46:	69bb      	ldr	r3, [r7, #24]
    1e48:	429a      	cmp	r2, r3
    1e4a:	d811      	bhi.n	1e70 <long_division+0xc6>
			r = r - d;
    1e4c:	69b9      	ldr	r1, [r7, #24]
    1e4e:	69fa      	ldr	r2, [r7, #28]
    1e50:	683b      	ldr	r3, [r7, #0]
    1e52:	687c      	ldr	r4, [r7, #4]
    1e54:	1ac9      	subs	r1, r1, r3
    1e56:	41a2      	sbcs	r2, r4
    1e58:	000b      	movs	r3, r1
    1e5a:	0014      	movs	r4, r2
    1e5c:	61bb      	str	r3, [r7, #24]
    1e5e:	61fc      	str	r4, [r7, #28]
			q |= bit_shift;
    1e60:	6a3a      	ldr	r2, [r7, #32]
    1e62:	693b      	ldr	r3, [r7, #16]
    1e64:	4313      	orrs	r3, r2
    1e66:	623b      	str	r3, [r7, #32]
    1e68:	6a7a      	ldr	r2, [r7, #36]	; 0x24
    1e6a:	697b      	ldr	r3, [r7, #20]
    1e6c:	4313      	orrs	r3, r2
    1e6e:	627b      	str	r3, [r7, #36]	; 0x24
	for (i = 63; i >= 0; i--) {
    1e70:	6afb      	ldr	r3, [r7, #44]	; 0x2c
    1e72:	3b01      	subs	r3, #1
    1e74:	62fb      	str	r3, [r7, #44]	; 0x2c
    1e76:	6afb      	ldr	r3, [r7, #44]	; 0x2c
    1e78:	2b00      	cmp	r3, #0
    1e7a:	daa8      	bge.n	1dce <long_division+0x24>
		}
	}

	return q;
    1e7c:	6a3b      	ldr	r3, [r7, #32]
    1e7e:	6a7c      	ldr	r4, [r7, #36]	; 0x24
}
    1e80:	0018      	movs	r0, r3
    1e82:	0021      	movs	r1, r4
    1e84:	46bd      	mov	sp, r7
    1e86:	b00d      	add	sp, #52	; 0x34
    1e88:	bdf0      	pop	{r4, r5, r6, r7, pc}

00001e8a <_sercom_get_sync_baud_val>:
 */
enum status_code _sercom_get_sync_baud_val(
		const uint32_t baudrate,
		const uint32_t external_clock,
		uint16_t *const baudvalue)
{
    1e8a:	b580      	push	{r7, lr}
    1e8c:	b086      	sub	sp, #24
    1e8e:	af00      	add	r7, sp, #0
    1e90:	60f8      	str	r0, [r7, #12]
    1e92:	60b9      	str	r1, [r7, #8]
    1e94:	607a      	str	r2, [r7, #4]
	/* Baud value variable */
	uint16_t baud_calculated = 0;
    1e96:	2316      	movs	r3, #22
    1e98:	18fb      	adds	r3, r7, r3
    1e9a:	2200      	movs	r2, #0
    1e9c:	801a      	strh	r2, [r3, #0]
	uint32_t clock_value = external_clock;
    1e9e:	68bb      	ldr	r3, [r7, #8]
    1ea0:	613b      	str	r3, [r7, #16]


	/* Check if baudrate is outside of valid range */
	if (baudrate > (external_clock / 2)) {
    1ea2:	68bb      	ldr	r3, [r7, #8]
    1ea4:	085a      	lsrs	r2, r3, #1
    1ea6:	68fb      	ldr	r3, [r7, #12]
    1ea8:	429a      	cmp	r2, r3
    1eaa:	d201      	bcs.n	1eb0 <_sercom_get_sync_baud_val+0x26>
		/* Return with error code */
		return STATUS_ERR_BAUDRATE_UNAVAILABLE;
    1eac:	2340      	movs	r3, #64	; 0x40
    1eae:	e026      	b.n	1efe <_sercom_get_sync_baud_val+0x74>
	}

	/* Calculate BAUD value from clock frequency and baudrate */
	clock_value = external_clock / 2;
    1eb0:	68bb      	ldr	r3, [r7, #8]
    1eb2:	085b      	lsrs	r3, r3, #1
    1eb4:	613b      	str	r3, [r7, #16]
	while (clock_value >= baudrate) {
    1eb6:	e00a      	b.n	1ece <_sercom_get_sync_baud_val+0x44>
		clock_value = clock_value - baudrate;
    1eb8:	693a      	ldr	r2, [r7, #16]
    1eba:	68fb      	ldr	r3, [r7, #12]
    1ebc:	1ad3      	subs	r3, r2, r3
    1ebe:	613b      	str	r3, [r7, #16]
		baud_calculated++;
    1ec0:	2316      	movs	r3, #22
    1ec2:	18fb      	adds	r3, r7, r3
    1ec4:	881a      	ldrh	r2, [r3, #0]
    1ec6:	2316      	movs	r3, #22
    1ec8:	18fb      	adds	r3, r7, r3
    1eca:	3201      	adds	r2, #1
    1ecc:	801a      	strh	r2, [r3, #0]
	while (clock_value >= baudrate) {
    1ece:	693a      	ldr	r2, [r7, #16]
    1ed0:	68fb      	ldr	r3, [r7, #12]
    1ed2:	429a      	cmp	r2, r3
    1ed4:	d2f0      	bcs.n	1eb8 <_sercom_get_sync_baud_val+0x2e>
	}
	baud_calculated = baud_calculated - 1;
    1ed6:	2316      	movs	r3, #22
    1ed8:	18fb      	adds	r3, r7, r3
    1eda:	2216      	movs	r2, #22
    1edc:	18ba      	adds	r2, r7, r2
    1ede:	8812      	ldrh	r2, [r2, #0]
    1ee0:	3a01      	subs	r2, #1
    1ee2:	801a      	strh	r2, [r3, #0]

	/* Check if BAUD value is more than 255, which is maximum
	 * for synchronous mode */
	if (baud_calculated > 0xFF) {
    1ee4:	2316      	movs	r3, #22
    1ee6:	18fb      	adds	r3, r7, r3
    1ee8:	881b      	ldrh	r3, [r3, #0]
    1eea:	2bff      	cmp	r3, #255	; 0xff
    1eec:	d901      	bls.n	1ef2 <_sercom_get_sync_baud_val+0x68>
		/* Return with an error code */
		return STATUS_ERR_BAUDRATE_UNAVAILABLE;
    1eee:	2340      	movs	r3, #64	; 0x40
    1ef0:	e005      	b.n	1efe <_sercom_get_sync_baud_val+0x74>
	} else {
		*baudvalue = baud_calculated;
    1ef2:	687b      	ldr	r3, [r7, #4]
    1ef4:	2216      	movs	r2, #22
    1ef6:	18ba      	adds	r2, r7, r2
    1ef8:	8812      	ldrh	r2, [r2, #0]
    1efa:	801a      	strh	r2, [r3, #0]
		return STATUS_OK;
    1efc:	2300      	movs	r3, #0
	}
}
    1efe:	0018      	movs	r0, r3
    1f00:	46bd      	mov	sp, r7
    1f02:	b006      	add	sp, #24
    1f04:	bd80      	pop	{r7, pc}
	...

00001f08 <_sercom_get_async_baud_val>:
		const uint32_t baudrate,
		const uint32_t peripheral_clock,
		uint16_t *const baudval,
		enum sercom_asynchronous_operation_mode mode,
		enum sercom_asynchronous_sample_num sample_num)
{
    1f08:	b5f0      	push	{r4, r5, r6, r7, lr}
    1f0a:	b0a1      	sub	sp, #132	; 0x84
    1f0c:	af00      	add	r7, sp, #0
    1f0e:	64f8      	str	r0, [r7, #76]	; 0x4c
    1f10:	64b9      	str	r1, [r7, #72]	; 0x48
    1f12:	647a      	str	r2, [r7, #68]	; 0x44
    1f14:	2243      	movs	r2, #67	; 0x43
    1f16:	18ba      	adds	r2, r7, r2
    1f18:	7013      	strb	r3, [r2, #0]
	/* Temporary variables  */
	uint64_t ratio = 0;
    1f1a:	2300      	movs	r3, #0
    1f1c:	2400      	movs	r4, #0
    1f1e:	673b      	str	r3, [r7, #112]	; 0x70
    1f20:	677c      	str	r4, [r7, #116]	; 0x74
	uint64_t scale = 0;
    1f22:	2300      	movs	r3, #0
    1f24:	2400      	movs	r4, #0
    1f26:	66bb      	str	r3, [r7, #104]	; 0x68
    1f28:	66fc      	str	r4, [r7, #108]	; 0x6c
	uint64_t baud_calculated = 0;
    1f2a:	2300      	movs	r3, #0
    1f2c:	2400      	movs	r4, #0
    1f2e:	67bb      	str	r3, [r7, #120]	; 0x78
    1f30:	67fc      	str	r4, [r7, #124]	; 0x7c
	uint8_t baud_fp;
	uint32_t baud_int = 0;
    1f32:	2300      	movs	r3, #0
    1f34:	667b      	str	r3, [r7, #100]	; 0x64
	uint64_t temp1;

	/* Check if the baudrate is outside of valid range */
	if ((baudrate * sample_num) > peripheral_clock) {
    1f36:	2358      	movs	r3, #88	; 0x58
    1f38:	2240      	movs	r2, #64	; 0x40
    1f3a:	4694      	mov	ip, r2
    1f3c:	44bc      	add	ip, r7
    1f3e:	4463      	add	r3, ip
    1f40:	781a      	ldrb	r2, [r3, #0]
    1f42:	6cfb      	ldr	r3, [r7, #76]	; 0x4c
    1f44:	435a      	muls	r2, r3
    1f46:	6cbb      	ldr	r3, [r7, #72]	; 0x48
    1f48:	429a      	cmp	r2, r3
    1f4a:	d901      	bls.n	1f50 <_sercom_get_async_baud_val+0x48>
		/* Return with error code */
		return STATUS_ERR_BAUDRATE_UNAVAILABLE;
    1f4c:	2340      	movs	r3, #64	; 0x40
    1f4e:	e0b3      	b.n	20b8 <STACK_SIZE+0xb8>
	}

	if(mode == SERCOM_ASYNC_OPERATION_MODE_ARITHMETIC) {
    1f50:	2343      	movs	r3, #67	; 0x43
    1f52:	18fb      	adds	r3, r7, r3
    1f54:	781b      	ldrb	r3, [r3, #0]
    1f56:	2b00      	cmp	r3, #0
    1f58:	d13d      	bne.n	1fd6 <_sercom_get_async_baud_val+0xce>
		/* Calculate the BAUD value */
		temp1 = ((sample_num * (uint64_t)baudrate) << SHIFT);
    1f5a:	2358      	movs	r3, #88	; 0x58
    1f5c:	2240      	movs	r2, #64	; 0x40
    1f5e:	4694      	mov	ip, r2
    1f60:	44bc      	add	ip, r7
    1f62:	4463      	add	r3, ip
    1f64:	781b      	ldrb	r3, [r3, #0]
    1f66:	b2db      	uxtb	r3, r3
    1f68:	613b      	str	r3, [r7, #16]
    1f6a:	2300      	movs	r3, #0
    1f6c:	617b      	str	r3, [r7, #20]
    1f6e:	6cfb      	ldr	r3, [r7, #76]	; 0x4c
    1f70:	60bb      	str	r3, [r7, #8]
    1f72:	2300      	movs	r3, #0
    1f74:	60fb      	str	r3, [r7, #12]
    1f76:	4c52      	ldr	r4, [pc, #328]	; (20c0 <STACK_SIZE+0xc0>)
    1f78:	68ba      	ldr	r2, [r7, #8]
    1f7a:	68fb      	ldr	r3, [r7, #12]
    1f7c:	6938      	ldr	r0, [r7, #16]
    1f7e:	6979      	ldr	r1, [r7, #20]
    1f80:	47a0      	blx	r4
    1f82:	0003      	movs	r3, r0
    1f84:	000c      	movs	r4, r1
    1f86:	001b      	movs	r3, r3
    1f88:	65fb      	str	r3, [r7, #92]	; 0x5c
    1f8a:	2300      	movs	r3, #0
    1f8c:	65bb      	str	r3, [r7, #88]	; 0x58
		ratio = long_division(temp1, peripheral_clock);
    1f8e:	6cbb      	ldr	r3, [r7, #72]	; 0x48
    1f90:	603b      	str	r3, [r7, #0]
    1f92:	2300      	movs	r3, #0
    1f94:	607b      	str	r3, [r7, #4]
    1f96:	6db8      	ldr	r0, [r7, #88]	; 0x58
    1f98:	6df9      	ldr	r1, [r7, #92]	; 0x5c
    1f9a:	683a      	ldr	r2, [r7, #0]
    1f9c:	687b      	ldr	r3, [r7, #4]
    1f9e:	4c49      	ldr	r4, [pc, #292]	; (20c4 <STACK_SIZE+0xc4>)
    1fa0:	47a0      	blx	r4
    1fa2:	0003      	movs	r3, r0
    1fa4:	000c      	movs	r4, r1
    1fa6:	673b      	str	r3, [r7, #112]	; 0x70
    1fa8:	677c      	str	r4, [r7, #116]	; 0x74
		scale = ((uint64_t)1 << SHIFT) - ratio;
    1faa:	2100      	movs	r1, #0
    1fac:	2201      	movs	r2, #1
    1fae:	6f3b      	ldr	r3, [r7, #112]	; 0x70
    1fb0:	6f7c      	ldr	r4, [r7, #116]	; 0x74
    1fb2:	1ac9      	subs	r1, r1, r3
    1fb4:	41a2      	sbcs	r2, r4
    1fb6:	000b      	movs	r3, r1
    1fb8:	0014      	movs	r4, r2
    1fba:	66bb      	str	r3, [r7, #104]	; 0x68
    1fbc:	66fc      	str	r4, [r7, #108]	; 0x6c
		baud_calculated = (65536 * scale) >> SHIFT;
    1fbe:	6ebb      	ldr	r3, [r7, #104]	; 0x68
    1fc0:	0c1b      	lsrs	r3, r3, #16
    1fc2:	6efa      	ldr	r2, [r7, #108]	; 0x6c
    1fc4:	0416      	lsls	r6, r2, #16
    1fc6:	431e      	orrs	r6, r3
    1fc8:	6ebb      	ldr	r3, [r7, #104]	; 0x68
    1fca:	041d      	lsls	r5, r3, #16
    1fcc:	0033      	movs	r3, r6
    1fce:	67bb      	str	r3, [r7, #120]	; 0x78
    1fd0:	2300      	movs	r3, #0
    1fd2:	67fb      	str	r3, [r7, #124]	; 0x7c
    1fd4:	e06a      	b.n	20ac <STACK_SIZE+0xac>
	} else if(mode == SERCOM_ASYNC_OPERATION_MODE_FRACTIONAL) {
    1fd6:	2343      	movs	r3, #67	; 0x43
    1fd8:	18fb      	adds	r3, r7, r3
    1fda:	781b      	ldrb	r3, [r3, #0]
    1fdc:	2b01      	cmp	r3, #1
    1fde:	d165      	bne.n	20ac <STACK_SIZE+0xac>
		temp1 = ((uint64_t)baudrate * sample_num);
    1fe0:	6cfb      	ldr	r3, [r7, #76]	; 0x4c
    1fe2:	633b      	str	r3, [r7, #48]	; 0x30
    1fe4:	2300      	movs	r3, #0
    1fe6:	637b      	str	r3, [r7, #52]	; 0x34
    1fe8:	2358      	movs	r3, #88	; 0x58
    1fea:	2240      	movs	r2, #64	; 0x40
    1fec:	4694      	mov	ip, r2
    1fee:	44bc      	add	ip, r7
    1ff0:	4463      	add	r3, ip
    1ff2:	781b      	ldrb	r3, [r3, #0]
    1ff4:	b2db      	uxtb	r3, r3
    1ff6:	62bb      	str	r3, [r7, #40]	; 0x28
    1ff8:	2300      	movs	r3, #0
    1ffa:	62fb      	str	r3, [r7, #44]	; 0x2c
    1ffc:	4c30      	ldr	r4, [pc, #192]	; (20c0 <STACK_SIZE+0xc0>)
    1ffe:	6aba      	ldr	r2, [r7, #40]	; 0x28
    2000:	6afb      	ldr	r3, [r7, #44]	; 0x2c
    2002:	6b38      	ldr	r0, [r7, #48]	; 0x30
    2004:	6b79      	ldr	r1, [r7, #52]	; 0x34
    2006:	47a0      	blx	r4
    2008:	0003      	movs	r3, r0
    200a:	000c      	movs	r4, r1
    200c:	65bb      	str	r3, [r7, #88]	; 0x58
    200e:	65fc      	str	r4, [r7, #92]	; 0x5c
		baud_int = long_division( peripheral_clock, temp1);
    2010:	6cbb      	ldr	r3, [r7, #72]	; 0x48
    2012:	623b      	str	r3, [r7, #32]
    2014:	2300      	movs	r3, #0
    2016:	627b      	str	r3, [r7, #36]	; 0x24
    2018:	6dbb      	ldr	r3, [r7, #88]	; 0x58
    201a:	6dfc      	ldr	r4, [r7, #92]	; 0x5c
    201c:	001a      	movs	r2, r3
    201e:	0023      	movs	r3, r4
    2020:	6a38      	ldr	r0, [r7, #32]
    2022:	6a79      	ldr	r1, [r7, #36]	; 0x24
    2024:	4c27      	ldr	r4, [pc, #156]	; (20c4 <STACK_SIZE+0xc4>)
    2026:	47a0      	blx	r4
    2028:	0003      	movs	r3, r0
    202a:	000c      	movs	r4, r1
    202c:	667b      	str	r3, [r7, #100]	; 0x64
		if(baud_int > BAUD_INT_MAX) {
    202e:	6e7a      	ldr	r2, [r7, #100]	; 0x64
    2030:	2380      	movs	r3, #128	; 0x80
    2032:	019b      	lsls	r3, r3, #6
    2034:	429a      	cmp	r2, r3
    2036:	d901      	bls.n	203c <STACK_SIZE+0x3c>
				return STATUS_ERR_BAUDRATE_UNAVAILABLE;
    2038:	2340      	movs	r3, #64	; 0x40
    203a:	e03d      	b.n	20b8 <STACK_SIZE+0xb8>
		}
		temp1 = long_division( 8 * (uint64_t)peripheral_clock, temp1);
    203c:	6cbb      	ldr	r3, [r7, #72]	; 0x48
    203e:	61bb      	str	r3, [r7, #24]
    2040:	2300      	movs	r3, #0
    2042:	61fb      	str	r3, [r7, #28]
    2044:	69b9      	ldr	r1, [r7, #24]
    2046:	69fa      	ldr	r2, [r7, #28]
    2048:	000b      	movs	r3, r1
    204a:	0f5b      	lsrs	r3, r3, #29
    204c:	0010      	movs	r0, r2
    204e:	00c0      	lsls	r0, r0, #3
    2050:	63f8      	str	r0, [r7, #60]	; 0x3c
    2052:	6bf8      	ldr	r0, [r7, #60]	; 0x3c
    2054:	4318      	orrs	r0, r3
    2056:	63f8      	str	r0, [r7, #60]	; 0x3c
    2058:	000b      	movs	r3, r1
    205a:	00db      	lsls	r3, r3, #3
    205c:	63bb      	str	r3, [r7, #56]	; 0x38
    205e:	6dbb      	ldr	r3, [r7, #88]	; 0x58
    2060:	6dfc      	ldr	r4, [r7, #92]	; 0x5c
    2062:	001a      	movs	r2, r3
    2064:	0023      	movs	r3, r4
    2066:	6bb8      	ldr	r0, [r7, #56]	; 0x38
    2068:	6bf9      	ldr	r1, [r7, #60]	; 0x3c
    206a:	4c16      	ldr	r4, [pc, #88]	; (20c4 <STACK_SIZE+0xc4>)
    206c:	47a0      	blx	r4
    206e:	0003      	movs	r3, r0
    2070:	000c      	movs	r4, r1
    2072:	65bb      	str	r3, [r7, #88]	; 0x58
    2074:	65fc      	str	r4, [r7, #92]	; 0x5c
		baud_fp = temp1 - 8 * baud_int;
    2076:	6dbb      	ldr	r3, [r7, #88]	; 0x58
    2078:	6dfc      	ldr	r4, [r7, #92]	; 0x5c
    207a:	b2d9      	uxtb	r1, r3
    207c:	6e7b      	ldr	r3, [r7, #100]	; 0x64
    207e:	b2db      	uxtb	r3, r3
    2080:	00db      	lsls	r3, r3, #3
    2082:	b2da      	uxtb	r2, r3
    2084:	2317      	movs	r3, #23
    2086:	2040      	movs	r0, #64	; 0x40
    2088:	4684      	mov	ip, r0
    208a:	44bc      	add	ip, r7
    208c:	4463      	add	r3, ip
    208e:	1a8a      	subs	r2, r1, r2
    2090:	701a      	strb	r2, [r3, #0]
		baud_calculated = baud_int | (baud_fp << 13);
    2092:	2317      	movs	r3, #23
    2094:	2240      	movs	r2, #64	; 0x40
    2096:	4694      	mov	ip, r2
    2098:	44bc      	add	ip, r7
    209a:	4463      	add	r3, ip
    209c:	781b      	ldrb	r3, [r3, #0]
    209e:	035b      	lsls	r3, r3, #13
    20a0:	001a      	movs	r2, r3
    20a2:	6e7b      	ldr	r3, [r7, #100]	; 0x64
    20a4:	4313      	orrs	r3, r2
    20a6:	67bb      	str	r3, [r7, #120]	; 0x78
    20a8:	2300      	movs	r3, #0
    20aa:	67fb      	str	r3, [r7, #124]	; 0x7c
	}

	*baudval = baud_calculated;
    20ac:	6fbb      	ldr	r3, [r7, #120]	; 0x78
    20ae:	6ffc      	ldr	r4, [r7, #124]	; 0x7c
    20b0:	b29a      	uxth	r2, r3
    20b2:	6c7b      	ldr	r3, [r7, #68]	; 0x44
    20b4:	801a      	strh	r2, [r3, #0]
	return STATUS_OK;
    20b6:	2300      	movs	r3, #0
}
    20b8:	0018      	movs	r0, r3
    20ba:	46bd      	mov	sp, r7
    20bc:	b021      	add	sp, #132	; 0x84
    20be:	bdf0      	pop	{r4, r5, r6, r7, pc}
    20c0:	00004215 	.word	0x00004215
    20c4:	00001dab 	.word	0x00001dab

000020c8 <sercom_set_gclk_generator>:
 *                                         forced.
 */
enum status_code sercom_set_gclk_generator(
		const enum gclk_generator generator_source,
		const bool force_change)
{
    20c8:	b580      	push	{r7, lr}
    20ca:	b084      	sub	sp, #16
    20cc:	af00      	add	r7, sp, #0
    20ce:	0002      	movs	r2, r0
    20d0:	1dfb      	adds	r3, r7, #7
    20d2:	701a      	strb	r2, [r3, #0]
    20d4:	1dbb      	adds	r3, r7, #6
    20d6:	1c0a      	adds	r2, r1, #0
    20d8:	701a      	strb	r2, [r3, #0]
	/* Check if valid option */
	if (!_sercom_config.generator_is_set || force_change) {
    20da:	4b1a      	ldr	r3, [pc, #104]	; (2144 <sercom_set_gclk_generator+0x7c>)
    20dc:	781b      	ldrb	r3, [r3, #0]
    20de:	2201      	movs	r2, #1
    20e0:	4053      	eors	r3, r2
    20e2:	b2db      	uxtb	r3, r3
    20e4:	2b00      	cmp	r3, #0
    20e6:	d103      	bne.n	20f0 <sercom_set_gclk_generator+0x28>
    20e8:	1dbb      	adds	r3, r7, #6
    20ea:	781b      	ldrb	r3, [r3, #0]
    20ec:	2b00      	cmp	r3, #0
    20ee:	d01b      	beq.n	2128 <sercom_set_gclk_generator+0x60>
		/* Create and fill a GCLK configuration structure for the new config */
		struct system_gclk_chan_config gclk_chan_conf;
		system_gclk_chan_get_config_defaults(&gclk_chan_conf);
    20f0:	230c      	movs	r3, #12
    20f2:	18fb      	adds	r3, r7, r3
    20f4:	0018      	movs	r0, r3
    20f6:	4b14      	ldr	r3, [pc, #80]	; (2148 <sercom_set_gclk_generator+0x80>)
    20f8:	4798      	blx	r3
		gclk_chan_conf.source_generator = generator_source;
    20fa:	230c      	movs	r3, #12
    20fc:	18fb      	adds	r3, r7, r3
    20fe:	1dfa      	adds	r2, r7, #7
    2100:	7812      	ldrb	r2, [r2, #0]
    2102:	701a      	strb	r2, [r3, #0]
		system_gclk_chan_set_config(SERCOM_GCLK_ID, &gclk_chan_conf);
    2104:	230c      	movs	r3, #12
    2106:	18fb      	adds	r3, r7, r3
    2108:	0019      	movs	r1, r3
    210a:	200f      	movs	r0, #15
    210c:	4b0f      	ldr	r3, [pc, #60]	; (214c <sercom_set_gclk_generator+0x84>)
    210e:	4798      	blx	r3
		system_gclk_chan_enable(SERCOM_GCLK_ID);
    2110:	200f      	movs	r0, #15
    2112:	4b0f      	ldr	r3, [pc, #60]	; (2150 <sercom_set_gclk_generator+0x88>)
    2114:	4798      	blx	r3

		/* Save config */
		_sercom_config.generator_source = generator_source;
    2116:	4b0b      	ldr	r3, [pc, #44]	; (2144 <sercom_set_gclk_generator+0x7c>)
    2118:	1dfa      	adds	r2, r7, #7
    211a:	7812      	ldrb	r2, [r2, #0]
    211c:	705a      	strb	r2, [r3, #1]
		_sercom_config.generator_is_set = true;
    211e:	4b09      	ldr	r3, [pc, #36]	; (2144 <sercom_set_gclk_generator+0x7c>)
    2120:	2201      	movs	r2, #1
    2122:	701a      	strb	r2, [r3, #0]

		return STATUS_OK;
    2124:	2300      	movs	r3, #0
    2126:	e008      	b.n	213a <sercom_set_gclk_generator+0x72>
	} else if (generator_source == _sercom_config.generator_source) {
    2128:	4b06      	ldr	r3, [pc, #24]	; (2144 <sercom_set_gclk_generator+0x7c>)
    212a:	785b      	ldrb	r3, [r3, #1]
    212c:	1dfa      	adds	r2, r7, #7
    212e:	7812      	ldrb	r2, [r2, #0]
    2130:	429a      	cmp	r2, r3
    2132:	d101      	bne.n	2138 <sercom_set_gclk_generator+0x70>
		/* Return status OK if same config */
		return STATUS_OK;
    2134:	2300      	movs	r3, #0
    2136:	e000      	b.n	213a <sercom_set_gclk_generator+0x72>
	}

	/* Return invalid config to already initialized GCLK */
	return STATUS_ERR_ALREADY_INITIALIZED;
    2138:	231d      	movs	r3, #29
}
    213a:	0018      	movs	r0, r3
    213c:	46bd      	mov	sp, r7
    213e:	b004      	add	sp, #16
    2140:	bd80      	pop	{r7, pc}
    2142:	46c0      	nop			; (mov r8, r8)
    2144:	20003928 	.word	0x20003928
    2148:	00001d95 	.word	0x00001d95
    214c:	000039ed 	.word	0x000039ed
    2150:	00003a2d 	.word	0x00003a2d

00002154 <_sercom_get_default_pad>:
 *
 */
uint32_t _sercom_get_default_pad(
		Sercom *const sercom_module,
		const uint8_t pad)
{
    2154:	b580      	push	{r7, lr}
    2156:	b082      	sub	sp, #8
    2158:	af00      	add	r7, sp, #0
    215a:	6078      	str	r0, [r7, #4]
    215c:	000a      	movs	r2, r1
    215e:	1cfb      	adds	r3, r7, #3
    2160:	701a      	strb	r2, [r3, #0]
	switch ((uintptr_t)sercom_module) {
    2162:	687b      	ldr	r3, [r7, #4]
    2164:	4a4d      	ldr	r2, [pc, #308]	; (229c <_sercom_get_default_pad+0x148>)
    2166:	4293      	cmp	r3, r2
    2168:	d03f      	beq.n	21ea <_sercom_get_default_pad+0x96>
    216a:	4a4c      	ldr	r2, [pc, #304]	; (229c <_sercom_get_default_pad+0x148>)
    216c:	4293      	cmp	r3, r2
    216e:	d806      	bhi.n	217e <_sercom_get_default_pad+0x2a>
    2170:	4a4b      	ldr	r2, [pc, #300]	; (22a0 <_sercom_get_default_pad+0x14c>)
    2172:	4293      	cmp	r3, r2
    2174:	d00f      	beq.n	2196 <_sercom_get_default_pad+0x42>
    2176:	4a4b      	ldr	r2, [pc, #300]	; (22a4 <_sercom_get_default_pad+0x150>)
    2178:	4293      	cmp	r3, r2
    217a:	d021      	beq.n	21c0 <_sercom_get_default_pad+0x6c>
    217c:	e089      	b.n	2292 <_sercom_get_default_pad+0x13e>
    217e:	4a4a      	ldr	r2, [pc, #296]	; (22a8 <_sercom_get_default_pad+0x154>)
    2180:	4293      	cmp	r3, r2
    2182:	d100      	bne.n	2186 <_sercom_get_default_pad+0x32>
    2184:	e05b      	b.n	223e <_sercom_get_default_pad+0xea>
    2186:	4a49      	ldr	r2, [pc, #292]	; (22ac <_sercom_get_default_pad+0x158>)
    2188:	4293      	cmp	r3, r2
    218a:	d100      	bne.n	218e <_sercom_get_default_pad+0x3a>
    218c:	e06c      	b.n	2268 <_sercom_get_default_pad+0x114>
    218e:	4a48      	ldr	r2, [pc, #288]	; (22b0 <_sercom_get_default_pad+0x15c>)
    2190:	4293      	cmp	r3, r2
    2192:	d03f      	beq.n	2214 <_sercom_get_default_pad+0xc0>
    2194:	e07d      	b.n	2292 <_sercom_get_default_pad+0x13e>
		/* Auto-generate a lookup table for the default SERCOM pad defaults */
		MREPEAT(SERCOM_INST_NUM, _SERCOM_PAD_DEFAULTS_CASE, pad)
    2196:	1cfb      	adds	r3, r7, #3
    2198:	781b      	ldrb	r3, [r3, #0]
    219a:	2b01      	cmp	r3, #1
    219c:	d00a      	beq.n	21b4 <_sercom_get_default_pad+0x60>
    219e:	dc02      	bgt.n	21a6 <_sercom_get_default_pad+0x52>
    21a0:	2b00      	cmp	r3, #0
    21a2:	d005      	beq.n	21b0 <_sercom_get_default_pad+0x5c>
    21a4:	e075      	b.n	2292 <_sercom_get_default_pad+0x13e>
    21a6:	2b02      	cmp	r3, #2
    21a8:	d006      	beq.n	21b8 <_sercom_get_default_pad+0x64>
    21aa:	2b03      	cmp	r3, #3
    21ac:	d006      	beq.n	21bc <_sercom_get_default_pad+0x68>
    21ae:	e070      	b.n	2292 <_sercom_get_default_pad+0x13e>
    21b0:	4b40      	ldr	r3, [pc, #256]	; (22b4 <_sercom_get_default_pad+0x160>)
    21b2:	e06f      	b.n	2294 <_sercom_get_default_pad+0x140>
    21b4:	4b40      	ldr	r3, [pc, #256]	; (22b8 <_sercom_get_default_pad+0x164>)
    21b6:	e06d      	b.n	2294 <_sercom_get_default_pad+0x140>
    21b8:	4b40      	ldr	r3, [pc, #256]	; (22bc <_sercom_get_default_pad+0x168>)
    21ba:	e06b      	b.n	2294 <_sercom_get_default_pad+0x140>
    21bc:	4b40      	ldr	r3, [pc, #256]	; (22c0 <_sercom_get_default_pad+0x16c>)
    21be:	e069      	b.n	2294 <_sercom_get_default_pad+0x140>
    21c0:	1cfb      	adds	r3, r7, #3
    21c2:	781b      	ldrb	r3, [r3, #0]
    21c4:	2b01      	cmp	r3, #1
    21c6:	d00a      	beq.n	21de <_sercom_get_default_pad+0x8a>
    21c8:	dc02      	bgt.n	21d0 <_sercom_get_default_pad+0x7c>
    21ca:	2b00      	cmp	r3, #0
    21cc:	d005      	beq.n	21da <_sercom_get_default_pad+0x86>
    21ce:	e060      	b.n	2292 <_sercom_get_default_pad+0x13e>
    21d0:	2b02      	cmp	r3, #2
    21d2:	d006      	beq.n	21e2 <_sercom_get_default_pad+0x8e>
    21d4:	2b03      	cmp	r3, #3
    21d6:	d006      	beq.n	21e6 <_sercom_get_default_pad+0x92>
    21d8:	e05b      	b.n	2292 <_sercom_get_default_pad+0x13e>
    21da:	4b3a      	ldr	r3, [pc, #232]	; (22c4 <_sercom_get_default_pad+0x170>)
    21dc:	e05a      	b.n	2294 <_sercom_get_default_pad+0x140>
    21de:	4b3a      	ldr	r3, [pc, #232]	; (22c8 <_sercom_get_default_pad+0x174>)
    21e0:	e058      	b.n	2294 <_sercom_get_default_pad+0x140>
    21e2:	4b3a      	ldr	r3, [pc, #232]	; (22cc <_sercom_get_default_pad+0x178>)
    21e4:	e056      	b.n	2294 <_sercom_get_default_pad+0x140>
    21e6:	4b3a      	ldr	r3, [pc, #232]	; (22d0 <_sercom_get_default_pad+0x17c>)
    21e8:	e054      	b.n	2294 <_sercom_get_default_pad+0x140>
    21ea:	1cfb      	adds	r3, r7, #3
    21ec:	781b      	ldrb	r3, [r3, #0]
    21ee:	2b01      	cmp	r3, #1
    21f0:	d00a      	beq.n	2208 <_sercom_get_default_pad+0xb4>
    21f2:	dc02      	bgt.n	21fa <_sercom_get_default_pad+0xa6>
    21f4:	2b00      	cmp	r3, #0
    21f6:	d005      	beq.n	2204 <_sercom_get_default_pad+0xb0>
    21f8:	e04b      	b.n	2292 <_sercom_get_default_pad+0x13e>
    21fa:	2b02      	cmp	r3, #2
    21fc:	d006      	beq.n	220c <_sercom_get_default_pad+0xb8>
    21fe:	2b03      	cmp	r3, #3
    2200:	d006      	beq.n	2210 <_sercom_get_default_pad+0xbc>
    2202:	e046      	b.n	2292 <_sercom_get_default_pad+0x13e>
    2204:	4b33      	ldr	r3, [pc, #204]	; (22d4 <_sercom_get_default_pad+0x180>)
    2206:	e045      	b.n	2294 <_sercom_get_default_pad+0x140>
    2208:	4b33      	ldr	r3, [pc, #204]	; (22d8 <_sercom_get_default_pad+0x184>)
    220a:	e043      	b.n	2294 <_sercom_get_default_pad+0x140>
    220c:	4b33      	ldr	r3, [pc, #204]	; (22dc <_sercom_get_default_pad+0x188>)
    220e:	e041      	b.n	2294 <_sercom_get_default_pad+0x140>
    2210:	4b33      	ldr	r3, [pc, #204]	; (22e0 <_sercom_get_default_pad+0x18c>)
    2212:	e03f      	b.n	2294 <_sercom_get_default_pad+0x140>
    2214:	1cfb      	adds	r3, r7, #3
    2216:	781b      	ldrb	r3, [r3, #0]
    2218:	2b01      	cmp	r3, #1
    221a:	d00a      	beq.n	2232 <_sercom_get_default_pad+0xde>
    221c:	dc02      	bgt.n	2224 <_sercom_get_default_pad+0xd0>
    221e:	2b00      	cmp	r3, #0
    2220:	d005      	beq.n	222e <_sercom_get_default_pad+0xda>
    2222:	e036      	b.n	2292 <_sercom_get_default_pad+0x13e>
    2224:	2b02      	cmp	r3, #2
    2226:	d006      	beq.n	2236 <_sercom_get_default_pad+0xe2>
    2228:	2b03      	cmp	r3, #3
    222a:	d006      	beq.n	223a <_sercom_get_default_pad+0xe6>
    222c:	e031      	b.n	2292 <_sercom_get_default_pad+0x13e>
    222e:	4b2d      	ldr	r3, [pc, #180]	; (22e4 <_sercom_get_default_pad+0x190>)
    2230:	e030      	b.n	2294 <_sercom_get_default_pad+0x140>
    2232:	4b2d      	ldr	r3, [pc, #180]	; (22e8 <_sercom_get_default_pad+0x194>)
    2234:	e02e      	b.n	2294 <_sercom_get_default_pad+0x140>
    2236:	4b2d      	ldr	r3, [pc, #180]	; (22ec <_sercom_get_default_pad+0x198>)
    2238:	e02c      	b.n	2294 <_sercom_get_default_pad+0x140>
    223a:	4b2d      	ldr	r3, [pc, #180]	; (22f0 <_sercom_get_default_pad+0x19c>)
    223c:	e02a      	b.n	2294 <_sercom_get_default_pad+0x140>
    223e:	1cfb      	adds	r3, r7, #3
    2240:	781b      	ldrb	r3, [r3, #0]
    2242:	2b01      	cmp	r3, #1
    2244:	d00a      	beq.n	225c <_sercom_get_default_pad+0x108>
    2246:	dc02      	bgt.n	224e <_sercom_get_default_pad+0xfa>
    2248:	2b00      	cmp	r3, #0
    224a:	d005      	beq.n	2258 <_sercom_get_default_pad+0x104>
    224c:	e021      	b.n	2292 <_sercom_get_default_pad+0x13e>
    224e:	2b02      	cmp	r3, #2
    2250:	d006      	beq.n	2260 <_sercom_get_default_pad+0x10c>
    2252:	2b03      	cmp	r3, #3
    2254:	d006      	beq.n	2264 <_sercom_get_default_pad+0x110>
    2256:	e01c      	b.n	2292 <_sercom_get_default_pad+0x13e>
    2258:	4b26      	ldr	r3, [pc, #152]	; (22f4 <_sercom_get_default_pad+0x1a0>)
    225a:	e01b      	b.n	2294 <_sercom_get_default_pad+0x140>
    225c:	4b26      	ldr	r3, [pc, #152]	; (22f8 <_sercom_get_default_pad+0x1a4>)
    225e:	e019      	b.n	2294 <_sercom_get_default_pad+0x140>
    2260:	4b26      	ldr	r3, [pc, #152]	; (22fc <_sercom_get_default_pad+0x1a8>)
    2262:	e017      	b.n	2294 <_sercom_get_default_pad+0x140>
    2264:	4b26      	ldr	r3, [pc, #152]	; (2300 <_sercom_get_default_pad+0x1ac>)
    2266:	e015      	b.n	2294 <_sercom_get_default_pad+0x140>
    2268:	1cfb      	adds	r3, r7, #3
    226a:	781b      	ldrb	r3, [r3, #0]
    226c:	2b01      	cmp	r3, #1
    226e:	d00a      	beq.n	2286 <_sercom_get_default_pad+0x132>
    2270:	dc02      	bgt.n	2278 <_sercom_get_default_pad+0x124>
    2272:	2b00      	cmp	r3, #0
    2274:	d005      	beq.n	2282 <_sercom_get_default_pad+0x12e>
    2276:	e00c      	b.n	2292 <_sercom_get_default_pad+0x13e>
    2278:	2b02      	cmp	r3, #2
    227a:	d006      	beq.n	228a <_sercom_get_default_pad+0x136>
    227c:	2b03      	cmp	r3, #3
    227e:	d006      	beq.n	228e <_sercom_get_default_pad+0x13a>
    2280:	e007      	b.n	2292 <_sercom_get_default_pad+0x13e>
    2282:	4b20      	ldr	r3, [pc, #128]	; (2304 <_sercom_get_default_pad+0x1b0>)
    2284:	e006      	b.n	2294 <_sercom_get_default_pad+0x140>
    2286:	4b20      	ldr	r3, [pc, #128]	; (2308 <_sercom_get_default_pad+0x1b4>)
    2288:	e004      	b.n	2294 <_sercom_get_default_pad+0x140>
    228a:	4b20      	ldr	r3, [pc, #128]	; (230c <_sercom_get_default_pad+0x1b8>)
    228c:	e002      	b.n	2294 <_sercom_get_default_pad+0x140>
    228e:	4b20      	ldr	r3, [pc, #128]	; (2310 <_sercom_get_default_pad+0x1bc>)
    2290:	e000      	b.n	2294 <_sercom_get_default_pad+0x140>
	}

	Assert(false);
	return 0;
    2292:	2300      	movs	r3, #0
}
    2294:	0018      	movs	r0, r3
    2296:	46bd      	mov	sp, r7
    2298:	b002      	add	sp, #8
    229a:	bd80      	pop	{r7, pc}
    229c:	42000c00 	.word	0x42000c00
    22a0:	42000400 	.word	0x42000400
    22a4:	42000800 	.word	0x42000800
    22a8:	42001400 	.word	0x42001400
    22ac:	42001800 	.word	0x42001800
    22b0:	42001000 	.word	0x42001000
    22b4:	00080002 	.word	0x00080002
    22b8:	00090002 	.word	0x00090002
    22bc:	000a0002 	.word	0x000a0002
    22c0:	000b0002 	.word	0x000b0002
    22c4:	00100002 	.word	0x00100002
    22c8:	00110002 	.word	0x00110002
    22cc:	00120002 	.word	0x00120002
    22d0:	00130002 	.word	0x00130002
    22d4:	00160003 	.word	0x00160003
    22d8:	00170003 	.word	0x00170003
    22dc:	00140003 	.word	0x00140003
    22e0:	00150003 	.word	0x00150003
    22e4:	00220002 	.word	0x00220002
    22e8:	00350002 	.word	0x00350002
    22ec:	00200002 	.word	0x00200002
    22f0:	00210002 	.word	0x00210002
    22f4:	000c0002 	.word	0x000c0002
    22f8:	000d0002 	.word	0x000d0002
    22fc:	000e0002 	.word	0x000e0002
    2300:	000f0002 	.word	0x000f0002
    2304:	003e0003 	.word	0x003e0003
    2308:	003f0003 	.word	0x003f0003
    230c:	00360003 	.word	0x00360003
    2310:	00370003 	.word	0x00370003

00002314 <_sercom_get_sercom_inst_index>:
 *
 * \return Index of given instance.
 */
uint8_t _sercom_get_sercom_inst_index(
		Sercom *const sercom_instance)
{
    2314:	b590      	push	{r4, r7, lr}
    2316:	b08b      	sub	sp, #44	; 0x2c
    2318:	af00      	add	r7, sp, #0
    231a:	6078      	str	r0, [r7, #4]
	/* Save all available SERCOM instances for compare */
	Sercom *sercom_instances[SERCOM_INST_NUM] = SERCOM_INSTS;
    231c:	230c      	movs	r3, #12
    231e:	18fb      	adds	r3, r7, r3
    2320:	4a0f      	ldr	r2, [pc, #60]	; (2360 <_sercom_get_sercom_inst_index+0x4c>)
    2322:	ca13      	ldmia	r2!, {r0, r1, r4}
    2324:	c313      	stmia	r3!, {r0, r1, r4}
    2326:	ca13      	ldmia	r2!, {r0, r1, r4}
    2328:	c313      	stmia	r3!, {r0, r1, r4}

	/* Find index for sercom instance */
	for (uint32_t i = 0; i < SERCOM_INST_NUM; i++) {
    232a:	2300      	movs	r3, #0
    232c:	627b      	str	r3, [r7, #36]	; 0x24
    232e:	e00e      	b.n	234e <_sercom_get_sercom_inst_index+0x3a>
		if ((uintptr_t)sercom_instance == (uintptr_t)sercom_instances[i]) {
    2330:	230c      	movs	r3, #12
    2332:	18fb      	adds	r3, r7, r3
    2334:	6a7a      	ldr	r2, [r7, #36]	; 0x24
    2336:	0092      	lsls	r2, r2, #2
    2338:	58d3      	ldr	r3, [r2, r3]
    233a:	001a      	movs	r2, r3
    233c:	687b      	ldr	r3, [r7, #4]
    233e:	429a      	cmp	r2, r3
    2340:	d102      	bne.n	2348 <_sercom_get_sercom_inst_index+0x34>
			return i;
    2342:	6a7b      	ldr	r3, [r7, #36]	; 0x24
    2344:	b2db      	uxtb	r3, r3
    2346:	e006      	b.n	2356 <_sercom_get_sercom_inst_index+0x42>
	for (uint32_t i = 0; i < SERCOM_INST_NUM; i++) {
    2348:	6a7b      	ldr	r3, [r7, #36]	; 0x24
    234a:	3301      	adds	r3, #1
    234c:	627b      	str	r3, [r7, #36]	; 0x24
    234e:	6a7b      	ldr	r3, [r7, #36]	; 0x24
    2350:	2b05      	cmp	r3, #5
    2352:	d9ed      	bls.n	2330 <_sercom_get_sercom_inst_index+0x1c>
		}
	}

	/* Invalid data given */
	Assert(false);
	return 0;
    2354:	2300      	movs	r3, #0
}
    2356:	0018      	movs	r0, r3
    2358:	46bd      	mov	sp, r7
    235a:	b00b      	add	sp, #44	; 0x2c
    235c:	bd90      	pop	{r4, r7, pc}
    235e:	46c0      	nop			; (mov r8, r8)
    2360:	00004dcc 	.word	0x00004dcc

00002364 <_sercom_default_handler>:
 *
 * \param[in] instance SERCOM instance used.
 */
static void _sercom_default_handler(
		const uint8_t instance)
{
    2364:	b580      	push	{r7, lr}
    2366:	b082      	sub	sp, #8
    2368:	af00      	add	r7, sp, #0
    236a:	0002      	movs	r2, r0
    236c:	1dfb      	adds	r3, r7, #7
    236e:	701a      	strb	r2, [r3, #0]
	Assert(false);
}
    2370:	46c0      	nop			; (mov r8, r8)
    2372:	46bd      	mov	sp, r7
    2374:	b002      	add	sp, #8
    2376:	bd80      	pop	{r7, pc}

00002378 <_sercom_set_handler>:
 * \param[in]  interrupt_handler  Pointer to instance callback handler.
 */
void _sercom_set_handler(
		const uint8_t instance,
		const sercom_handler_t interrupt_handler)
{
    2378:	b580      	push	{r7, lr}
    237a:	b084      	sub	sp, #16
    237c:	af00      	add	r7, sp, #0
    237e:	0002      	movs	r2, r0
    2380:	6039      	str	r1, [r7, #0]
    2382:	1dfb      	adds	r3, r7, #7
    2384:	701a      	strb	r2, [r3, #0]
	/* Initialize handlers with default handler and device instances with 0 */
	if (_handler_table_initialized == false) {
    2386:	4b13      	ldr	r3, [pc, #76]	; (23d4 <_sercom_set_handler+0x5c>)
    2388:	781b      	ldrb	r3, [r3, #0]
    238a:	2201      	movs	r2, #1
    238c:	4053      	eors	r3, r2
    238e:	b2db      	uxtb	r3, r3
    2390:	2b00      	cmp	r3, #0
    2392:	d015      	beq.n	23c0 <_sercom_set_handler+0x48>
		for (uint32_t i = 0; i < SERCOM_INST_NUM; i++) {
    2394:	2300      	movs	r3, #0
    2396:	60fb      	str	r3, [r7, #12]
    2398:	e00c      	b.n	23b4 <_sercom_set_handler+0x3c>
			_sercom_interrupt_handlers[i] = &_sercom_default_handler;
    239a:	4b0f      	ldr	r3, [pc, #60]	; (23d8 <_sercom_set_handler+0x60>)
    239c:	68fa      	ldr	r2, [r7, #12]
    239e:	0092      	lsls	r2, r2, #2
    23a0:	490e      	ldr	r1, [pc, #56]	; (23dc <_sercom_set_handler+0x64>)
    23a2:	50d1      	str	r1, [r2, r3]
			_sercom_instances[i] = NULL;
    23a4:	4b0e      	ldr	r3, [pc, #56]	; (23e0 <_sercom_set_handler+0x68>)
    23a6:	68fa      	ldr	r2, [r7, #12]
    23a8:	0092      	lsls	r2, r2, #2
    23aa:	2100      	movs	r1, #0
    23ac:	50d1      	str	r1, [r2, r3]
		for (uint32_t i = 0; i < SERCOM_INST_NUM; i++) {
    23ae:	68fb      	ldr	r3, [r7, #12]
    23b0:	3301      	adds	r3, #1
    23b2:	60fb      	str	r3, [r7, #12]
    23b4:	68fb      	ldr	r3, [r7, #12]
    23b6:	2b05      	cmp	r3, #5
    23b8:	d9ef      	bls.n	239a <_sercom_set_handler+0x22>
		}

		_handler_table_initialized = true;
    23ba:	4b06      	ldr	r3, [pc, #24]	; (23d4 <_sercom_set_handler+0x5c>)
    23bc:	2201      	movs	r2, #1
    23be:	701a      	strb	r2, [r3, #0]
	}

	/* Save interrupt handler */
	_sercom_interrupt_handlers[instance] = interrupt_handler;
    23c0:	1dfb      	adds	r3, r7, #7
    23c2:	781a      	ldrb	r2, [r3, #0]
    23c4:	4b04      	ldr	r3, [pc, #16]	; (23d8 <_sercom_set_handler+0x60>)
    23c6:	0092      	lsls	r2, r2, #2
    23c8:	6839      	ldr	r1, [r7, #0]
    23ca:	50d1      	str	r1, [r2, r3]
}
    23cc:	46c0      	nop			; (mov r8, r8)
    23ce:	46bd      	mov	sp, r7
    23d0:	b004      	add	sp, #16
    23d2:	bd80      	pop	{r7, pc}
    23d4:	2000392a 	.word	0x2000392a
    23d8:	2000392c 	.word	0x2000392c
    23dc:	00002365 	.word	0x00002365
    23e0:	2000399c 	.word	0x2000399c

000023e4 <_sercom_get_interrupt_vector>:
 * \retval SYSTEM_INTERRUPT_MODULE_SERCOM6
 * \retval SYSTEM_INTERRUPT_MODULE_SERCOM7
 */
enum system_interrupt_vector _sercom_get_interrupt_vector(
		Sercom *const sercom_instance)
{
    23e4:	b590      	push	{r4, r7, lr}
    23e6:	b085      	sub	sp, #20
    23e8:	af00      	add	r7, sp, #0
    23ea:	6078      	str	r0, [r7, #4]
	const uint8_t sercom_int_vectors[SERCOM_INST_NUM] =
    23ec:	2308      	movs	r3, #8
    23ee:	18fb      	adds	r3, r7, r3
    23f0:	4a0b      	ldr	r2, [pc, #44]	; (2420 <_sercom_get_interrupt_vector+0x3c>)
    23f2:	6811      	ldr	r1, [r2, #0]
    23f4:	6019      	str	r1, [r3, #0]
    23f6:	8892      	ldrh	r2, [r2, #4]
    23f8:	809a      	strh	r2, [r3, #4]
		{
			MREPEAT(SERCOM_INST_NUM, _SERCOM_INTERRUPT_VECT_NUM, ~)
		};

	/* Retrieve the index of the SERCOM being requested */
	uint8_t instance_index = _sercom_get_sercom_inst_index(sercom_instance);
    23fa:	230f      	movs	r3, #15
    23fc:	18fc      	adds	r4, r7, r3
    23fe:	687b      	ldr	r3, [r7, #4]
    2400:	0018      	movs	r0, r3
    2402:	4b08      	ldr	r3, [pc, #32]	; (2424 <_sercom_get_interrupt_vector+0x40>)
    2404:	4798      	blx	r3
    2406:	0003      	movs	r3, r0
    2408:	7023      	strb	r3, [r4, #0]

	/* Get the vector number from the lookup table for the requested SERCOM */
	return (enum system_interrupt_vector)sercom_int_vectors[instance_index];
    240a:	230f      	movs	r3, #15
    240c:	18fb      	adds	r3, r7, r3
    240e:	781b      	ldrb	r3, [r3, #0]
    2410:	2208      	movs	r2, #8
    2412:	18ba      	adds	r2, r7, r2
    2414:	5cd3      	ldrb	r3, [r2, r3]
    2416:	b25b      	sxtb	r3, r3
}
    2418:	0018      	movs	r0, r3
    241a:	46bd      	mov	sp, r7
    241c:	b005      	add	sp, #20
    241e:	bd90      	pop	{r4, r7, pc}
    2420:	00004de4 	.word	0x00004de4
    2424:	00002315 	.word	0x00002315

00002428 <SERCOM0_Handler>:

/** Auto-generate a set of interrupt handlers for each SERCOM in the device */
MREPEAT(SERCOM_INST_NUM, _SERCOM_INTERRUPT_HANDLER, ~)
    2428:	b580      	push	{r7, lr}
    242a:	af00      	add	r7, sp, #0
    242c:	4b03      	ldr	r3, [pc, #12]	; (243c <SERCOM0_Handler+0x14>)
    242e:	681b      	ldr	r3, [r3, #0]
    2430:	2000      	movs	r0, #0
    2432:	4798      	blx	r3
    2434:	46c0      	nop			; (mov r8, r8)
    2436:	46bd      	mov	sp, r7
    2438:	bd80      	pop	{r7, pc}
    243a:	46c0      	nop			; (mov r8, r8)
    243c:	2000392c 	.word	0x2000392c

00002440 <SERCOM1_Handler>:
    2440:	b580      	push	{r7, lr}
    2442:	af00      	add	r7, sp, #0
    2444:	4b03      	ldr	r3, [pc, #12]	; (2454 <SERCOM1_Handler+0x14>)
    2446:	685b      	ldr	r3, [r3, #4]
    2448:	2001      	movs	r0, #1
    244a:	4798      	blx	r3
    244c:	46c0      	nop			; (mov r8, r8)
    244e:	46bd      	mov	sp, r7
    2450:	bd80      	pop	{r7, pc}
    2452:	46c0      	nop			; (mov r8, r8)
    2454:	2000392c 	.word	0x2000392c

00002458 <SERCOM2_Handler>:
    2458:	b580      	push	{r7, lr}
    245a:	af00      	add	r7, sp, #0
    245c:	4b03      	ldr	r3, [pc, #12]	; (246c <SERCOM2_Handler+0x14>)
    245e:	689b      	ldr	r3, [r3, #8]
    2460:	2002      	movs	r0, #2
    2462:	4798      	blx	r3
    2464:	46c0      	nop			; (mov r8, r8)
    2466:	46bd      	mov	sp, r7
    2468:	bd80      	pop	{r7, pc}
    246a:	46c0      	nop			; (mov r8, r8)
    246c:	2000392c 	.word	0x2000392c

00002470 <SERCOM3_Handler>:
    2470:	b580      	push	{r7, lr}
    2472:	af00      	add	r7, sp, #0
    2474:	4b03      	ldr	r3, [pc, #12]	; (2484 <SERCOM3_Handler+0x14>)
    2476:	68db      	ldr	r3, [r3, #12]
    2478:	2003      	movs	r0, #3
    247a:	4798      	blx	r3
    247c:	46c0      	nop			; (mov r8, r8)
    247e:	46bd      	mov	sp, r7
    2480:	bd80      	pop	{r7, pc}
    2482:	46c0      	nop			; (mov r8, r8)
    2484:	2000392c 	.word	0x2000392c

00002488 <SERCOM4_Handler>:
    2488:	b580      	push	{r7, lr}
    248a:	af00      	add	r7, sp, #0
    248c:	4b03      	ldr	r3, [pc, #12]	; (249c <SERCOM4_Handler+0x14>)
    248e:	691b      	ldr	r3, [r3, #16]
    2490:	2004      	movs	r0, #4
    2492:	4798      	blx	r3
    2494:	46c0      	nop			; (mov r8, r8)
    2496:	46bd      	mov	sp, r7
    2498:	bd80      	pop	{r7, pc}
    249a:	46c0      	nop			; (mov r8, r8)
    249c:	2000392c 	.word	0x2000392c

000024a0 <SERCOM5_Handler>:
    24a0:	b580      	push	{r7, lr}
    24a2:	af00      	add	r7, sp, #0
    24a4:	4b03      	ldr	r3, [pc, #12]	; (24b4 <SERCOM5_Handler+0x14>)
    24a6:	695b      	ldr	r3, [r3, #20]
    24a8:	2005      	movs	r0, #5
    24aa:	4798      	blx	r3
    24ac:	46c0      	nop			; (mov r8, r8)
    24ae:	46bd      	mov	sp, r7
    24b0:	bd80      	pop	{r7, pc}
    24b2:	46c0      	nop			; (mov r8, r8)
    24b4:	2000392c 	.word	0x2000392c

000024b8 <system_gclk_chan_get_config_defaults>:
{
    24b8:	b580      	push	{r7, lr}
    24ba:	b082      	sub	sp, #8
    24bc:	af00      	add	r7, sp, #0
    24be:	6078      	str	r0, [r7, #4]
	config->source_generator = GCLK_GENERATOR_0;
    24c0:	687b      	ldr	r3, [r7, #4]
    24c2:	2200      	movs	r2, #0
    24c4:	701a      	strb	r2, [r3, #0]
}
    24c6:	46c0      	nop			; (mov r8, r8)
    24c8:	46bd      	mov	sp, r7
    24ca:	b002      	add	sp, #8
    24cc:	bd80      	pop	{r7, pc}
	...

000024d0 <system_apb_clock_set_mask>:
 * \retval STATUS_OK               The clock mask was set successfully
 */
static inline enum status_code system_apb_clock_set_mask(
		const enum system_clock_apb_bus bus,
		const uint32_t mask)
{
    24d0:	b580      	push	{r7, lr}
    24d2:	b082      	sub	sp, #8
    24d4:	af00      	add	r7, sp, #0
    24d6:	0002      	movs	r2, r0
    24d8:	6039      	str	r1, [r7, #0]
    24da:	1dfb      	adds	r3, r7, #7
    24dc:	701a      	strb	r2, [r3, #0]
	switch (bus) {
    24de:	1dfb      	adds	r3, r7, #7
    24e0:	781b      	ldrb	r3, [r3, #0]
    24e2:	2b01      	cmp	r3, #1
    24e4:	d00a      	beq.n	24fc <system_apb_clock_set_mask+0x2c>
    24e6:	2b02      	cmp	r3, #2
    24e8:	d00f      	beq.n	250a <system_apb_clock_set_mask+0x3a>
    24ea:	2b00      	cmp	r3, #0
    24ec:	d114      	bne.n	2518 <system_apb_clock_set_mask+0x48>
		case SYSTEM_CLOCK_APB_APBA:
			MCLK->APBAMASK.reg |= mask;
    24ee:	4b0e      	ldr	r3, [pc, #56]	; (2528 <system_apb_clock_set_mask+0x58>)
    24f0:	4a0d      	ldr	r2, [pc, #52]	; (2528 <system_apb_clock_set_mask+0x58>)
    24f2:	6951      	ldr	r1, [r2, #20]
    24f4:	683a      	ldr	r2, [r7, #0]
    24f6:	430a      	orrs	r2, r1
    24f8:	615a      	str	r2, [r3, #20]
			break;
    24fa:	e00f      	b.n	251c <system_apb_clock_set_mask+0x4c>

		case SYSTEM_CLOCK_APB_APBB:
			MCLK->APBBMASK.reg |= mask;
    24fc:	4b0a      	ldr	r3, [pc, #40]	; (2528 <system_apb_clock_set_mask+0x58>)
    24fe:	4a0a      	ldr	r2, [pc, #40]	; (2528 <system_apb_clock_set_mask+0x58>)
    2500:	6991      	ldr	r1, [r2, #24]
    2502:	683a      	ldr	r2, [r7, #0]
    2504:	430a      	orrs	r2, r1
    2506:	619a      	str	r2, [r3, #24]
			break;
    2508:	e008      	b.n	251c <system_apb_clock_set_mask+0x4c>

		case SYSTEM_CLOCK_APB_APBC:
			MCLK->APBCMASK.reg |= mask;
    250a:	4b07      	ldr	r3, [pc, #28]	; (2528 <system_apb_clock_set_mask+0x58>)
    250c:	4a06      	ldr	r2, [pc, #24]	; (2528 <system_apb_clock_set_mask+0x58>)
    250e:	69d1      	ldr	r1, [r2, #28]
    2510:	683a      	ldr	r2, [r7, #0]
    2512:	430a      	orrs	r2, r1
    2514:	61da      	str	r2, [r3, #28]
			break;
    2516:	e001      	b.n	251c <system_apb_clock_set_mask+0x4c>

		default:
			Assert(false);
			return STATUS_ERR_INVALID_ARG;
    2518:	2317      	movs	r3, #23
    251a:	e000      	b.n	251e <system_apb_clock_set_mask+0x4e>

	}

	return STATUS_OK;
    251c:	2300      	movs	r3, #0
}
    251e:	0018      	movs	r0, r3
    2520:	46bd      	mov	sp, r7
    2522:	b002      	add	sp, #8
    2524:	bd80      	pop	{r7, pc}
    2526:	46c0      	nop			; (mov r8, r8)
    2528:	40000800 	.word	0x40000800

0000252c <system_pinmux_get_config_defaults>:
 *
 * \param[out] config  Configuration structure to initialize to default values
 */
static inline void system_pinmux_get_config_defaults(
		struct system_pinmux_config *const config)
{
    252c:	b580      	push	{r7, lr}
    252e:	b082      	sub	sp, #8
    2530:	af00      	add	r7, sp, #0
    2532:	6078      	str	r0, [r7, #4]
	/* Sanity check arguments */
	Assert(config);

	/* Default configuration values */
	config->mux_position = SYSTEM_PINMUX_GPIO;
    2534:	687b      	ldr	r3, [r7, #4]
    2536:	2280      	movs	r2, #128	; 0x80
    2538:	701a      	strb	r2, [r3, #0]
	config->direction    = SYSTEM_PINMUX_PIN_DIR_INPUT;
    253a:	687b      	ldr	r3, [r7, #4]
    253c:	2200      	movs	r2, #0
    253e:	705a      	strb	r2, [r3, #1]
	config->input_pull   = SYSTEM_PINMUX_PIN_PULL_UP;
    2540:	687b      	ldr	r3, [r7, #4]
    2542:	2201      	movs	r2, #1
    2544:	709a      	strb	r2, [r3, #2]
	config->powersave    = false;
    2546:	687b      	ldr	r3, [r7, #4]
    2548:	2200      	movs	r2, #0
    254a:	70da      	strb	r2, [r3, #3]
}
    254c:	46c0      	nop			; (mov r8, r8)
    254e:	46bd      	mov	sp, r7
    2550:	b002      	add	sp, #8
    2552:	bd80      	pop	{r7, pc}

00002554 <system_is_debugger_present>:
 * \retval true  Debugger is connected to the system
 * \retval false Debugger is not connected to the system
 *
 */
static inline bool system_is_debugger_present(void)
{
    2554:	b580      	push	{r7, lr}
    2556:	af00      	add	r7, sp, #0
	return DSU->STATUSB.reg & DSU_STATUSB_DBGPRES;
    2558:	4b05      	ldr	r3, [pc, #20]	; (2570 <system_is_debugger_present+0x1c>)
    255a:	789b      	ldrb	r3, [r3, #2]
    255c:	b2db      	uxtb	r3, r3
    255e:	001a      	movs	r2, r3
    2560:	2302      	movs	r3, #2
    2562:	4013      	ands	r3, r2
    2564:	1e5a      	subs	r2, r3, #1
    2566:	4193      	sbcs	r3, r2
    2568:	b2db      	uxtb	r3, r3
}
    256a:	0018      	movs	r0, r3
    256c:	46bd      	mov	sp, r7
    256e:	bd80      	pop	{r7, pc}
    2570:	41002000 	.word	0x41002000

00002574 <usart_is_syncing>:
{
    2574:	b580      	push	{r7, lr}
    2576:	b084      	sub	sp, #16
    2578:	af00      	add	r7, sp, #0
    257a:	6078      	str	r0, [r7, #4]
	SercomUsart *const usart_hw = &(module->hw->USART);
    257c:	687b      	ldr	r3, [r7, #4]
    257e:	681b      	ldr	r3, [r3, #0]
    2580:	60fb      	str	r3, [r7, #12]
	return (usart_hw->SYNCBUSY.reg);
    2582:	68fb      	ldr	r3, [r7, #12]
    2584:	69db      	ldr	r3, [r3, #28]
    2586:	1e5a      	subs	r2, r3, #1
    2588:	4193      	sbcs	r3, r2
    258a:	b2db      	uxtb	r3, r3
}
    258c:	0018      	movs	r0, r3
    258e:	46bd      	mov	sp, r7
    2590:	b004      	add	sp, #16
    2592:	bd80      	pop	{r7, pc}

00002594 <_usart_wait_for_sync>:
{
    2594:	b580      	push	{r7, lr}
    2596:	b082      	sub	sp, #8
    2598:	af00      	add	r7, sp, #0
    259a:	6078      	str	r0, [r7, #4]
	while (usart_is_syncing(module)) {
    259c:	46c0      	nop			; (mov r8, r8)
    259e:	687b      	ldr	r3, [r7, #4]
    25a0:	0018      	movs	r0, r3
    25a2:	4b04      	ldr	r3, [pc, #16]	; (25b4 <_usart_wait_for_sync+0x20>)
    25a4:	4798      	blx	r3
    25a6:	1e03      	subs	r3, r0, #0
    25a8:	d1f9      	bne.n	259e <_usart_wait_for_sync+0xa>
}
    25aa:	46c0      	nop			; (mov r8, r8)
    25ac:	46bd      	mov	sp, r7
    25ae:	b002      	add	sp, #8
    25b0:	bd80      	pop	{r7, pc}
    25b2:	46c0      	nop			; (mov r8, r8)
    25b4:	00002575 	.word	0x00002575

000025b8 <_usart_set_config>:
 * Set Configuration of the USART module
 */
static enum status_code _usart_set_config(
		struct usart_module *const module,
		const struct usart_config *const config)
{
    25b8:	b5b0      	push	{r4, r5, r7, lr}
    25ba:	b08e      	sub	sp, #56	; 0x38
    25bc:	af02      	add	r7, sp, #8
    25be:	6078      	str	r0, [r7, #4]
    25c0:	6039      	str	r1, [r7, #0]
	/* Sanity check arguments */
	Assert(module);
	Assert(module->hw);

	/* Get a pointer to the hardware module instance */
	SercomUsart *const usart_hw = &(module->hw->USART);
    25c2:	687b      	ldr	r3, [r7, #4]
    25c4:	681b      	ldr	r3, [r3, #0]
    25c6:	61bb      	str	r3, [r7, #24]

	/* Index for generic clock */
	uint32_t sercom_index = _sercom_get_sercom_inst_index(module->hw);
    25c8:	687b      	ldr	r3, [r7, #4]
    25ca:	681b      	ldr	r3, [r3, #0]
    25cc:	0018      	movs	r0, r3
    25ce:	4bc3      	ldr	r3, [pc, #780]	; (28dc <_usart_set_config+0x324>)
    25d0:	4798      	blx	r3
    25d2:	0003      	movs	r3, r0
    25d4:	617b      	str	r3, [r7, #20]
	uint32_t gclk_index   = sercom_index + SERCOM0_GCLK_ID_CORE;
    25d6:	697b      	ldr	r3, [r7, #20]
    25d8:	3310      	adds	r3, #16
    25da:	613b      	str	r3, [r7, #16]

	/* Cache new register values to minimize the number of register writes */
	uint32_t ctrla = 0;
    25dc:	2300      	movs	r3, #0
    25de:	62fb      	str	r3, [r7, #44]	; 0x2c
	uint32_t ctrlb = 0;
    25e0:	2300      	movs	r3, #0
    25e2:	62bb      	str	r3, [r7, #40]	; 0x28
#ifdef FEATURE_USART_ISO7816
	uint32_t ctrlc = 0;
    25e4:	2300      	movs	r3, #0
    25e6:	627b      	str	r3, [r7, #36]	; 0x24
#endif
	uint16_t baud  = 0;
    25e8:	230e      	movs	r3, #14
    25ea:	18fb      	adds	r3, r7, r3
    25ec:	2200      	movs	r2, #0
    25ee:	801a      	strh	r2, [r3, #0]
	uint32_t transfer_mode;

	enum sercom_asynchronous_operation_mode mode = SERCOM_ASYNC_OPERATION_MODE_ARITHMETIC;
    25f0:	231f      	movs	r3, #31
    25f2:	18fb      	adds	r3, r7, r3
    25f4:	2200      	movs	r2, #0
    25f6:	701a      	strb	r2, [r3, #0]
	enum sercom_asynchronous_sample_num sample_num = SERCOM_ASYNC_SAMPLE_NUM_16;
    25f8:	231e      	movs	r3, #30
    25fa:	18fb      	adds	r3, r7, r3
    25fc:	2210      	movs	r2, #16
    25fe:	701a      	strb	r2, [r3, #0]

#ifdef FEATURE_USART_OVER_SAMPLE
	switch (config->sample_rate) {
    2600:	683b      	ldr	r3, [r7, #0]
    2602:	8a1b      	ldrh	r3, [r3, #16]
    2604:	2280      	movs	r2, #128	; 0x80
    2606:	01d2      	lsls	r2, r2, #7
    2608:	4293      	cmp	r3, r2
    260a:	d01c      	beq.n	2646 <_usart_set_config+0x8e>
    260c:	2280      	movs	r2, #128	; 0x80
    260e:	01d2      	lsls	r2, r2, #7
    2610:	4293      	cmp	r3, r2
    2612:	dc06      	bgt.n	2622 <_usart_set_config+0x6a>
    2614:	2b00      	cmp	r3, #0
    2616:	d00d      	beq.n	2634 <_usart_set_config+0x7c>
    2618:	2280      	movs	r2, #128	; 0x80
    261a:	0192      	lsls	r2, r2, #6
    261c:	4293      	cmp	r3, r2
    261e:	d024      	beq.n	266a <_usart_set_config+0xb2>
    2620:	e035      	b.n	268e <_usart_set_config+0xd6>
    2622:	22c0      	movs	r2, #192	; 0xc0
    2624:	01d2      	lsls	r2, r2, #7
    2626:	4293      	cmp	r3, r2
    2628:	d028      	beq.n	267c <_usart_set_config+0xc4>
    262a:	2280      	movs	r2, #128	; 0x80
    262c:	0212      	lsls	r2, r2, #8
    262e:	4293      	cmp	r3, r2
    2630:	d012      	beq.n	2658 <_usart_set_config+0xa0>
    2632:	e02c      	b.n	268e <_usart_set_config+0xd6>
		case USART_SAMPLE_RATE_16X_ARITHMETIC:
			mode = SERCOM_ASYNC_OPERATION_MODE_ARITHMETIC;
    2634:	231f      	movs	r3, #31
    2636:	18fb      	adds	r3, r7, r3
    2638:	2200      	movs	r2, #0
    263a:	701a      	strb	r2, [r3, #0]
			sample_num = SERCOM_ASYNC_SAMPLE_NUM_16;
    263c:	231e      	movs	r3, #30
    263e:	18fb      	adds	r3, r7, r3
    2640:	2210      	movs	r2, #16
    2642:	701a      	strb	r2, [r3, #0]
			break;
    2644:	e023      	b.n	268e <_usart_set_config+0xd6>
		case USART_SAMPLE_RATE_8X_ARITHMETIC:
			mode = SERCOM_ASYNC_OPERATION_MODE_ARITHMETIC;
    2646:	231f      	movs	r3, #31
    2648:	18fb      	adds	r3, r7, r3
    264a:	2200      	movs	r2, #0
    264c:	701a      	strb	r2, [r3, #0]
			sample_num = SERCOM_ASYNC_SAMPLE_NUM_8;
    264e:	231e      	movs	r3, #30
    2650:	18fb      	adds	r3, r7, r3
    2652:	2208      	movs	r2, #8
    2654:	701a      	strb	r2, [r3, #0]
			break;
    2656:	e01a      	b.n	268e <_usart_set_config+0xd6>
		case USART_SAMPLE_RATE_3X_ARITHMETIC:
			mode = SERCOM_ASYNC_OPERATION_MODE_ARITHMETIC;
    2658:	231f      	movs	r3, #31
    265a:	18fb      	adds	r3, r7, r3
    265c:	2200      	movs	r2, #0
    265e:	701a      	strb	r2, [r3, #0]
			sample_num = SERCOM_ASYNC_SAMPLE_NUM_3;
    2660:	231e      	movs	r3, #30
    2662:	18fb      	adds	r3, r7, r3
    2664:	2203      	movs	r2, #3
    2666:	701a      	strb	r2, [r3, #0]
			break;
    2668:	e011      	b.n	268e <_usart_set_config+0xd6>
		case USART_SAMPLE_RATE_16X_FRACTIONAL:
			mode = SERCOM_ASYNC_OPERATION_MODE_FRACTIONAL;
    266a:	231f      	movs	r3, #31
    266c:	18fb      	adds	r3, r7, r3
    266e:	2201      	movs	r2, #1
    2670:	701a      	strb	r2, [r3, #0]
			sample_num = SERCOM_ASYNC_SAMPLE_NUM_16;
    2672:	231e      	movs	r3, #30
    2674:	18fb      	adds	r3, r7, r3
    2676:	2210      	movs	r2, #16
    2678:	701a      	strb	r2, [r3, #0]
			break;
    267a:	e008      	b.n	268e <_usart_set_config+0xd6>
		case USART_SAMPLE_RATE_8X_FRACTIONAL:
			mode = SERCOM_ASYNC_OPERATION_MODE_FRACTIONAL;
    267c:	231f      	movs	r3, #31
    267e:	18fb      	adds	r3, r7, r3
    2680:	2201      	movs	r2, #1
    2682:	701a      	strb	r2, [r3, #0]
			sample_num = SERCOM_ASYNC_SAMPLE_NUM_8;
    2684:	231e      	movs	r3, #30
    2686:	18fb      	adds	r3, r7, r3
    2688:	2208      	movs	r2, #8
    268a:	701a      	strb	r2, [r3, #0]
			break;
    268c:	46c0      	nop			; (mov r8, r8)
	}
#endif

	/* Set data order, internal muxing, and clock polarity */
	ctrla = (uint32_t)config->data_order |
    268e:	683b      	ldr	r3, [r7, #0]
    2690:	681a      	ldr	r2, [r3, #0]
		(uint32_t)config->mux_setting |
    2692:	683b      	ldr	r3, [r7, #0]
    2694:	68db      	ldr	r3, [r3, #12]
	ctrla = (uint32_t)config->data_order |
    2696:	431a      	orrs	r2, r3
	#ifdef FEATURE_USART_OVER_SAMPLE
		config->sample_adjustment |
    2698:	683b      	ldr	r3, [r7, #0]
    269a:	695b      	ldr	r3, [r3, #20]
		(uint32_t)config->mux_setting |
    269c:	4313      	orrs	r3, r2
		config->sample_rate |
    269e:	683a      	ldr	r2, [r7, #0]
    26a0:	8a12      	ldrh	r2, [r2, #16]
		config->sample_adjustment |
    26a2:	4313      	orrs	r3, r2
	#endif
	#ifdef FEATURE_USART_IMMEDIATE_BUFFER_OVERFLOW_NOTIFICATION
		(config->immediate_buffer_overflow_notification << SERCOM_USART_CTRLA_IBON_Pos) |
    26a4:	683a      	ldr	r2, [r7, #0]
    26a6:	7e12      	ldrb	r2, [r2, #24]
    26a8:	0212      	lsls	r2, r2, #8
		config->sample_rate |
    26aa:	4313      	orrs	r3, r2
	#endif
		(config->clock_polarity_inverted << SERCOM_USART_CTRLA_CPOL_Pos);
    26ac:	683a      	ldr	r2, [r7, #0]
    26ae:	2142      	movs	r1, #66	; 0x42
    26b0:	5c52      	ldrb	r2, [r2, r1]
    26b2:	0752      	lsls	r2, r2, #29
	ctrla = (uint32_t)config->data_order |
    26b4:	4313      	orrs	r3, r2
    26b6:	62fb      	str	r3, [r7, #44]	; 0x2c

	enum status_code status_code = STATUS_OK;
    26b8:	231d      	movs	r3, #29
    26ba:	18fb      	adds	r3, r7, r3
    26bc:	2200      	movs	r2, #0
    26be:	701a      	strb	r2, [r3, #0]

	transfer_mode = (uint32_t)config->transfer_mode;
    26c0:	683b      	ldr	r3, [r7, #0]
    26c2:	685b      	ldr	r3, [r3, #4]
    26c4:	623b      	str	r3, [r7, #32]
#ifdef FEATURE_USART_ISO7816
	if(config->iso7816_config.enabled) {
    26c6:	683b      	ldr	r3, [r7, #0]
    26c8:	2220      	movs	r2, #32
    26ca:	5c9b      	ldrb	r3, [r3, r2]
    26cc:	2b00      	cmp	r3, #0
    26ce:	d002      	beq.n	26d6 <_usart_set_config+0x11e>
		transfer_mode = config->iso7816_config.protocol_t;
    26d0:	683b      	ldr	r3, [r7, #0]
    26d2:	6a5b      	ldr	r3, [r3, #36]	; 0x24
    26d4:	623b      	str	r3, [r7, #32]
	}
#endif
	/* Get baud value from mode and clock */
#ifdef FEATURE_USART_ISO7816
	if(config->iso7816_config.enabled) {
    26d6:	683b      	ldr	r3, [r7, #0]
    26d8:	2220      	movs	r2, #32
    26da:	5c9b      	ldrb	r3, [r3, r2]
    26dc:	2b00      	cmp	r3, #0
    26de:	d006      	beq.n	26ee <_usart_set_config+0x136>
		baud = config->baudrate;
    26e0:	683b      	ldr	r3, [r7, #0]
    26e2:	6bdb      	ldr	r3, [r3, #60]	; 0x3c
    26e4:	b29a      	uxth	r2, r3
    26e6:	230e      	movs	r3, #14
    26e8:	18fb      	adds	r3, r7, r3
    26ea:	801a      	strh	r2, [r3, #0]
    26ec:	e05f      	b.n	27ae <_usart_set_config+0x1f6>
	} else {
#endif
	switch (transfer_mode)
    26ee:	6a3b      	ldr	r3, [r7, #32]
    26f0:	2b00      	cmp	r3, #0
    26f2:	d01e      	beq.n	2732 <_usart_set_config+0x17a>
    26f4:	2280      	movs	r2, #128	; 0x80
    26f6:	0552      	lsls	r2, r2, #21
    26f8:	4293      	cmp	r3, r2
    26fa:	d14f      	bne.n	279c <_usart_set_config+0x1e4>
	{
		case USART_TRANSFER_SYNCHRONOUSLY:
			if (!config->use_external_clock) {
    26fc:	683b      	ldr	r3, [r7, #0]
    26fe:	2243      	movs	r2, #67	; 0x43
    2700:	5c9b      	ldrb	r3, [r3, r2]
    2702:	2201      	movs	r2, #1
    2704:	4053      	eors	r3, r2
    2706:	b2db      	uxtb	r3, r3
    2708:	2b00      	cmp	r3, #0
    270a:	d046      	beq.n	279a <_usart_set_config+0x1e2>
				status_code = _sercom_get_sync_baud_val(config->baudrate,
    270c:	683b      	ldr	r3, [r7, #0]
    270e:	6bdd      	ldr	r5, [r3, #60]	; 0x3c
    2710:	693b      	ldr	r3, [r7, #16]
    2712:	b2db      	uxtb	r3, r3
    2714:	0018      	movs	r0, r3
    2716:	4b72      	ldr	r3, [pc, #456]	; (28e0 <_usart_set_config+0x328>)
    2718:	4798      	blx	r3
    271a:	0001      	movs	r1, r0
    271c:	231d      	movs	r3, #29
    271e:	18fc      	adds	r4, r7, r3
    2720:	230e      	movs	r3, #14
    2722:	18fb      	adds	r3, r7, r3
    2724:	001a      	movs	r2, r3
    2726:	0028      	movs	r0, r5
    2728:	4b6e      	ldr	r3, [pc, #440]	; (28e4 <_usart_set_config+0x32c>)
    272a:	4798      	blx	r3
    272c:	0003      	movs	r3, r0
    272e:	7023      	strb	r3, [r4, #0]
						system_gclk_chan_get_hz(gclk_index), &baud);
			}

			break;
    2730:	e033      	b.n	279a <_usart_set_config+0x1e2>

		case USART_TRANSFER_ASYNCHRONOUSLY:
			if (config->use_external_clock) {
    2732:	683b      	ldr	r3, [r7, #0]
    2734:	2243      	movs	r2, #67	; 0x43
    2736:	5c9b      	ldrb	r3, [r3, r2]
    2738:	2b00      	cmp	r3, #0
    273a:	d014      	beq.n	2766 <_usart_set_config+0x1ae>
				status_code =
						_sercom_get_async_baud_val(config->baudrate,
    273c:	683b      	ldr	r3, [r7, #0]
    273e:	6bd8      	ldr	r0, [r3, #60]	; 0x3c
    2740:	683b      	ldr	r3, [r7, #0]
    2742:	6c59      	ldr	r1, [r3, #68]	; 0x44
				status_code =
    2744:	231d      	movs	r3, #29
    2746:	18fc      	adds	r4, r7, r3
    2748:	231f      	movs	r3, #31
    274a:	18fb      	adds	r3, r7, r3
    274c:	781d      	ldrb	r5, [r3, #0]
    274e:	230e      	movs	r3, #14
    2750:	18fa      	adds	r2, r7, r3
    2752:	231e      	movs	r3, #30
    2754:	18fb      	adds	r3, r7, r3
    2756:	781b      	ldrb	r3, [r3, #0]
    2758:	9300      	str	r3, [sp, #0]
    275a:	002b      	movs	r3, r5
    275c:	4d62      	ldr	r5, [pc, #392]	; (28e8 <_usart_set_config+0x330>)
    275e:	47a8      	blx	r5
    2760:	0003      	movs	r3, r0
    2762:	7023      	strb	r3, [r4, #0]
				status_code =
						_sercom_get_async_baud_val(config->baudrate,
							system_gclk_chan_get_hz(gclk_index), &baud, mode, sample_num);
			}

			break;
    2764:	e01a      	b.n	279c <_usart_set_config+0x1e4>
						_sercom_get_async_baud_val(config->baudrate,
    2766:	683b      	ldr	r3, [r7, #0]
    2768:	6bdd      	ldr	r5, [r3, #60]	; 0x3c
    276a:	693b      	ldr	r3, [r7, #16]
    276c:	b2db      	uxtb	r3, r3
    276e:	0018      	movs	r0, r3
    2770:	4b5b      	ldr	r3, [pc, #364]	; (28e0 <_usart_set_config+0x328>)
    2772:	4798      	blx	r3
				status_code =
    2774:	231d      	movs	r3, #29
    2776:	18fc      	adds	r4, r7, r3
    2778:	231f      	movs	r3, #31
    277a:	18fb      	adds	r3, r7, r3
    277c:	7819      	ldrb	r1, [r3, #0]
    277e:	230e      	movs	r3, #14
    2780:	18fa      	adds	r2, r7, r3
    2782:	231e      	movs	r3, #30
    2784:	18fb      	adds	r3, r7, r3
    2786:	781b      	ldrb	r3, [r3, #0]
    2788:	9300      	str	r3, [sp, #0]
    278a:	000b      	movs	r3, r1
    278c:	0001      	movs	r1, r0
    278e:	0028      	movs	r0, r5
    2790:	4d55      	ldr	r5, [pc, #340]	; (28e8 <_usart_set_config+0x330>)
    2792:	47a8      	blx	r5
    2794:	0003      	movs	r3, r0
    2796:	7023      	strb	r3, [r4, #0]
			break;
    2798:	e000      	b.n	279c <_usart_set_config+0x1e4>
			break;
    279a:	46c0      	nop			; (mov r8, r8)
	}

	/* Check if calculating the baudrate failed */
	if (status_code != STATUS_OK) {
    279c:	231d      	movs	r3, #29
    279e:	18fb      	adds	r3, r7, r3
    27a0:	781b      	ldrb	r3, [r3, #0]
    27a2:	2b00      	cmp	r3, #0
    27a4:	d003      	beq.n	27ae <_usart_set_config+0x1f6>
		/* Abort */
		return status_code;
    27a6:	231d      	movs	r3, #29
    27a8:	18fb      	adds	r3, r7, r3
    27aa:	781b      	ldrb	r3, [r3, #0]
    27ac:	e0e4      	b.n	2978 <_usart_set_config+0x3c0>
#ifdef FEATURE_USART_ISO7816
	}
#endif

#ifdef FEATURE_USART_IRDA
	if(config->encoding_format_enable) {
    27ae:	683b      	ldr	r3, [r7, #0]
    27b0:	7e5b      	ldrb	r3, [r3, #25]
    27b2:	2b00      	cmp	r3, #0
    27b4:	d003      	beq.n	27be <_usart_set_config+0x206>
		usart_hw->RXPL.reg = config->receive_pulse_length;
    27b6:	683b      	ldr	r3, [r7, #0]
    27b8:	7e9a      	ldrb	r2, [r3, #26]
    27ba:	69bb      	ldr	r3, [r7, #24]
    27bc:	739a      	strb	r2, [r3, #14]
	}
#endif

	/* Wait until synchronization is complete */
	_usart_wait_for_sync(module);
    27be:	687b      	ldr	r3, [r7, #4]
    27c0:	0018      	movs	r0, r3
    27c2:	4b4a      	ldr	r3, [pc, #296]	; (28ec <_usart_set_config+0x334>)
    27c4:	4798      	blx	r3

	/*Set baud val */
	usart_hw->BAUD.reg = baud;
    27c6:	230e      	movs	r3, #14
    27c8:	18fb      	adds	r3, r7, r3
    27ca:	881a      	ldrh	r2, [r3, #0]
    27cc:	69bb      	ldr	r3, [r7, #24]
    27ce:	819a      	strh	r2, [r3, #12]

	/* Set sample mode */
	ctrla |= transfer_mode;
    27d0:	6afa      	ldr	r2, [r7, #44]	; 0x2c
    27d2:	6a3b      	ldr	r3, [r7, #32]
    27d4:	4313      	orrs	r3, r2
    27d6:	62fb      	str	r3, [r7, #44]	; 0x2c

	if (config->use_external_clock == false) {
    27d8:	683b      	ldr	r3, [r7, #0]
    27da:	2243      	movs	r2, #67	; 0x43
    27dc:	5c9b      	ldrb	r3, [r3, r2]
    27de:	2201      	movs	r2, #1
    27e0:	4053      	eors	r3, r2
    27e2:	b2db      	uxtb	r3, r3
    27e4:	2b00      	cmp	r3, #0
    27e6:	d003      	beq.n	27f0 <_usart_set_config+0x238>
		ctrla |= SERCOM_USART_CTRLA_MODE(0x1);
    27e8:	6afb      	ldr	r3, [r7, #44]	; 0x2c
    27ea:	2204      	movs	r2, #4
    27ec:	4313      	orrs	r3, r2
    27ee:	62fb      	str	r3, [r7, #44]	; 0x2c
	}

	/* Set stopbits and enable transceivers */
	ctrlb =  
		#ifdef FEATURE_USART_IRDA
			(config->encoding_format_enable << SERCOM_USART_CTRLB_ENC_Pos) |
    27f0:	683b      	ldr	r3, [r7, #0]
    27f2:	7e5b      	ldrb	r3, [r3, #25]
    27f4:	029a      	lsls	r2, r3, #10
		#endif
		#ifdef FEATURE_USART_START_FRAME_DECTION
			(config->start_frame_detection_enable << SERCOM_USART_CTRLB_SFDE_Pos) |
    27f6:	683b      	ldr	r3, [r7, #0]
    27f8:	7f1b      	ldrb	r3, [r3, #28]
    27fa:	025b      	lsls	r3, r3, #9
			(config->encoding_format_enable << SERCOM_USART_CTRLB_ENC_Pos) |
    27fc:	431a      	orrs	r2, r3
		#endif
		#ifdef FEATURE_USART_COLLISION_DECTION
			(config->collision_detection_enable << SERCOM_USART_CTRLB_COLDEN_Pos) |
    27fe:	683b      	ldr	r3, [r7, #0]
    2800:	2139      	movs	r1, #57	; 0x39
    2802:	5c5b      	ldrb	r3, [r3, r1]
    2804:	021b      	lsls	r3, r3, #8
			(config->start_frame_detection_enable << SERCOM_USART_CTRLB_SFDE_Pos) |
    2806:	431a      	orrs	r2, r3
		#endif
			(config->receiver_enable << SERCOM_USART_CTRLB_RXEN_Pos) |
    2808:	683b      	ldr	r3, [r7, #0]
    280a:	2140      	movs	r1, #64	; 0x40
    280c:	5c5b      	ldrb	r3, [r3, r1]
    280e:	045b      	lsls	r3, r3, #17
			(config->collision_detection_enable << SERCOM_USART_CTRLB_COLDEN_Pos) |
    2810:	431a      	orrs	r2, r3
			(config->transmitter_enable << SERCOM_USART_CTRLB_TXEN_Pos);
    2812:	683b      	ldr	r3, [r7, #0]
    2814:	2141      	movs	r1, #65	; 0x41
    2816:	5c5b      	ldrb	r3, [r3, r1]
    2818:	041b      	lsls	r3, r3, #16
			(config->receiver_enable << SERCOM_USART_CTRLB_RXEN_Pos) |
    281a:	4313      	orrs	r3, r2
	ctrlb =  
    281c:	62bb      	str	r3, [r7, #40]	; 0x28

#ifdef FEATURE_USART_ISO7816
	if(config->iso7816_config.enabled) {
    281e:	683b      	ldr	r3, [r7, #0]
    2820:	2220      	movs	r2, #32
    2822:	5c9b      	ldrb	r3, [r3, r2]
    2824:	2b00      	cmp	r3, #0
    2826:	d033      	beq.n	2890 <_usart_set_config+0x2d8>
		ctrla |= SERCOM_USART_CTRLA_FORM(0x07);
    2828:	6afb      	ldr	r3, [r7, #44]	; 0x2c
    282a:	22e0      	movs	r2, #224	; 0xe0
    282c:	04d2      	lsls	r2, r2, #19
    282e:	4313      	orrs	r3, r2
    2830:	62fb      	str	r3, [r7, #44]	; 0x2c
		if (config->iso7816_config.enable_inverse) {
    2832:	683b      	ldr	r3, [r7, #0]
    2834:	2228      	movs	r2, #40	; 0x28
    2836:	5c9b      	ldrb	r3, [r3, r2]
    2838:	2b00      	cmp	r3, #0
    283a:	d004      	beq.n	2846 <_usart_set_config+0x28e>
			ctrla |= SERCOM_USART_CTRLA_TXINV | SERCOM_USART_CTRLA_RXINV;
    283c:	6afb      	ldr	r3, [r7, #44]	; 0x2c
    283e:	22c0      	movs	r2, #192	; 0xc0
    2840:	00d2      	lsls	r2, r2, #3
    2842:	4313      	orrs	r3, r2
    2844:	62fb      	str	r3, [r7, #44]	; 0x2c
		}
		ctrlb |=  USART_CHARACTER_SIZE_8BIT;
		
		switch(config->iso7816_config.protocol_t) {
    2846:	683b      	ldr	r3, [r7, #0]
    2848:	6a5b      	ldr	r3, [r3, #36]	; 0x24
    284a:	2b00      	cmp	r3, #0
    284c:	d050      	beq.n	28f0 <_usart_set_config+0x338>
    284e:	2280      	movs	r2, #128	; 0x80
    2850:	0552      	lsls	r2, r2, #21
    2852:	4293      	cmp	r3, r2
    2854:	d14d      	bne.n	28f2 <_usart_set_config+0x33a>
			case ISO7816_PROTOCOL_T_0:
				ctrlb |= (uint32_t)config->stopbits;	
    2856:	683b      	ldr	r3, [r7, #0]
    2858:	7a9b      	ldrb	r3, [r3, #10]
    285a:	001a      	movs	r2, r3
    285c:	6abb      	ldr	r3, [r7, #40]	; 0x28
    285e:	4313      	orrs	r3, r2
    2860:	62bb      	str	r3, [r7, #40]	; 0x28
				ctrlc |= SERCOM_USART_CTRLC_GTIME(config->iso7816_config.guard_time) | \
    2862:	683b      	ldr	r3, [r7, #0]
    2864:	2229      	movs	r2, #41	; 0x29
    2866:	5c9b      	ldrb	r3, [r3, r2]
    2868:	001a      	movs	r2, r3
    286a:	2307      	movs	r3, #7
    286c:	401a      	ands	r2, r3
						(config->iso7816_config.inhibit_nack) | \
    286e:	683b      	ldr	r3, [r7, #0]
    2870:	6adb      	ldr	r3, [r3, #44]	; 0x2c
				ctrlc |= SERCOM_USART_CTRLC_GTIME(config->iso7816_config.guard_time) | \
    2872:	431a      	orrs	r2, r3
						(config->iso7816_config.successive_recv_nack) | \
    2874:	683b      	ldr	r3, [r7, #0]
    2876:	6b1b      	ldr	r3, [r3, #48]	; 0x30
						(config->iso7816_config.inhibit_nack) | \
    2878:	431a      	orrs	r2, r3
						SERCOM_USART_CTRLC_MAXITER(config->iso7816_config.max_iterations);
    287a:	683b      	ldr	r3, [r7, #0]
    287c:	6b5b      	ldr	r3, [r3, #52]	; 0x34
    287e:	0519      	lsls	r1, r3, #20
    2880:	23e0      	movs	r3, #224	; 0xe0
    2882:	03db      	lsls	r3, r3, #15
    2884:	400b      	ands	r3, r1
						(config->iso7816_config.successive_recv_nack) | \
    2886:	4313      	orrs	r3, r2
				ctrlc |= SERCOM_USART_CTRLC_GTIME(config->iso7816_config.guard_time) | \
    2888:	6a7a      	ldr	r2, [r7, #36]	; 0x24
    288a:	4313      	orrs	r3, r2
    288c:	627b      	str	r3, [r7, #36]	; 0x24
				break;	
    288e:	e030      	b.n	28f2 <_usart_set_config+0x33a>
				ctrlb |= USART_STOPBITS_1;
				break;		
		}
	} else {
#endif
	ctrlb |= (uint32_t)config->stopbits;
    2890:	683b      	ldr	r3, [r7, #0]
    2892:	7a9b      	ldrb	r3, [r3, #10]
    2894:	001a      	movs	r2, r3
    2896:	6abb      	ldr	r3, [r7, #40]	; 0x28
    2898:	4313      	orrs	r3, r2
    289a:	62bb      	str	r3, [r7, #40]	; 0x28
	ctrlb |= (uint32_t)config->character_size;
    289c:	683b      	ldr	r3, [r7, #0]
    289e:	7adb      	ldrb	r3, [r3, #11]
    28a0:	001a      	movs	r2, r3
    28a2:	6abb      	ldr	r3, [r7, #40]	; 0x28
    28a4:	4313      	orrs	r3, r2
    28a6:	62bb      	str	r3, [r7, #40]	; 0x28
	/* Check parity mode bits */
	if (config->parity != USART_PARITY_NONE) {
    28a8:	683b      	ldr	r3, [r7, #0]
    28aa:	891b      	ldrh	r3, [r3, #8]
    28ac:	2bff      	cmp	r3, #255	; 0xff
    28ae:	d00b      	beq.n	28c8 <_usart_set_config+0x310>
		ctrla |= SERCOM_USART_CTRLA_FORM(1);
    28b0:	6afb      	ldr	r3, [r7, #44]	; 0x2c
    28b2:	2280      	movs	r2, #128	; 0x80
    28b4:	0452      	lsls	r2, r2, #17
    28b6:	4313      	orrs	r3, r2
    28b8:	62fb      	str	r3, [r7, #44]	; 0x2c
		ctrlb |= config->parity;
    28ba:	683b      	ldr	r3, [r7, #0]
    28bc:	891b      	ldrh	r3, [r3, #8]
    28be:	001a      	movs	r2, r3
    28c0:	6abb      	ldr	r3, [r7, #40]	; 0x28
    28c2:	4313      	orrs	r3, r2
    28c4:	62bb      	str	r3, [r7, #40]	; 0x28
    28c6:	e014      	b.n	28f2 <_usart_set_config+0x33a>
	} else {
#ifdef FEATURE_USART_LIN_SLAVE
		if(config->lin_slave_enable) {
    28c8:	683b      	ldr	r3, [r7, #0]
    28ca:	7edb      	ldrb	r3, [r3, #27]
    28cc:	2b00      	cmp	r3, #0
    28ce:	d010      	beq.n	28f2 <_usart_set_config+0x33a>
			ctrla |= SERCOM_USART_CTRLA_FORM(0x4);
    28d0:	6afb      	ldr	r3, [r7, #44]	; 0x2c
    28d2:	2280      	movs	r2, #128	; 0x80
    28d4:	04d2      	lsls	r2, r2, #19
    28d6:	4313      	orrs	r3, r2
    28d8:	62fb      	str	r3, [r7, #44]	; 0x2c
    28da:	e00a      	b.n	28f2 <_usart_set_config+0x33a>
    28dc:	00002315 	.word	0x00002315
    28e0:	00003add 	.word	0x00003add
    28e4:	00001e8b 	.word	0x00001e8b
    28e8:	00001f09 	.word	0x00001f09
    28ec:	00002595 	.word	0x00002595
				break;		
    28f0:	46c0      	nop			; (mov r8, r8)
		ctrla |= config->lin_node;
	}
#endif

	/* Set whether module should run in standby. */
	if (config->run_in_standby || system_is_debugger_present()) {
    28f2:	683b      	ldr	r3, [r7, #0]
    28f4:	2248      	movs	r2, #72	; 0x48
    28f6:	5c9b      	ldrb	r3, [r3, r2]
    28f8:	2b00      	cmp	r3, #0
    28fa:	d103      	bne.n	2904 <_usart_set_config+0x34c>
    28fc:	4b20      	ldr	r3, [pc, #128]	; (2980 <_usart_set_config+0x3c8>)
    28fe:	4798      	blx	r3
    2900:	1e03      	subs	r3, r0, #0
    2902:	d003      	beq.n	290c <_usart_set_config+0x354>
		ctrla |= SERCOM_USART_CTRLA_RUNSTDBY;
    2904:	6afb      	ldr	r3, [r7, #44]	; 0x2c
    2906:	2280      	movs	r2, #128	; 0x80
    2908:	4313      	orrs	r3, r2
    290a:	62fb      	str	r3, [r7, #44]	; 0x2c
	}

	/* Wait until synchronization is complete */
	_usart_wait_for_sync(module);
    290c:	687b      	ldr	r3, [r7, #4]
    290e:	0018      	movs	r0, r3
    2910:	4b1c      	ldr	r3, [pc, #112]	; (2984 <_usart_set_config+0x3cc>)
    2912:	4798      	blx	r3

	/* Write configuration to CTRLB */
	usart_hw->CTRLB.reg = ctrlb;
    2914:	69bb      	ldr	r3, [r7, #24]
    2916:	6aba      	ldr	r2, [r7, #40]	; 0x28
    2918:	605a      	str	r2, [r3, #4]

	/* Wait until synchronization is complete */
	_usart_wait_for_sync(module);
    291a:	687b      	ldr	r3, [r7, #4]
    291c:	0018      	movs	r0, r3
    291e:	4b19      	ldr	r3, [pc, #100]	; (2984 <_usart_set_config+0x3cc>)
    2920:	4798      	blx	r3

	/* Write configuration to CTRLA */
	usart_hw->CTRLA.reg = ctrla;
    2922:	69bb      	ldr	r3, [r7, #24]
    2924:	6afa      	ldr	r2, [r7, #44]	; 0x2c
    2926:	601a      	str	r2, [r3, #0]

#ifdef FEATURE_USART_RS485
	if ((usart_hw->CTRLA.reg & SERCOM_USART_CTRLA_FORM_Msk) != \
    2928:	69bb      	ldr	r3, [r7, #24]
    292a:	681a      	ldr	r2, [r3, #0]
    292c:	23f0      	movs	r3, #240	; 0xf0
    292e:	051b      	lsls	r3, r3, #20
    2930:	401a      	ands	r2, r3
    2932:	23e0      	movs	r3, #224	; 0xe0
    2934:	04db      	lsls	r3, r3, #19
    2936:	429a      	cmp	r2, r3
    2938:	d011      	beq.n	295e <_usart_set_config+0x3a6>
		SERCOM_USART_CTRLA_FORM(0x07)) {
		usart_hw->CTRLC.reg &= ~(SERCOM_USART_CTRLC_GTIME(0x7));
    293a:	69bb      	ldr	r3, [r7, #24]
    293c:	689b      	ldr	r3, [r3, #8]
    293e:	2207      	movs	r2, #7
    2940:	4393      	bics	r3, r2
    2942:	001a      	movs	r2, r3
    2944:	69bb      	ldr	r3, [r7, #24]
    2946:	609a      	str	r2, [r3, #8]
		usart_hw->CTRLC.reg |= SERCOM_USART_CTRLC_GTIME(config->rs485_guard_time);
    2948:	69bb      	ldr	r3, [r7, #24]
    294a:	689a      	ldr	r2, [r3, #8]
    294c:	683b      	ldr	r3, [r7, #0]
    294e:	2138      	movs	r1, #56	; 0x38
    2950:	5c5b      	ldrb	r3, [r3, r1]
    2952:	0019      	movs	r1, r3
    2954:	2307      	movs	r3, #7
    2956:	400b      	ands	r3, r1
    2958:	431a      	orrs	r2, r3
    295a:	69bb      	ldr	r3, [r7, #24]
    295c:	609a      	str	r2, [r3, #8]
	}
#endif

#ifdef FEATURE_USART_ISO7816
	if(config->iso7816_config.enabled) {
    295e:	683b      	ldr	r3, [r7, #0]
    2960:	2220      	movs	r2, #32
    2962:	5c9b      	ldrb	r3, [r3, r2]
    2964:	2b00      	cmp	r3, #0
    2966:	d006      	beq.n	2976 <_usart_set_config+0x3be>
		_usart_wait_for_sync(module);
    2968:	687b      	ldr	r3, [r7, #4]
    296a:	0018      	movs	r0, r3
    296c:	4b05      	ldr	r3, [pc, #20]	; (2984 <_usart_set_config+0x3cc>)
    296e:	4798      	blx	r3
		usart_hw->CTRLC.reg = ctrlc;
    2970:	69bb      	ldr	r3, [r7, #24]
    2972:	6a7a      	ldr	r2, [r7, #36]	; 0x24
    2974:	609a      	str	r2, [r3, #8]
	}
#endif

	return STATUS_OK;
    2976:	2300      	movs	r3, #0
}
    2978:	0018      	movs	r0, r3
    297a:	46bd      	mov	sp, r7
    297c:	b00c      	add	sp, #48	; 0x30
    297e:	bdb0      	pop	{r4, r5, r7, pc}
    2980:	00002555 	.word	0x00002555
    2984:	00002595 	.word	0x00002595

00002988 <usart_init>:
 */
enum status_code usart_init(
		struct usart_module *const module,
		Sercom *const hw,
		const struct usart_config *const config)
{
    2988:	b590      	push	{r4, r7, lr}
    298a:	b093      	sub	sp, #76	; 0x4c
    298c:	af00      	add	r7, sp, #0
    298e:	60f8      	str	r0, [r7, #12]
    2990:	60b9      	str	r1, [r7, #8]
    2992:	607a      	str	r2, [r7, #4]
	/* Sanity check arguments */
	Assert(module);
	Assert(hw);
	Assert(config);

	enum status_code status_code = STATUS_OK;
    2994:	233b      	movs	r3, #59	; 0x3b
    2996:	18fb      	adds	r3, r7, r3
    2998:	2200      	movs	r2, #0
    299a:	701a      	strb	r2, [r3, #0]

	/* Assign module pointer to software instance struct */
	module->hw = hw;
    299c:	68fb      	ldr	r3, [r7, #12]
    299e:	68ba      	ldr	r2, [r7, #8]
    29a0:	601a      	str	r2, [r3, #0]

	/* Get a pointer to the hardware module instance */
	SercomUsart *const usart_hw = &(module->hw->USART);
    29a2:	68fb      	ldr	r3, [r7, #12]
    29a4:	681b      	ldr	r3, [r3, #0]
    29a6:	637b      	str	r3, [r7, #52]	; 0x34

	uint32_t sercom_index = _sercom_get_sercom_inst_index(module->hw);
    29a8:	68fb      	ldr	r3, [r7, #12]
    29aa:	681b      	ldr	r3, [r3, #0]
    29ac:	0018      	movs	r0, r3
    29ae:	4b88      	ldr	r3, [pc, #544]	; (2bd0 <usart_init+0x248>)
    29b0:	4798      	blx	r3
    29b2:	0003      	movs	r3, r0
    29b4:	633b      	str	r3, [r7, #48]	; 0x30
	uint32_t pm_index, gclk_index; 
#if (SAML22) || (SAMC20) 
	pm_index	= sercom_index + MCLK_APBCMASK_SERCOM0_Pos;
    29b6:	6b3b      	ldr	r3, [r7, #48]	; 0x30
    29b8:	3301      	adds	r3, #1
    29ba:	62fb      	str	r3, [r7, #44]	; 0x2c
	gclk_index	= sercom_index + SERCOM0_GCLK_ID_CORE;
    29bc:	6b3b      	ldr	r3, [r7, #48]	; 0x30
    29be:	3310      	adds	r3, #16
    29c0:	62bb      	str	r3, [r7, #40]	; 0x28
#else
	pm_index     = sercom_index + PM_APBCMASK_SERCOM0_Pos;
	gclk_index   = sercom_index + SERCOM0_GCLK_ID_CORE;
#endif

	if (usart_hw->CTRLA.reg & SERCOM_USART_CTRLA_SWRST) {
    29c2:	6b7b      	ldr	r3, [r7, #52]	; 0x34
    29c4:	681b      	ldr	r3, [r3, #0]
    29c6:	2201      	movs	r2, #1
    29c8:	4013      	ands	r3, r2
    29ca:	d001      	beq.n	29d0 <usart_init+0x48>
		/* The module is busy resetting itself */
		return STATUS_BUSY;
    29cc:	2305      	movs	r3, #5
    29ce:	e0fb      	b.n	2bc8 <usart_init+0x240>
	}

	if (usart_hw->CTRLA.reg & SERCOM_USART_CTRLA_ENABLE) {
    29d0:	6b7b      	ldr	r3, [r7, #52]	; 0x34
    29d2:	681b      	ldr	r3, [r3, #0]
    29d4:	2202      	movs	r2, #2
    29d6:	4013      	ands	r3, r2
    29d8:	d001      	beq.n	29de <usart_init+0x56>
		/* Check the module is enabled */
		return STATUS_ERR_DENIED;
    29da:	231c      	movs	r3, #28
    29dc:	e0f4      	b.n	2bc8 <usart_init+0x240>
		system_apb_clock_set_mask(SYSTEM_CLOCK_APB_APBD, 1 << pm_index);
	} else {
		system_apb_clock_set_mask(SYSTEM_CLOCK_APB_APBC, 1 << pm_index);	
	}
#else
	system_apb_clock_set_mask(SYSTEM_CLOCK_APB_APBC, 1 << pm_index);
    29de:	2201      	movs	r2, #1
    29e0:	6afb      	ldr	r3, [r7, #44]	; 0x2c
    29e2:	409a      	lsls	r2, r3
    29e4:	0013      	movs	r3, r2
    29e6:	0019      	movs	r1, r3
    29e8:	2002      	movs	r0, #2
    29ea:	4b7a      	ldr	r3, [pc, #488]	; (2bd4 <usart_init+0x24c>)
    29ec:	4798      	blx	r3
#endif

	/* Set up the GCLK for the module */
	struct system_gclk_chan_config gclk_chan_conf;
	system_gclk_chan_get_config_defaults(&gclk_chan_conf);
    29ee:	2324      	movs	r3, #36	; 0x24
    29f0:	18fb      	adds	r3, r7, r3
    29f2:	0018      	movs	r0, r3
    29f4:	4b78      	ldr	r3, [pc, #480]	; (2bd8 <usart_init+0x250>)
    29f6:	4798      	blx	r3
	gclk_chan_conf.source_generator = config->generator_source;
    29f8:	687b      	ldr	r3, [r7, #4]
    29fa:	2249      	movs	r2, #73	; 0x49
    29fc:	5c9a      	ldrb	r2, [r3, r2]
    29fe:	2324      	movs	r3, #36	; 0x24
    2a00:	18fb      	adds	r3, r7, r3
    2a02:	701a      	strb	r2, [r3, #0]
	system_gclk_chan_set_config(gclk_index, &gclk_chan_conf);
    2a04:	6abb      	ldr	r3, [r7, #40]	; 0x28
    2a06:	b2db      	uxtb	r3, r3
    2a08:	2224      	movs	r2, #36	; 0x24
    2a0a:	18ba      	adds	r2, r7, r2
    2a0c:	0011      	movs	r1, r2
    2a0e:	0018      	movs	r0, r3
    2a10:	4b72      	ldr	r3, [pc, #456]	; (2bdc <usart_init+0x254>)
    2a12:	4798      	blx	r3
	system_gclk_chan_enable(gclk_index);
    2a14:	6abb      	ldr	r3, [r7, #40]	; 0x28
    2a16:	b2db      	uxtb	r3, r3
    2a18:	0018      	movs	r0, r3
    2a1a:	4b71      	ldr	r3, [pc, #452]	; (2be0 <usart_init+0x258>)
    2a1c:	4798      	blx	r3
	sercom_set_gclk_generator(config->generator_source, false);
    2a1e:	687b      	ldr	r3, [r7, #4]
    2a20:	2249      	movs	r2, #73	; 0x49
    2a22:	5c9b      	ldrb	r3, [r3, r2]
    2a24:	2100      	movs	r1, #0
    2a26:	0018      	movs	r0, r3
    2a28:	4b6e      	ldr	r3, [pc, #440]	; (2be4 <usart_init+0x25c>)
    2a2a:	4798      	blx	r3

	/* Set character size */
	module->character_size = config->character_size;
    2a2c:	687b      	ldr	r3, [r7, #4]
    2a2e:	7ada      	ldrb	r2, [r3, #11]
    2a30:	68fb      	ldr	r3, [r7, #12]
    2a32:	715a      	strb	r2, [r3, #5]

	/* Set transmitter and receiver status */
	module->receiver_enabled = config->receiver_enable;
    2a34:	687b      	ldr	r3, [r7, #4]
    2a36:	2240      	movs	r2, #64	; 0x40
    2a38:	5c9a      	ldrb	r2, [r3, r2]
    2a3a:	68fb      	ldr	r3, [r7, #12]
    2a3c:	719a      	strb	r2, [r3, #6]
	module->transmitter_enabled = config->transmitter_enable;
    2a3e:	687b      	ldr	r3, [r7, #4]
    2a40:	2241      	movs	r2, #65	; 0x41
    2a42:	5c9a      	ldrb	r2, [r3, r2]
    2a44:	68fb      	ldr	r3, [r7, #12]
    2a46:	71da      	strb	r2, [r3, #7]

#ifdef FEATURE_USART_LIN_SLAVE
	module->lin_slave_enabled = config->lin_slave_enable;
    2a48:	687b      	ldr	r3, [r7, #4]
    2a4a:	7eda      	ldrb	r2, [r3, #27]
    2a4c:	68fb      	ldr	r3, [r7, #12]
    2a4e:	721a      	strb	r2, [r3, #8]
#endif
#ifdef FEATURE_USART_START_FRAME_DECTION
	module->start_frame_detection_enabled = config->start_frame_detection_enable;
    2a50:	687b      	ldr	r3, [r7, #4]
    2a52:	7f1a      	ldrb	r2, [r3, #28]
    2a54:	68fb      	ldr	r3, [r7, #12]
    2a56:	725a      	strb	r2, [r3, #9]
#endif
#ifdef FEATURE_USART_ISO7816
	module->iso7816_mode_enabled = config->iso7816_config.enabled;
    2a58:	687b      	ldr	r3, [r7, #4]
    2a5a:	2220      	movs	r2, #32
    2a5c:	5c9a      	ldrb	r2, [r3, r2]
    2a5e:	68fb      	ldr	r3, [r7, #12]
    2a60:	729a      	strb	r2, [r3, #10]
#endif
	/* Set configuration according to the config struct */
	status_code = _usart_set_config(module, config);
    2a62:	233b      	movs	r3, #59	; 0x3b
    2a64:	18fc      	adds	r4, r7, r3
    2a66:	687a      	ldr	r2, [r7, #4]
    2a68:	68fb      	ldr	r3, [r7, #12]
    2a6a:	0011      	movs	r1, r2
    2a6c:	0018      	movs	r0, r3
    2a6e:	4b5e      	ldr	r3, [pc, #376]	; (2be8 <usart_init+0x260>)
    2a70:	4798      	blx	r3
    2a72:	0003      	movs	r3, r0
    2a74:	7023      	strb	r3, [r4, #0]
	if(status_code != STATUS_OK) {
    2a76:	233b      	movs	r3, #59	; 0x3b
    2a78:	18fb      	adds	r3, r7, r3
    2a7a:	781b      	ldrb	r3, [r3, #0]
    2a7c:	2b00      	cmp	r3, #0
    2a7e:	d003      	beq.n	2a88 <usart_init+0x100>
		return status_code;
    2a80:	233b      	movs	r3, #59	; 0x3b
    2a82:	18fb      	adds	r3, r7, r3
    2a84:	781b      	ldrb	r3, [r3, #0]
    2a86:	e09f      	b.n	2bc8 <usart_init+0x240>
	}

	struct system_pinmux_config pin_conf;
	system_pinmux_get_config_defaults(&pin_conf);
    2a88:	2320      	movs	r3, #32
    2a8a:	18fb      	adds	r3, r7, r3
    2a8c:	0018      	movs	r0, r3
    2a8e:	4b57      	ldr	r3, [pc, #348]	; (2bec <usart_init+0x264>)
    2a90:	4798      	blx	r3
	pin_conf.direction = SYSTEM_PINMUX_PIN_DIR_INPUT;
    2a92:	2320      	movs	r3, #32
    2a94:	18fb      	adds	r3, r7, r3
    2a96:	2200      	movs	r2, #0
    2a98:	705a      	strb	r2, [r3, #1]
	pin_conf.input_pull = SYSTEM_PINMUX_PIN_PULL_NONE;
    2a9a:	2320      	movs	r3, #32
    2a9c:	18fb      	adds	r3, r7, r3
    2a9e:	2200      	movs	r2, #0
    2aa0:	709a      	strb	r2, [r3, #2]

	uint32_t pad_pinmuxes[] = {
			config->pinmux_pad0, config->pinmux_pad1,
    2aa2:	687b      	ldr	r3, [r7, #4]
    2aa4:	6cda      	ldr	r2, [r3, #76]	; 0x4c
	uint32_t pad_pinmuxes[] = {
    2aa6:	2310      	movs	r3, #16
    2aa8:	18fb      	adds	r3, r7, r3
    2aaa:	601a      	str	r2, [r3, #0]
			config->pinmux_pad0, config->pinmux_pad1,
    2aac:	687b      	ldr	r3, [r7, #4]
    2aae:	6d1a      	ldr	r2, [r3, #80]	; 0x50
	uint32_t pad_pinmuxes[] = {
    2ab0:	2310      	movs	r3, #16
    2ab2:	18fb      	adds	r3, r7, r3
    2ab4:	605a      	str	r2, [r3, #4]
			config->pinmux_pad2, config->pinmux_pad3
    2ab6:	687b      	ldr	r3, [r7, #4]
    2ab8:	6d5a      	ldr	r2, [r3, #84]	; 0x54
	uint32_t pad_pinmuxes[] = {
    2aba:	2310      	movs	r3, #16
    2abc:	18fb      	adds	r3, r7, r3
    2abe:	609a      	str	r2, [r3, #8]
			config->pinmux_pad2, config->pinmux_pad3
    2ac0:	687b      	ldr	r3, [r7, #4]
    2ac2:	6d9a      	ldr	r2, [r3, #88]	; 0x58
	uint32_t pad_pinmuxes[] = {
    2ac4:	2310      	movs	r3, #16
    2ac6:	18fb      	adds	r3, r7, r3
    2ac8:	60da      	str	r2, [r3, #12]
		};

	/* Configure the SERCOM pins according to the user configuration */
	for (uint8_t pad = 0; pad < 4; pad++) {
    2aca:	2347      	movs	r3, #71	; 0x47
    2acc:	18fb      	adds	r3, r7, r3
    2ace:	2200      	movs	r2, #0
    2ad0:	701a      	strb	r2, [r3, #0]
    2ad2:	e02c      	b.n	2b2e <usart_init+0x1a6>
		uint32_t current_pinmux = pad_pinmuxes[pad];
    2ad4:	2347      	movs	r3, #71	; 0x47
    2ad6:	18fb      	adds	r3, r7, r3
    2ad8:	781a      	ldrb	r2, [r3, #0]
    2ada:	2310      	movs	r3, #16
    2adc:	18fb      	adds	r3, r7, r3
    2ade:	0092      	lsls	r2, r2, #2
    2ae0:	58d3      	ldr	r3, [r2, r3]
    2ae2:	643b      	str	r3, [r7, #64]	; 0x40

		if (current_pinmux == PINMUX_DEFAULT) {
    2ae4:	6c3b      	ldr	r3, [r7, #64]	; 0x40
    2ae6:	2b00      	cmp	r3, #0
    2ae8:	d109      	bne.n	2afe <usart_init+0x176>
			current_pinmux = _sercom_get_default_pad(hw, pad);
    2aea:	2347      	movs	r3, #71	; 0x47
    2aec:	18fb      	adds	r3, r7, r3
    2aee:	781a      	ldrb	r2, [r3, #0]
    2af0:	68bb      	ldr	r3, [r7, #8]
    2af2:	0011      	movs	r1, r2
    2af4:	0018      	movs	r0, r3
    2af6:	4b3e      	ldr	r3, [pc, #248]	; (2bf0 <usart_init+0x268>)
    2af8:	4798      	blx	r3
    2afa:	0003      	movs	r3, r0
    2afc:	643b      	str	r3, [r7, #64]	; 0x40
		}

		if (current_pinmux != PINMUX_UNUSED) {
    2afe:	6c3b      	ldr	r3, [r7, #64]	; 0x40
    2b00:	3301      	adds	r3, #1
    2b02:	d00d      	beq.n	2b20 <usart_init+0x198>
			pin_conf.mux_position = current_pinmux & 0xFFFF;
    2b04:	6c3b      	ldr	r3, [r7, #64]	; 0x40
    2b06:	b2da      	uxtb	r2, r3
    2b08:	2320      	movs	r3, #32
    2b0a:	18fb      	adds	r3, r7, r3
    2b0c:	701a      	strb	r2, [r3, #0]
			system_pinmux_pin_set_config(current_pinmux >> 16, &pin_conf);
    2b0e:	6c3b      	ldr	r3, [r7, #64]	; 0x40
    2b10:	0c1b      	lsrs	r3, r3, #16
    2b12:	b2db      	uxtb	r3, r3
    2b14:	2220      	movs	r2, #32
    2b16:	18ba      	adds	r2, r7, r2
    2b18:	0011      	movs	r1, r2
    2b1a:	0018      	movs	r0, r3
    2b1c:	4b35      	ldr	r3, [pc, #212]	; (2bf4 <usart_init+0x26c>)
    2b1e:	4798      	blx	r3
	for (uint8_t pad = 0; pad < 4; pad++) {
    2b20:	2347      	movs	r3, #71	; 0x47
    2b22:	18fb      	adds	r3, r7, r3
    2b24:	781a      	ldrb	r2, [r3, #0]
    2b26:	2347      	movs	r3, #71	; 0x47
    2b28:	18fb      	adds	r3, r7, r3
    2b2a:	3201      	adds	r2, #1
    2b2c:	701a      	strb	r2, [r3, #0]
    2b2e:	2347      	movs	r3, #71	; 0x47
    2b30:	18fb      	adds	r3, r7, r3
    2b32:	781b      	ldrb	r3, [r3, #0]
    2b34:	2b03      	cmp	r3, #3
    2b36:	d9cd      	bls.n	2ad4 <usart_init+0x14c>
		}
	}

#if USART_CALLBACK_MODE == true
	/* Initialize parameters */
	for (uint32_t i = 0; i < USART_CALLBACK_N; i++) {
    2b38:	2300      	movs	r3, #0
    2b3a:	63fb      	str	r3, [r7, #60]	; 0x3c
    2b3c:	e00a      	b.n	2b54 <usart_init+0x1cc>
		module->callback[i]            = NULL;
    2b3e:	68fa      	ldr	r2, [r7, #12]
    2b40:	6bfb      	ldr	r3, [r7, #60]	; 0x3c
    2b42:	3302      	adds	r3, #2
    2b44:	009b      	lsls	r3, r3, #2
    2b46:	18d3      	adds	r3, r2, r3
    2b48:	3304      	adds	r3, #4
    2b4a:	2200      	movs	r2, #0
    2b4c:	601a      	str	r2, [r3, #0]
	for (uint32_t i = 0; i < USART_CALLBACK_N; i++) {
    2b4e:	6bfb      	ldr	r3, [r7, #60]	; 0x3c
    2b50:	3301      	adds	r3, #1
    2b52:	63fb      	str	r3, [r7, #60]	; 0x3c
    2b54:	6bfb      	ldr	r3, [r7, #60]	; 0x3c
    2b56:	2b05      	cmp	r3, #5
    2b58:	d9f1      	bls.n	2b3e <usart_init+0x1b6>
	}

	module->tx_buffer_ptr              = NULL;
    2b5a:	68fb      	ldr	r3, [r7, #12]
    2b5c:	2200      	movs	r2, #0
    2b5e:	629a      	str	r2, [r3, #40]	; 0x28
	module->rx_buffer_ptr              = NULL;
    2b60:	68fb      	ldr	r3, [r7, #12]
    2b62:	2200      	movs	r2, #0
    2b64:	625a      	str	r2, [r3, #36]	; 0x24
	module->remaining_tx_buffer_length = 0x0000;
    2b66:	68fb      	ldr	r3, [r7, #12]
    2b68:	2200      	movs	r2, #0
    2b6a:	85da      	strh	r2, [r3, #46]	; 0x2e
	module->remaining_rx_buffer_length = 0x0000;
    2b6c:	68fb      	ldr	r3, [r7, #12]
    2b6e:	2200      	movs	r2, #0
    2b70:	859a      	strh	r2, [r3, #44]	; 0x2c
	module->callback_reg_mask          = 0x00;
    2b72:	68fb      	ldr	r3, [r7, #12]
    2b74:	2230      	movs	r2, #48	; 0x30
    2b76:	2100      	movs	r1, #0
    2b78:	5499      	strb	r1, [r3, r2]
	module->callback_enable_mask       = 0x00;
    2b7a:	68fb      	ldr	r3, [r7, #12]
    2b7c:	2231      	movs	r2, #49	; 0x31
    2b7e:	2100      	movs	r1, #0
    2b80:	5499      	strb	r1, [r3, r2]
	module->rx_status                  = STATUS_OK;
    2b82:	68fb      	ldr	r3, [r7, #12]
    2b84:	2232      	movs	r2, #50	; 0x32
    2b86:	2100      	movs	r1, #0
    2b88:	5499      	strb	r1, [r3, r2]
	module->tx_status                  = STATUS_OK;
    2b8a:	68fb      	ldr	r3, [r7, #12]
    2b8c:	2233      	movs	r2, #51	; 0x33
    2b8e:	2100      	movs	r1, #0
    2b90:	5499      	strb	r1, [r3, r2]

	/* Set interrupt handler and register USART software module struct in
	 * look-up table */
	uint8_t instance_index = _sercom_get_sercom_inst_index(module->hw);
    2b92:	68fb      	ldr	r3, [r7, #12]
    2b94:	681b      	ldr	r3, [r3, #0]
    2b96:	2227      	movs	r2, #39	; 0x27
    2b98:	18bc      	adds	r4, r7, r2
    2b9a:	0018      	movs	r0, r3
    2b9c:	4b0c      	ldr	r3, [pc, #48]	; (2bd0 <usart_init+0x248>)
    2b9e:	4798      	blx	r3
    2ba0:	0003      	movs	r3, r0
    2ba2:	7023      	strb	r3, [r4, #0]
	_sercom_set_handler(instance_index, _usart_interrupt_handler);
    2ba4:	4a14      	ldr	r2, [pc, #80]	; (2bf8 <usart_init+0x270>)
    2ba6:	2327      	movs	r3, #39	; 0x27
    2ba8:	18fb      	adds	r3, r7, r3
    2baa:	781b      	ldrb	r3, [r3, #0]
    2bac:	0011      	movs	r1, r2
    2bae:	0018      	movs	r0, r3
    2bb0:	4b12      	ldr	r3, [pc, #72]	; (2bfc <usart_init+0x274>)
    2bb2:	4798      	blx	r3
	_sercom_instances[instance_index] = module;
    2bb4:	2327      	movs	r3, #39	; 0x27
    2bb6:	18fb      	adds	r3, r7, r3
    2bb8:	781a      	ldrb	r2, [r3, #0]
    2bba:	4b11      	ldr	r3, [pc, #68]	; (2c00 <usart_init+0x278>)
    2bbc:	0092      	lsls	r2, r2, #2
    2bbe:	68f9      	ldr	r1, [r7, #12]
    2bc0:	50d1      	str	r1, [r2, r3]
#endif

	return status_code;
    2bc2:	233b      	movs	r3, #59	; 0x3b
    2bc4:	18fb      	adds	r3, r7, r3
    2bc6:	781b      	ldrb	r3, [r3, #0]
}
    2bc8:	0018      	movs	r0, r3
    2bca:	46bd      	mov	sp, r7
    2bcc:	b013      	add	sp, #76	; 0x4c
    2bce:	bd90      	pop	{r4, r7, pc}
    2bd0:	00002315 	.word	0x00002315
    2bd4:	000024d1 	.word	0x000024d1
    2bd8:	000024b9 	.word	0x000024b9
    2bdc:	000039ed 	.word	0x000039ed
    2be0:	00003a2d 	.word	0x00003a2d
    2be4:	000020c9 	.word	0x000020c9
    2be8:	000025b9 	.word	0x000025b9
    2bec:	0000252d 	.word	0x0000252d
    2bf0:	00002155 	.word	0x00002155
    2bf4:	00003ca1 	.word	0x00003ca1
    2bf8:	00002d95 	.word	0x00002d95
    2bfc:	00002379 	.word	0x00002379
    2c00:	2000399c 	.word	0x2000399c

00002c04 <usart_write_wait>:
 * \retval STATUS_ERR_DENIED If the transmitter is not enabled
 */
enum status_code usart_write_wait(
		struct usart_module *const module,
		const uint16_t tx_data)
{
    2c04:	b580      	push	{r7, lr}
    2c06:	b084      	sub	sp, #16
    2c08:	af00      	add	r7, sp, #0
    2c0a:	6078      	str	r0, [r7, #4]
    2c0c:	000a      	movs	r2, r1
    2c0e:	1cbb      	adds	r3, r7, #2
    2c10:	801a      	strh	r2, [r3, #0]
	/* Sanity check arguments */
	Assert(module);
	Assert(module->hw);

	/* Get a pointer to the hardware module instance */
	SercomUsart *const usart_hw = &(module->hw->USART);
    2c12:	687b      	ldr	r3, [r7, #4]
    2c14:	681b      	ldr	r3, [r3, #0]
    2c16:	60fb      	str	r3, [r7, #12]

	/* Check that the transmitter is enabled */
	if (!(module->transmitter_enabled)) {
    2c18:	687b      	ldr	r3, [r7, #4]
    2c1a:	79db      	ldrb	r3, [r3, #7]
    2c1c:	2201      	movs	r2, #1
    2c1e:	4053      	eors	r3, r2
    2c20:	b2db      	uxtb	r3, r3
    2c22:	2b00      	cmp	r3, #0
    2c24:	d001      	beq.n	2c2a <usart_write_wait+0x26>
		return STATUS_ERR_DENIED;
    2c26:	231c      	movs	r3, #28
    2c28:	e017      	b.n	2c5a <usart_write_wait+0x56>
	}

#if USART_CALLBACK_MODE == true
	/* Check if the USART is busy doing asynchronous operation. */
	if (module->remaining_tx_buffer_length > 0) {
    2c2a:	687b      	ldr	r3, [r7, #4]
    2c2c:	8ddb      	ldrh	r3, [r3, #46]	; 0x2e
    2c2e:	b29b      	uxth	r3, r3
    2c30:	2b00      	cmp	r3, #0
    2c32:	d001      	beq.n	2c38 <usart_write_wait+0x34>
		return STATUS_BUSY;
    2c34:	2305      	movs	r3, #5
    2c36:	e010      	b.n	2c5a <usart_write_wait+0x56>
		return STATUS_BUSY;
	}
#endif

	/* Wait until synchronization is complete */
	_usart_wait_for_sync(module);
    2c38:	687b      	ldr	r3, [r7, #4]
    2c3a:	0018      	movs	r0, r3
    2c3c:	4b09      	ldr	r3, [pc, #36]	; (2c64 <usart_write_wait+0x60>)
    2c3e:	4798      	blx	r3

	/* Write data to USART module */
	usart_hw->DATA.reg = tx_data;
    2c40:	68fb      	ldr	r3, [r7, #12]
    2c42:	1cba      	adds	r2, r7, #2
    2c44:	8812      	ldrh	r2, [r2, #0]
    2c46:	851a      	strh	r2, [r3, #40]	; 0x28

	while (!(usart_hw->INTFLAG.reg & SERCOM_USART_INTFLAG_TXC)) {
    2c48:	46c0      	nop			; (mov r8, r8)
    2c4a:	68fb      	ldr	r3, [r7, #12]
    2c4c:	7e1b      	ldrb	r3, [r3, #24]
    2c4e:	b2db      	uxtb	r3, r3
    2c50:	001a      	movs	r2, r3
    2c52:	2302      	movs	r3, #2
    2c54:	4013      	ands	r3, r2
    2c56:	d0f8      	beq.n	2c4a <usart_write_wait+0x46>
		/* Wait until data is sent */
	}

	return STATUS_OK;
    2c58:	2300      	movs	r3, #0
}
    2c5a:	0018      	movs	r0, r3
    2c5c:	46bd      	mov	sp, r7
    2c5e:	b004      	add	sp, #16
    2c60:	bd80      	pop	{r7, pc}
    2c62:	46c0      	nop			; (mov r8, r8)
    2c64:	00002595 	.word	0x00002595

00002c68 <usart_read_wait>:
 * \retval STATUS_ERR_DENIED        If the receiver is not enabled
 */
enum status_code usart_read_wait(
		struct usart_module *const module,
		uint16_t *const rx_data)
{
    2c68:	b580      	push	{r7, lr}
    2c6a:	b084      	sub	sp, #16
    2c6c:	af00      	add	r7, sp, #0
    2c6e:	6078      	str	r0, [r7, #4]
    2c70:	6039      	str	r1, [r7, #0]

	/* Error variable */
	uint8_t error_code;

	/* Get a pointer to the hardware module instance */
	SercomUsart *const usart_hw = &(module->hw->USART);
    2c72:	687b      	ldr	r3, [r7, #4]
    2c74:	681b      	ldr	r3, [r3, #0]
    2c76:	60fb      	str	r3, [r7, #12]

	/* Check that the receiver is enabled */
	if (!(module->receiver_enabled)) {
    2c78:	687b      	ldr	r3, [r7, #4]
    2c7a:	799b      	ldrb	r3, [r3, #6]
    2c7c:	2201      	movs	r2, #1
    2c7e:	4053      	eors	r3, r2
    2c80:	b2db      	uxtb	r3, r3
    2c82:	2b00      	cmp	r3, #0
    2c84:	d001      	beq.n	2c8a <usart_read_wait+0x22>
		return STATUS_ERR_DENIED;
    2c86:	231c      	movs	r3, #28
    2c88:	e05b      	b.n	2d42 <usart_read_wait+0xda>
	}

#if USART_CALLBACK_MODE == true
	/* Check if the USART is busy doing asynchronous operation. */
	if (module->remaining_rx_buffer_length > 0) {
    2c8a:	687b      	ldr	r3, [r7, #4]
    2c8c:	8d9b      	ldrh	r3, [r3, #44]	; 0x2c
    2c8e:	b29b      	uxth	r3, r3
    2c90:	2b00      	cmp	r3, #0
    2c92:	d001      	beq.n	2c98 <usart_read_wait+0x30>
		return STATUS_BUSY;
    2c94:	2305      	movs	r3, #5
    2c96:	e054      	b.n	2d42 <usart_read_wait+0xda>
	}
#endif

	/* Check if USART has new data */
	if (!(usart_hw->INTFLAG.reg & SERCOM_USART_INTFLAG_RXC)) {
    2c98:	68fb      	ldr	r3, [r7, #12]
    2c9a:	7e1b      	ldrb	r3, [r3, #24]
    2c9c:	b2db      	uxtb	r3, r3
    2c9e:	001a      	movs	r2, r3
    2ca0:	2304      	movs	r3, #4
    2ca2:	4013      	ands	r3, r2
    2ca4:	d101      	bne.n	2caa <usart_read_wait+0x42>
		/* Return error code */
		return STATUS_BUSY;
    2ca6:	2305      	movs	r3, #5
    2ca8:	e04b      	b.n	2d42 <usart_read_wait+0xda>
	}

	/* Wait until synchronization is complete */
	_usart_wait_for_sync(module);
    2caa:	687b      	ldr	r3, [r7, #4]
    2cac:	0018      	movs	r0, r3
    2cae:	4b27      	ldr	r3, [pc, #156]	; (2d4c <usart_read_wait+0xe4>)
    2cb0:	4798      	blx	r3

	/* Read out the status code and mask away all but the 3 LSBs*/
	error_code = (uint8_t)(usart_hw->STATUS.reg & SERCOM_USART_STATUS_MASK);
    2cb2:	68fb      	ldr	r3, [r7, #12]
    2cb4:	8b5b      	ldrh	r3, [r3, #26]
    2cb6:	b29a      	uxth	r2, r3
    2cb8:	230b      	movs	r3, #11
    2cba:	18fb      	adds	r3, r7, r3
    2cbc:	701a      	strb	r2, [r3, #0]

	/* Check if an error has occurred during the receiving */
	if (error_code) {
    2cbe:	230b      	movs	r3, #11
    2cc0:	18fb      	adds	r3, r7, r3
    2cc2:	781b      	ldrb	r3, [r3, #0]
    2cc4:	2b00      	cmp	r3, #0
    2cc6:	d036      	beq.n	2d36 <usart_read_wait+0xce>
		/* Check which error occurred */
		if (error_code & SERCOM_USART_STATUS_FERR) {
    2cc8:	230b      	movs	r3, #11
    2cca:	18fb      	adds	r3, r7, r3
    2ccc:	781b      	ldrb	r3, [r3, #0]
    2cce:	2202      	movs	r2, #2
    2cd0:	4013      	ands	r3, r2
    2cd2:	d004      	beq.n	2cde <usart_read_wait+0x76>
			/* Clear flag by writing a 1 to it and
			 * return with an error code */
			usart_hw->STATUS.reg = SERCOM_USART_STATUS_FERR;
    2cd4:	68fb      	ldr	r3, [r7, #12]
    2cd6:	2202      	movs	r2, #2
    2cd8:	835a      	strh	r2, [r3, #26]

			return STATUS_ERR_BAD_FORMAT;
    2cda:	231a      	movs	r3, #26
    2cdc:	e031      	b.n	2d42 <usart_read_wait+0xda>
		} else if (error_code & SERCOM_USART_STATUS_BUFOVF) {
    2cde:	230b      	movs	r3, #11
    2ce0:	18fb      	adds	r3, r7, r3
    2ce2:	781b      	ldrb	r3, [r3, #0]
    2ce4:	2204      	movs	r2, #4
    2ce6:	4013      	ands	r3, r2
    2ce8:	d004      	beq.n	2cf4 <usart_read_wait+0x8c>
			/* Clear flag by writing a 1 to it and
			 * return with an error code */
			usart_hw->STATUS.reg = SERCOM_USART_STATUS_BUFOVF;
    2cea:	68fb      	ldr	r3, [r7, #12]
    2cec:	2204      	movs	r2, #4
    2cee:	835a      	strh	r2, [r3, #26]

			return STATUS_ERR_OVERFLOW;
    2cf0:	231e      	movs	r3, #30
    2cf2:	e026      	b.n	2d42 <usart_read_wait+0xda>
		} else if (error_code & SERCOM_USART_STATUS_PERR) {
    2cf4:	230b      	movs	r3, #11
    2cf6:	18fb      	adds	r3, r7, r3
    2cf8:	781b      	ldrb	r3, [r3, #0]
    2cfa:	2201      	movs	r2, #1
    2cfc:	4013      	ands	r3, r2
    2cfe:	d004      	beq.n	2d0a <usart_read_wait+0xa2>
			/* Clear flag by writing a 1 to it and
			 * return with an error code */
			usart_hw->STATUS.reg = SERCOM_USART_STATUS_PERR;
    2d00:	68fb      	ldr	r3, [r7, #12]
    2d02:	2201      	movs	r2, #1
    2d04:	835a      	strh	r2, [r3, #26]

			return STATUS_ERR_BAD_DATA;
    2d06:	2313      	movs	r3, #19
    2d08:	e01b      	b.n	2d42 <usart_read_wait+0xda>
		}
#ifdef FEATURE_USART_LIN_SLAVE
		else if (error_code & SERCOM_USART_STATUS_ISF) {
    2d0a:	230b      	movs	r3, #11
    2d0c:	18fb      	adds	r3, r7, r3
    2d0e:	781b      	ldrb	r3, [r3, #0]
    2d10:	2210      	movs	r2, #16
    2d12:	4013      	ands	r3, r2
    2d14:	d004      	beq.n	2d20 <usart_read_wait+0xb8>
			/* Clear flag by writing 1 to it  and
			 *  return with an error code */
			usart_hw->STATUS.reg = SERCOM_USART_STATUS_ISF;
    2d16:	68fb      	ldr	r3, [r7, #12]
    2d18:	2210      	movs	r2, #16
    2d1a:	835a      	strh	r2, [r3, #26]

			return STATUS_ERR_PROTOCOL;
    2d1c:	2342      	movs	r3, #66	; 0x42
    2d1e:	e010      	b.n	2d42 <usart_read_wait+0xda>
		}
#endif
#ifdef FEATURE_USART_COLLISION_DECTION
		else if (error_code & SERCOM_USART_STATUS_COLL) {
    2d20:	230b      	movs	r3, #11
    2d22:	18fb      	adds	r3, r7, r3
    2d24:	781b      	ldrb	r3, [r3, #0]
    2d26:	2220      	movs	r2, #32
    2d28:	4013      	ands	r3, r2
    2d2a:	d004      	beq.n	2d36 <usart_read_wait+0xce>
			/* Clear flag by writing 1 to it
			 *  return with an error code */
			usart_hw->STATUS.reg = SERCOM_USART_STATUS_COLL;
    2d2c:	68fb      	ldr	r3, [r7, #12]
    2d2e:	2220      	movs	r2, #32
    2d30:	835a      	strh	r2, [r3, #26]

			return STATUS_ERR_PACKET_COLLISION;
    2d32:	2341      	movs	r3, #65	; 0x41
    2d34:	e005      	b.n	2d42 <usart_read_wait+0xda>
		}
#endif
	}

	/* Read data from USART module */
	*rx_data = usart_hw->DATA.reg;
    2d36:	68fb      	ldr	r3, [r7, #12]
    2d38:	8d1b      	ldrh	r3, [r3, #40]	; 0x28
    2d3a:	b29a      	uxth	r2, r3
    2d3c:	683b      	ldr	r3, [r7, #0]
    2d3e:	801a      	strh	r2, [r3, #0]

	return STATUS_OK;
    2d40:	2300      	movs	r3, #0
}
    2d42:	0018      	movs	r0, r3
    2d44:	46bd      	mov	sp, r7
    2d46:	b004      	add	sp, #16
    2d48:	bd80      	pop	{r7, pc}
    2d4a:	46c0      	nop			; (mov r8, r8)
    2d4c:	00002595 	.word	0x00002595

00002d50 <usart_is_syncing>:
{
    2d50:	b580      	push	{r7, lr}
    2d52:	b084      	sub	sp, #16
    2d54:	af00      	add	r7, sp, #0
    2d56:	6078      	str	r0, [r7, #4]
	SercomUsart *const usart_hw = &(module->hw->USART);
    2d58:	687b      	ldr	r3, [r7, #4]
    2d5a:	681b      	ldr	r3, [r3, #0]
    2d5c:	60fb      	str	r3, [r7, #12]
	return (usart_hw->SYNCBUSY.reg);
    2d5e:	68fb      	ldr	r3, [r7, #12]
    2d60:	69db      	ldr	r3, [r3, #28]
    2d62:	1e5a      	subs	r2, r3, #1
    2d64:	4193      	sbcs	r3, r2
    2d66:	b2db      	uxtb	r3, r3
}
    2d68:	0018      	movs	r0, r3
    2d6a:	46bd      	mov	sp, r7
    2d6c:	b004      	add	sp, #16
    2d6e:	bd80      	pop	{r7, pc}

00002d70 <_usart_wait_for_sync>:
{
    2d70:	b580      	push	{r7, lr}
    2d72:	b082      	sub	sp, #8
    2d74:	af00      	add	r7, sp, #0
    2d76:	6078      	str	r0, [r7, #4]
	while (usart_is_syncing(module)) {
    2d78:	46c0      	nop			; (mov r8, r8)
    2d7a:	687b      	ldr	r3, [r7, #4]
    2d7c:	0018      	movs	r0, r3
    2d7e:	4b04      	ldr	r3, [pc, #16]	; (2d90 <_usart_wait_for_sync+0x20>)
    2d80:	4798      	blx	r3
    2d82:	1e03      	subs	r3, r0, #0
    2d84:	d1f9      	bne.n	2d7a <_usart_wait_for_sync+0xa>
}
    2d86:	46c0      	nop			; (mov r8, r8)
    2d88:	46bd      	mov	sp, r7
    2d8a:	b002      	add	sp, #8
    2d8c:	bd80      	pop	{r7, pc}
    2d8e:	46c0      	nop			; (mov r8, r8)
    2d90:	00002d51 	.word	0x00002d51

00002d94 <_usart_interrupt_handler>:
 */
uint8_t au8UartData[20];
uint16_t u16UartDataIndex =0u;
void _usart_interrupt_handler(
		uint8_t instance)
{
    2d94:	b590      	push	{r4, r7, lr}
    2d96:	b08b      	sub	sp, #44	; 0x2c
    2d98:	af00      	add	r7, sp, #0
    2d9a:	0002      	movs	r2, r0
    2d9c:	1dfb      	adds	r3, r7, #7
    2d9e:	701a      	strb	r2, [r3, #0]
	uint8_t error_code;


	/* Get device instance from the look-up table */
	struct usart_module *module
		= (struct usart_module *)_sercom_instances[instance];
    2da0:	1dfb      	adds	r3, r7, #7
    2da2:	781a      	ldrb	r2, [r3, #0]
	struct usart_module *module
    2da4:	4bab      	ldr	r3, [pc, #684]	; (3054 <_usart_interrupt_handler+0x2c0>)
    2da6:	0092      	lsls	r2, r2, #2
    2da8:	58d3      	ldr	r3, [r2, r3]
    2daa:	623b      	str	r3, [r7, #32]

	/* Pointer to the hardware module instance */
	SercomUsart *const usart_hw
		= &(module->hw->USART);
    2dac:	6a3b      	ldr	r3, [r7, #32]
    2dae:	681b      	ldr	r3, [r3, #0]
	SercomUsart *const usart_hw
    2db0:	61fb      	str	r3, [r7, #28]

	/* Wait for the synchronization to complete */
	_usart_wait_for_sync(module);
    2db2:	6a3b      	ldr	r3, [r7, #32]
    2db4:	0018      	movs	r0, r3
    2db6:	4ba8      	ldr	r3, [pc, #672]	; (3058 <_usart_interrupt_handler+0x2c4>)
    2db8:	4798      	blx	r3

	/* Read and mask interrupt flag register */
	interrupt_status = usart_hw->INTFLAG.reg;
    2dba:	69fb      	ldr	r3, [r7, #28]
    2dbc:	7e1b      	ldrb	r3, [r3, #24]
    2dbe:	b2da      	uxtb	r2, r3
    2dc0:	231a      	movs	r3, #26
    2dc2:	18fb      	adds	r3, r7, r3
    2dc4:	801a      	strh	r2, [r3, #0]
	interrupt_status &= usart_hw->INTENSET.reg;
    2dc6:	69fb      	ldr	r3, [r7, #28]
    2dc8:	7d9b      	ldrb	r3, [r3, #22]
    2dca:	b2db      	uxtb	r3, r3
    2dcc:	b29a      	uxth	r2, r3
    2dce:	231a      	movs	r3, #26
    2dd0:	18fb      	adds	r3, r7, r3
    2dd2:	211a      	movs	r1, #26
    2dd4:	1879      	adds	r1, r7, r1
    2dd6:	8809      	ldrh	r1, [r1, #0]
    2dd8:	400a      	ands	r2, r1
    2dda:	801a      	strh	r2, [r3, #0]
	callback_status = module->callback_reg_mask &
    2ddc:	6a3b      	ldr	r3, [r7, #32]
    2dde:	2230      	movs	r2, #48	; 0x30
    2de0:	5c9b      	ldrb	r3, [r3, r2]
			module->callback_enable_mask;
    2de2:	6a3a      	ldr	r2, [r7, #32]
    2de4:	2131      	movs	r1, #49	; 0x31
    2de6:	5c52      	ldrb	r2, [r2, r1]
	callback_status = module->callback_reg_mask &
    2de8:	4013      	ands	r3, r2
    2dea:	b2da      	uxtb	r2, r3
    2dec:	2318      	movs	r3, #24
    2dee:	18fb      	adds	r3, r7, r3
    2df0:	801a      	strh	r2, [r3, #0]

	/* Check if a DATA READY interrupt has occurred,
	 * and if there is more to transfer */
	if (interrupt_status & SERCOM_USART_INTFLAG_DRE) {
    2df2:	231a      	movs	r3, #26
    2df4:	18fb      	adds	r3, r7, r3
    2df6:	881b      	ldrh	r3, [r3, #0]
    2df8:	2201      	movs	r2, #1
    2dfa:	4013      	ands	r3, r2
    2dfc:	d044      	beq.n	2e88 <_usart_interrupt_handler+0xf4>
		if (module->remaining_tx_buffer_length) {
    2dfe:	6a3b      	ldr	r3, [r7, #32]
    2e00:	8ddb      	ldrh	r3, [r3, #46]	; 0x2e
    2e02:	b29b      	uxth	r3, r3
    2e04:	2b00      	cmp	r3, #0
    2e06:	d03c      	beq.n	2e82 <_usart_interrupt_handler+0xee>
			/* Write value will be at least 8-bits long */
			uint16_t data_to_send = *(module->tx_buffer_ptr);
    2e08:	6a3b      	ldr	r3, [r7, #32]
    2e0a:	6a9b      	ldr	r3, [r3, #40]	; 0x28
    2e0c:	781b      	ldrb	r3, [r3, #0]
    2e0e:	b2da      	uxtb	r2, r3
    2e10:	2326      	movs	r3, #38	; 0x26
    2e12:	18fb      	adds	r3, r7, r3
    2e14:	801a      	strh	r2, [r3, #0]
			/* Increment 8-bit pointer */
			(module->tx_buffer_ptr)++;
    2e16:	6a3b      	ldr	r3, [r7, #32]
    2e18:	6a9b      	ldr	r3, [r3, #40]	; 0x28
    2e1a:	1c5a      	adds	r2, r3, #1
    2e1c:	6a3b      	ldr	r3, [r7, #32]
    2e1e:	629a      	str	r2, [r3, #40]	; 0x28

			if (module->character_size == USART_CHARACTER_SIZE_9BIT) {
    2e20:	6a3b      	ldr	r3, [r7, #32]
    2e22:	795b      	ldrb	r3, [r3, #5]
    2e24:	2b01      	cmp	r3, #1
    2e26:	d113      	bne.n	2e50 <_usart_interrupt_handler+0xbc>
				data_to_send |= (*(module->tx_buffer_ptr) << 8);
    2e28:	6a3b      	ldr	r3, [r7, #32]
    2e2a:	6a9b      	ldr	r3, [r3, #40]	; 0x28
    2e2c:	781b      	ldrb	r3, [r3, #0]
    2e2e:	b2db      	uxtb	r3, r3
    2e30:	021b      	lsls	r3, r3, #8
    2e32:	b21a      	sxth	r2, r3
    2e34:	2326      	movs	r3, #38	; 0x26
    2e36:	18fb      	adds	r3, r7, r3
    2e38:	2100      	movs	r1, #0
    2e3a:	5e5b      	ldrsh	r3, [r3, r1]
    2e3c:	4313      	orrs	r3, r2
    2e3e:	b21a      	sxth	r2, r3
    2e40:	2326      	movs	r3, #38	; 0x26
    2e42:	18fb      	adds	r3, r7, r3
    2e44:	801a      	strh	r2, [r3, #0]
				/* Increment 8-bit pointer */
				(module->tx_buffer_ptr)++;
    2e46:	6a3b      	ldr	r3, [r7, #32]
    2e48:	6a9b      	ldr	r3, [r3, #40]	; 0x28
    2e4a:	1c5a      	adds	r2, r3, #1
    2e4c:	6a3b      	ldr	r3, [r7, #32]
    2e4e:	629a      	str	r2, [r3, #40]	; 0x28
			}
			/* Write the data to send */
			usart_hw->DATA.reg = (data_to_send & SERCOM_USART_DATA_MASK);
    2e50:	2326      	movs	r3, #38	; 0x26
    2e52:	18fb      	adds	r3, r7, r3
    2e54:	881b      	ldrh	r3, [r3, #0]
    2e56:	05db      	lsls	r3, r3, #23
    2e58:	0ddb      	lsrs	r3, r3, #23
    2e5a:	b29a      	uxth	r2, r3
    2e5c:	69fb      	ldr	r3, [r7, #28]
    2e5e:	851a      	strh	r2, [r3, #40]	; 0x28

			if (--(module->remaining_tx_buffer_length) == 0) {
    2e60:	6a3b      	ldr	r3, [r7, #32]
    2e62:	8ddb      	ldrh	r3, [r3, #46]	; 0x2e
    2e64:	b29b      	uxth	r3, r3
    2e66:	3b01      	subs	r3, #1
    2e68:	b29b      	uxth	r3, r3
    2e6a:	6a3a      	ldr	r2, [r7, #32]
    2e6c:	1c19      	adds	r1, r3, #0
    2e6e:	85d1      	strh	r1, [r2, #46]	; 0x2e
    2e70:	2b00      	cmp	r3, #0
    2e72:	d109      	bne.n	2e88 <_usart_interrupt_handler+0xf4>
				/* Disable the Data Register Empty Interrupt */
				usart_hw->INTENCLR.reg = SERCOM_USART_INTFLAG_DRE;
    2e74:	69fb      	ldr	r3, [r7, #28]
    2e76:	2201      	movs	r2, #1
    2e78:	751a      	strb	r2, [r3, #20]
				/* Enable Transmission Complete interrupt */
				usart_hw->INTENSET.reg = SERCOM_USART_INTFLAG_TXC;
    2e7a:	69fb      	ldr	r3, [r7, #28]
    2e7c:	2202      	movs	r2, #2
    2e7e:	759a      	strb	r2, [r3, #22]
    2e80:	e002      	b.n	2e88 <_usart_interrupt_handler+0xf4>

			}
		} else {
			usart_hw->INTENCLR.reg = SERCOM_USART_INTFLAG_DRE;
    2e82:	69fb      	ldr	r3, [r7, #28]
    2e84:	2201      	movs	r2, #1
    2e86:	751a      	strb	r2, [r3, #20]
		}
	}

	/* Check if the Transmission Complete interrupt has occurred and
	 * that the transmit buffer is empty */
	if (interrupt_status & SERCOM_USART_INTFLAG_TXC) {
    2e88:	231a      	movs	r3, #26
    2e8a:	18fb      	adds	r3, r7, r3
    2e8c:	881b      	ldrh	r3, [r3, #0]
    2e8e:	2202      	movs	r2, #2
    2e90:	4013      	ands	r3, r2
    2e92:	d011      	beq.n	2eb8 <_usart_interrupt_handler+0x124>

		/* Disable TX Complete Interrupt, and set STATUS_OK */
		usart_hw->INTENCLR.reg = SERCOM_USART_INTFLAG_TXC;
    2e94:	69fb      	ldr	r3, [r7, #28]
    2e96:	2202      	movs	r2, #2
    2e98:	751a      	strb	r2, [r3, #20]
		module->tx_status = STATUS_OK;
    2e9a:	6a3b      	ldr	r3, [r7, #32]
    2e9c:	2233      	movs	r2, #51	; 0x33
    2e9e:	2100      	movs	r1, #0
    2ea0:	5499      	strb	r1, [r3, r2]

		/* Run callback if registered and enabled */
		if (callback_status & (1 << USART_CALLBACK_BUFFER_TRANSMITTED)) {
    2ea2:	2318      	movs	r3, #24
    2ea4:	18fb      	adds	r3, r7, r3
    2ea6:	881b      	ldrh	r3, [r3, #0]
    2ea8:	2201      	movs	r2, #1
    2eaa:	4013      	ands	r3, r2
    2eac:	d004      	beq.n	2eb8 <_usart_interrupt_handler+0x124>
			(*(module->callback[USART_CALLBACK_BUFFER_TRANSMITTED]))(module);
    2eae:	6a3b      	ldr	r3, [r7, #32]
    2eb0:	68db      	ldr	r3, [r3, #12]
    2eb2:	6a3a      	ldr	r2, [r7, #32]
    2eb4:	0010      	movs	r0, r2
    2eb6:	4798      	blx	r3
		}
	}

	/* Check if the Receive Complete interrupt has occurred, and that
	 * there's more data to receive */
	if (interrupt_status & SERCOM_USART_INTFLAG_RXC) {
    2eb8:	231a      	movs	r3, #26
    2eba:	18fb      	adds	r3, r7, r3
    2ebc:	881b      	ldrh	r3, [r3, #0]
    2ebe:	2204      	movs	r2, #4
    2ec0:	4013      	ands	r3, r2
    2ec2:	d100      	bne.n	2ec6 <_usart_interrupt_handler+0x132>
    2ec4:	e07d      	b.n	2fc2 <_usart_interrupt_handler+0x22e>
		
		if(u16UartDataIndex == sizeof(au8UartData))
    2ec6:	4b65      	ldr	r3, [pc, #404]	; (305c <_usart_interrupt_handler+0x2c8>)
    2ec8:	881b      	ldrh	r3, [r3, #0]
    2eca:	2b14      	cmp	r3, #20
    2ecc:	d102      	bne.n	2ed4 <_usart_interrupt_handler+0x140>
		{
			u16UartDataIndex = 0u;
    2ece:	4b63      	ldr	r3, [pc, #396]	; (305c <_usart_interrupt_handler+0x2c8>)
    2ed0:	2200      	movs	r2, #0
    2ed2:	801a      	strh	r2, [r3, #0]
			
		}
		
			/* Read out the status code and mask away all but the 4 LSBs*/
			error_code = (uint8_t)(usart_hw->STATUS.reg & SERCOM_USART_STATUS_MASK);
    2ed4:	69fb      	ldr	r3, [r7, #28]
    2ed6:	8b5b      	ldrh	r3, [r3, #26]
    2ed8:	b29a      	uxth	r2, r3
    2eda:	2317      	movs	r3, #23
    2edc:	18fb      	adds	r3, r7, r3
    2ede:	701a      	strb	r2, [r3, #0]

			/* Check if an error has occurred during the receiving */
			if (error_code) {
    2ee0:	2317      	movs	r3, #23
    2ee2:	18fb      	adds	r3, r7, r3
    2ee4:	781b      	ldrb	r3, [r3, #0]
    2ee6:	2b00      	cmp	r3, #0
    2ee8:	d042      	beq.n	2f70 <_usart_interrupt_handler+0x1dc>
				/* Check which error occurred */
				if (error_code & SERCOM_USART_STATUS_FERR) {
    2eea:	2317      	movs	r3, #23
    2eec:	18fb      	adds	r3, r7, r3
    2eee:	781b      	ldrb	r3, [r3, #0]
    2ef0:	2202      	movs	r2, #2
    2ef2:	4013      	ands	r3, r2
    2ef4:	d007      	beq.n	2f06 <_usart_interrupt_handler+0x172>
					/* Store the error code and clear flag by writing 1 to it */
					module->rx_status = STATUS_ERR_BAD_FORMAT;
    2ef6:	6a3b      	ldr	r3, [r7, #32]
    2ef8:	2232      	movs	r2, #50	; 0x32
    2efa:	211a      	movs	r1, #26
    2efc:	5499      	strb	r1, [r3, r2]
					usart_hw->STATUS.reg = SERCOM_USART_STATUS_FERR;
    2efe:	69fb      	ldr	r3, [r7, #28]
    2f00:	2202      	movs	r2, #2
    2f02:	835a      	strh	r2, [r3, #26]
    2f04:	e028      	b.n	2f58 <_usart_interrupt_handler+0x1c4>
				} else if (error_code & SERCOM_USART_STATUS_BUFOVF) {
    2f06:	2317      	movs	r3, #23
    2f08:	18fb      	adds	r3, r7, r3
    2f0a:	781b      	ldrb	r3, [r3, #0]
    2f0c:	2204      	movs	r2, #4
    2f0e:	4013      	ands	r3, r2
    2f10:	d007      	beq.n	2f22 <_usart_interrupt_handler+0x18e>
					/* Store the error code and clear flag by writing 1 to it */
					module->rx_status = STATUS_ERR_OVERFLOW;
    2f12:	6a3b      	ldr	r3, [r7, #32]
    2f14:	2232      	movs	r2, #50	; 0x32
    2f16:	211e      	movs	r1, #30
    2f18:	5499      	strb	r1, [r3, r2]
					usart_hw->STATUS.reg = SERCOM_USART_STATUS_BUFOVF;
    2f1a:	69fb      	ldr	r3, [r7, #28]
    2f1c:	2204      	movs	r2, #4
    2f1e:	835a      	strh	r2, [r3, #26]
    2f20:	e01a      	b.n	2f58 <_usart_interrupt_handler+0x1c4>
				} else if (error_code & SERCOM_USART_STATUS_PERR) {
    2f22:	2317      	movs	r3, #23
    2f24:	18fb      	adds	r3, r7, r3
    2f26:	781b      	ldrb	r3, [r3, #0]
    2f28:	2201      	movs	r2, #1
    2f2a:	4013      	ands	r3, r2
    2f2c:	d007      	beq.n	2f3e <_usart_interrupt_handler+0x1aa>
					/* Store the error code and clear flag by writing 1 to it */
					module->rx_status = STATUS_ERR_BAD_DATA;
    2f2e:	6a3b      	ldr	r3, [r7, #32]
    2f30:	2232      	movs	r2, #50	; 0x32
    2f32:	2113      	movs	r1, #19
    2f34:	5499      	strb	r1, [r3, r2]
					usart_hw->STATUS.reg = SERCOM_USART_STATUS_PERR;
    2f36:	69fb      	ldr	r3, [r7, #28]
    2f38:	2201      	movs	r2, #1
    2f3a:	835a      	strh	r2, [r3, #26]
    2f3c:	e00c      	b.n	2f58 <_usart_interrupt_handler+0x1c4>
				}

#ifdef FEATURE_USART_COLLISION_DECTION
				else if (error_code & SERCOM_USART_STATUS_COLL) {
    2f3e:	2317      	movs	r3, #23
    2f40:	18fb      	adds	r3, r7, r3
    2f42:	781b      	ldrb	r3, [r3, #0]
    2f44:	2220      	movs	r2, #32
    2f46:	4013      	ands	r3, r2
    2f48:	d006      	beq.n	2f58 <_usart_interrupt_handler+0x1c4>
					/* Store the error code and clear flag by writing 1 to it */
					module->rx_status = STATUS_ERR_PACKET_COLLISION;
    2f4a:	6a3b      	ldr	r3, [r7, #32]
    2f4c:	2232      	movs	r2, #50	; 0x32
    2f4e:	2141      	movs	r1, #65	; 0x41
    2f50:	5499      	strb	r1, [r3, r2]
					usart_hw->STATUS.reg = SERCOM_USART_STATUS_COLL;
    2f52:	69fb      	ldr	r3, [r7, #28]
    2f54:	2220      	movs	r2, #32
    2f56:	835a      	strh	r2, [r3, #26]
				}
#endif

				/* Run callback if registered and enabled */
				if (callback_status
						& (1 << USART_CALLBACK_ERROR)) {
    2f58:	2318      	movs	r3, #24
    2f5a:	18fb      	adds	r3, r7, r3
    2f5c:	881b      	ldrh	r3, [r3, #0]
    2f5e:	2204      	movs	r2, #4
    2f60:	4013      	ands	r3, r2
				if (callback_status
    2f62:	d02e      	beq.n	2fc2 <_usart_interrupt_handler+0x22e>
					(*(module->callback[USART_CALLBACK_ERROR]))(module);
    2f64:	6a3b      	ldr	r3, [r7, #32]
    2f66:	695b      	ldr	r3, [r3, #20]
    2f68:	6a3a      	ldr	r2, [r7, #32]
    2f6a:	0010      	movs	r0, r2
    2f6c:	4798      	blx	r3
    2f6e:	e028      	b.n	2fc2 <_usart_interrupt_handler+0x22e>

			} else {

				/* Read current packet from DATA register,
				 * increment buffer pointer and decrement buffer length */
				uint16_t received_data = (usart_hw->DATA.reg & SERCOM_USART_DATA_MASK);
    2f70:	69fb      	ldr	r3, [r7, #28]
    2f72:	8d1b      	ldrh	r3, [r3, #40]	; 0x28
    2f74:	b29b      	uxth	r3, r3
    2f76:	05db      	lsls	r3, r3, #23
    2f78:	0ddb      	lsrs	r3, r3, #23
    2f7a:	b29a      	uxth	r2, r3
    2f7c:	230e      	movs	r3, #14
    2f7e:	18fb      	adds	r3, r7, r3
    2f80:	801a      	strh	r2, [r3, #0]
				BaseType_t HigherPriorityTaskWoken;
				BaseType_t xStatus;
				
				xStatus = xQueueSendToBackFromISR(xQueue1, &received_data, &HigherPriorityTaskWoken);
    2f82:	4b37      	ldr	r3, [pc, #220]	; (3060 <_usart_interrupt_handler+0x2cc>)
    2f84:	6818      	ldr	r0, [r3, #0]
    2f86:	2308      	movs	r3, #8
    2f88:	18fa      	adds	r2, r7, r3
    2f8a:	230e      	movs	r3, #14
    2f8c:	18f9      	adds	r1, r7, r3
    2f8e:	2300      	movs	r3, #0
    2f90:	4c34      	ldr	r4, [pc, #208]	; (3064 <_usart_interrupt_handler+0x2d0>)
    2f92:	47a0      	blx	r4
    2f94:	0003      	movs	r3, r0
    2f96:	613b      	str	r3, [r7, #16]
				xSemaphoreGiveFromISR( xSemaphore, &HigherPriorityTaskWoken );
    2f98:	4b33      	ldr	r3, [pc, #204]	; (3068 <_usart_interrupt_handler+0x2d4>)
    2f9a:	681b      	ldr	r3, [r3, #0]
    2f9c:	2208      	movs	r2, #8
    2f9e:	18ba      	adds	r2, r7, r2
    2fa0:	0011      	movs	r1, r2
    2fa2:	0018      	movs	r0, r3
    2fa4:	4b31      	ldr	r3, [pc, #196]	; (306c <_usart_interrupt_handler+0x2d8>)
    2fa6:	4798      	blx	r3
					/* TODO : context switching*/
				//	portYIELD_FROM_ISR( HigherPriorityTaskWoken ); 
					
				}
				/* Read value will be at least 8-bits long */
				au8UartData[u16UartDataIndex++] = received_data;
    2fa8:	4b2c      	ldr	r3, [pc, #176]	; (305c <_usart_interrupt_handler+0x2c8>)
    2faa:	881b      	ldrh	r3, [r3, #0]
    2fac:	1c5a      	adds	r2, r3, #1
    2fae:	b291      	uxth	r1, r2
    2fb0:	4a2a      	ldr	r2, [pc, #168]	; (305c <_usart_interrupt_handler+0x2c8>)
    2fb2:	8011      	strh	r1, [r2, #0]
    2fb4:	001a      	movs	r2, r3
    2fb6:	230e      	movs	r3, #14
    2fb8:	18fb      	adds	r3, r7, r3
    2fba:	881b      	ldrh	r3, [r3, #0]
    2fbc:	b2d9      	uxtb	r1, r3
    2fbe:	4b2c      	ldr	r3, [pc, #176]	; (3070 <_usart_interrupt_handler+0x2dc>)
    2fc0:	5499      	strb	r1, [r3, r2]
			}

	}

#ifdef FEATURE_USART_HARDWARE_FLOW_CONTROL
	if (interrupt_status & SERCOM_USART_INTFLAG_CTSIC) {
    2fc2:	231a      	movs	r3, #26
    2fc4:	18fb      	adds	r3, r7, r3
    2fc6:	881b      	ldrh	r3, [r3, #0]
    2fc8:	2210      	movs	r2, #16
    2fca:	4013      	ands	r3, r2
    2fcc:	d010      	beq.n	2ff0 <_usart_interrupt_handler+0x25c>
		/* Disable interrupts */
		usart_hw->INTENCLR.reg = SERCOM_USART_INTENCLR_CTSIC;
    2fce:	69fb      	ldr	r3, [r7, #28]
    2fd0:	2210      	movs	r2, #16
    2fd2:	751a      	strb	r2, [r3, #20]
		/* Clear interrupt flag */
		usart_hw->INTFLAG.reg = SERCOM_USART_INTFLAG_CTSIC;
    2fd4:	69fb      	ldr	r3, [r7, #28]
    2fd6:	2210      	movs	r2, #16
    2fd8:	761a      	strb	r2, [r3, #24]

		/* Run callback if registered and enabled */
		if (callback_status & (1 << USART_CALLBACK_CTS_INPUT_CHANGE)) {
    2fda:	2318      	movs	r3, #24
    2fdc:	18fb      	adds	r3, r7, r3
    2fde:	881b      	ldrh	r3, [r3, #0]
    2fe0:	2210      	movs	r2, #16
    2fe2:	4013      	ands	r3, r2
    2fe4:	d004      	beq.n	2ff0 <_usart_interrupt_handler+0x25c>
			(*(module->callback[USART_CALLBACK_CTS_INPUT_CHANGE]))(module);
    2fe6:	6a3b      	ldr	r3, [r7, #32]
    2fe8:	69db      	ldr	r3, [r3, #28]
    2fea:	6a3a      	ldr	r2, [r7, #32]
    2fec:	0010      	movs	r0, r2
    2fee:	4798      	blx	r3
		}
	}
#endif

#ifdef FEATURE_USART_LIN_SLAVE
	if (interrupt_status & SERCOM_USART_INTFLAG_RXBRK) {
    2ff0:	231a      	movs	r3, #26
    2ff2:	18fb      	adds	r3, r7, r3
    2ff4:	881b      	ldrh	r3, [r3, #0]
    2ff6:	2220      	movs	r2, #32
    2ff8:	4013      	ands	r3, r2
    2ffa:	d010      	beq.n	301e <_usart_interrupt_handler+0x28a>
		/* Disable interrupts */
		usart_hw->INTENCLR.reg = SERCOM_USART_INTENCLR_RXBRK;
    2ffc:	69fb      	ldr	r3, [r7, #28]
    2ffe:	2220      	movs	r2, #32
    3000:	751a      	strb	r2, [r3, #20]
		/* Clear interrupt flag */
		usart_hw->INTFLAG.reg = SERCOM_USART_INTFLAG_RXBRK;
    3002:	69fb      	ldr	r3, [r7, #28]
    3004:	2220      	movs	r2, #32
    3006:	761a      	strb	r2, [r3, #24]

		/* Run callback if registered and enabled */
		if (callback_status & (1 << USART_CALLBACK_BREAK_RECEIVED)) {
    3008:	2318      	movs	r3, #24
    300a:	18fb      	adds	r3, r7, r3
    300c:	881b      	ldrh	r3, [r3, #0]
    300e:	2208      	movs	r2, #8
    3010:	4013      	ands	r3, r2
    3012:	d004      	beq.n	301e <_usart_interrupt_handler+0x28a>
			(*(module->callback[USART_CALLBACK_BREAK_RECEIVED]))(module);
    3014:	6a3b      	ldr	r3, [r7, #32]
    3016:	699b      	ldr	r3, [r3, #24]
    3018:	6a3a      	ldr	r2, [r7, #32]
    301a:	0010      	movs	r0, r2
    301c:	4798      	blx	r3
		}
	}
#endif

#ifdef FEATURE_USART_START_FRAME_DECTION
	if (interrupt_status & SERCOM_USART_INTFLAG_RXS) {
    301e:	231a      	movs	r3, #26
    3020:	18fb      	adds	r3, r7, r3
    3022:	881b      	ldrh	r3, [r3, #0]
    3024:	2208      	movs	r2, #8
    3026:	4013      	ands	r3, r2
    3028:	d010      	beq.n	304c <_usart_interrupt_handler+0x2b8>
		/* Disable interrupts */
		usart_hw->INTENCLR.reg = SERCOM_USART_INTENCLR_RXS;
    302a:	69fb      	ldr	r3, [r7, #28]
    302c:	2208      	movs	r2, #8
    302e:	751a      	strb	r2, [r3, #20]
		/* Clear interrupt flag */
		usart_hw->INTFLAG.reg = SERCOM_USART_INTFLAG_RXS;
    3030:	69fb      	ldr	r3, [r7, #28]
    3032:	2208      	movs	r2, #8
    3034:	761a      	strb	r2, [r3, #24]

		/* Run callback if registered and enabled */
		if (callback_status & (1 << USART_CALLBACK_START_RECEIVED)) {
    3036:	2318      	movs	r3, #24
    3038:	18fb      	adds	r3, r7, r3
    303a:	881b      	ldrh	r3, [r3, #0]
    303c:	2220      	movs	r2, #32
    303e:	4013      	ands	r3, r2
    3040:	d004      	beq.n	304c <_usart_interrupt_handler+0x2b8>
			(*(module->callback[USART_CALLBACK_START_RECEIVED]))(module);
    3042:	6a3b      	ldr	r3, [r7, #32]
    3044:	6a1b      	ldr	r3, [r3, #32]
    3046:	6a3a      	ldr	r2, [r7, #32]
    3048:	0010      	movs	r0, r2
    304a:	4798      	blx	r3
		}
	}
#endif
}
    304c:	46c0      	nop			; (mov r8, r8)
    304e:	46bd      	mov	sp, r7
    3050:	b00b      	add	sp, #44	; 0x2c
    3052:	bd90      	pop	{r4, r7, pc}
    3054:	2000399c 	.word	0x2000399c
    3058:	00002d71 	.word	0x00002d71
    305c:	20003944 	.word	0x20003944
    3060:	20003988 	.word	0x20003988
    3064:	000009d1 	.word	0x000009d1
    3068:	2000397c 	.word	0x2000397c
    306c:	00000a85 	.word	0x00000a85
    3070:	200039b4 	.word	0x200039b4

00003074 <TC0_Handler>:
#if (SAML21E) || (SAML21G) || (SAMR30E) || (SAMR30G)
	_TC_INTERRUPT_HANDLER(0,0)
	_TC_INTERRUPT_HANDLER(1,1)
	_TC_INTERRUPT_HANDLER(4,2)
#else
	MRECURSION(TC_INST_NUM, _TC_INTERRUPT_HANDLER, TC_INST_MAX_ID)
    3074:	b580      	push	{r7, lr}
    3076:	af00      	add	r7, sp, #0
    3078:	2000      	movs	r0, #0
    307a:	4b02      	ldr	r3, [pc, #8]	; (3084 <TC0_Handler+0x10>)
    307c:	4798      	blx	r3
    307e:	46c0      	nop			; (mov r8, r8)
    3080:	46bd      	mov	sp, r7
    3082:	bd80      	pop	{r7, pc}
    3084:	000030c5 	.word	0x000030c5

00003088 <TC1_Handler>:
    3088:	b580      	push	{r7, lr}
    308a:	af00      	add	r7, sp, #0
    308c:	2001      	movs	r0, #1
    308e:	4b02      	ldr	r3, [pc, #8]	; (3098 <TC1_Handler+0x10>)
    3090:	4798      	blx	r3
    3092:	46c0      	nop			; (mov r8, r8)
    3094:	46bd      	mov	sp, r7
    3096:	bd80      	pop	{r7, pc}
    3098:	000030c5 	.word	0x000030c5

0000309c <TC2_Handler>:
    309c:	b580      	push	{r7, lr}
    309e:	af00      	add	r7, sp, #0
    30a0:	2002      	movs	r0, #2
    30a2:	4b02      	ldr	r3, [pc, #8]	; (30ac <TC2_Handler+0x10>)
    30a4:	4798      	blx	r3
    30a6:	46c0      	nop			; (mov r8, r8)
    30a8:	46bd      	mov	sp, r7
    30aa:	bd80      	pop	{r7, pc}
    30ac:	000030c5 	.word	0x000030c5

000030b0 <TC3_Handler>:
    30b0:	b580      	push	{r7, lr}
    30b2:	af00      	add	r7, sp, #0
    30b4:	2003      	movs	r0, #3
    30b6:	4b02      	ldr	r3, [pc, #8]	; (30c0 <TC3_Handler+0x10>)
    30b8:	4798      	blx	r3
    30ba:	46c0      	nop			; (mov r8, r8)
    30bc:	46bd      	mov	sp, r7
    30be:	bd80      	pop	{r7, pc}
    30c0:	000030c5 	.word	0x000030c5

000030c4 <_tc_interrupt_handler>:
 * \param[in]  instance  ID of the TC instance calling the interrupt
 *                       handler
 */
void _tc_interrupt_handler(
		uint8_t instance)
{
    30c4:	b580      	push	{r7, lr}
    30c6:	b084      	sub	sp, #16
    30c8:	af00      	add	r7, sp, #0
    30ca:	0002      	movs	r2, r0
    30cc:	1dfb      	adds	r3, r7, #7
    30ce:	701a      	strb	r2, [r3, #0]
	/* Temporary variable */
	uint8_t interrupt_and_callback_status_mask;

	/* Get device instance from the look-up table */
	struct tc_module *module
			= (struct tc_module *)_tc_instances[instance];
    30d0:	1dfb      	adds	r3, r7, #7
    30d2:	781a      	ldrb	r2, [r3, #0]
	struct tc_module *module
    30d4:	4b28      	ldr	r3, [pc, #160]	; (3178 <_tc_interrupt_handler+0xb4>)
    30d6:	0092      	lsls	r2, r2, #2
    30d8:	58d3      	ldr	r3, [r2, r3]
    30da:	60fb      	str	r3, [r7, #12]

	/* Read and mask interrupt flag register */
	interrupt_and_callback_status_mask = module->hw->COUNT8.INTFLAG.reg &
    30dc:	68fb      	ldr	r3, [r7, #12]
    30de:	681b      	ldr	r3, [r3, #0]
    30e0:	7a9b      	ldrb	r3, [r3, #10]
    30e2:	b2db      	uxtb	r3, r3
			module->register_callback_mask &
    30e4:	68fa      	ldr	r2, [r7, #12]
    30e6:	7e12      	ldrb	r2, [r2, #24]
	interrupt_and_callback_status_mask = module->hw->COUNT8.INTFLAG.reg &
    30e8:	4013      	ands	r3, r2
    30ea:	b2da      	uxtb	r2, r3
			module->enable_callback_mask;
    30ec:	68fb      	ldr	r3, [r7, #12]
    30ee:	7e59      	ldrb	r1, [r3, #25]
	interrupt_and_callback_status_mask = module->hw->COUNT8.INTFLAG.reg &
    30f0:	230b      	movs	r3, #11
    30f2:	18fb      	adds	r3, r7, r3
    30f4:	400a      	ands	r2, r1
    30f6:	701a      	strb	r2, [r3, #0]

	/* Check if an Overflow interrupt has occurred */
	if (interrupt_and_callback_status_mask & TC_INTFLAG_OVF) {
    30f8:	230b      	movs	r3, #11
    30fa:	18fb      	adds	r3, r7, r3
    30fc:	781b      	ldrb	r3, [r3, #0]
    30fe:	2201      	movs	r2, #1
    3100:	4013      	ands	r3, r2
    3102:	d008      	beq.n	3116 <_tc_interrupt_handler+0x52>
		/* Invoke registered and enabled callback function */
		(module->callback[TC_CALLBACK_OVERFLOW])(module);
    3104:	68fb      	ldr	r3, [r7, #12]
    3106:	689b      	ldr	r3, [r3, #8]
    3108:	68fa      	ldr	r2, [r7, #12]
    310a:	0010      	movs	r0, r2
    310c:	4798      	blx	r3
		/* Clear interrupt flag */
		module->hw->COUNT8.INTFLAG.reg = TC_INTFLAG_OVF;
    310e:	68fb      	ldr	r3, [r7, #12]
    3110:	681b      	ldr	r3, [r3, #0]
    3112:	2201      	movs	r2, #1
    3114:	729a      	strb	r2, [r3, #10]
	}

	/* Check if an Error interrupt has occurred */
	if (interrupt_and_callback_status_mask & TC_INTFLAG_ERR) {
    3116:	230b      	movs	r3, #11
    3118:	18fb      	adds	r3, r7, r3
    311a:	781b      	ldrb	r3, [r3, #0]
    311c:	2202      	movs	r2, #2
    311e:	4013      	ands	r3, r2
    3120:	d008      	beq.n	3134 <_tc_interrupt_handler+0x70>
		/* Invoke registered and enabled callback function */
		(module->callback[TC_CALLBACK_ERROR])(module);
    3122:	68fb      	ldr	r3, [r7, #12]
    3124:	68db      	ldr	r3, [r3, #12]
    3126:	68fa      	ldr	r2, [r7, #12]
    3128:	0010      	movs	r0, r2
    312a:	4798      	blx	r3
		/* Clear interrupt flag */
		module->hw->COUNT8.INTFLAG.reg = TC_INTFLAG_ERR;
    312c:	68fb      	ldr	r3, [r7, #12]
    312e:	681b      	ldr	r3, [r3, #0]
    3130:	2202      	movs	r2, #2
    3132:	729a      	strb	r2, [r3, #10]
	}

	/* Check if an Match/Capture Channel 0 interrupt has occurred */
	if (interrupt_and_callback_status_mask & TC_INTFLAG_MC(1)) {
    3134:	230b      	movs	r3, #11
    3136:	18fb      	adds	r3, r7, r3
    3138:	781b      	ldrb	r3, [r3, #0]
    313a:	2210      	movs	r2, #16
    313c:	4013      	ands	r3, r2
    313e:	d008      	beq.n	3152 <_tc_interrupt_handler+0x8e>
		/* Invoke registered and enabled callback function */
		(module->callback[TC_CALLBACK_CC_CHANNEL0])(module);
    3140:	68fb      	ldr	r3, [r7, #12]
    3142:	691b      	ldr	r3, [r3, #16]
    3144:	68fa      	ldr	r2, [r7, #12]
    3146:	0010      	movs	r0, r2
    3148:	4798      	blx	r3
		/* Clear interrupt flag */
		module->hw->COUNT8.INTFLAG.reg = TC_INTFLAG_MC(1);
    314a:	68fb      	ldr	r3, [r7, #12]
    314c:	681b      	ldr	r3, [r3, #0]
    314e:	2210      	movs	r2, #16
    3150:	729a      	strb	r2, [r3, #10]
	}

	/* Check if an Match/Capture Channel 1 interrupt has occurred */
	if (interrupt_and_callback_status_mask & TC_INTFLAG_MC(2)) {
    3152:	230b      	movs	r3, #11
    3154:	18fb      	adds	r3, r7, r3
    3156:	781b      	ldrb	r3, [r3, #0]
    3158:	2220      	movs	r2, #32
    315a:	4013      	ands	r3, r2
    315c:	d008      	beq.n	3170 <_tc_interrupt_handler+0xac>
		/* Invoke registered and enabled callback function */
		(module->callback[TC_CALLBACK_CC_CHANNEL1])(module);
    315e:	68fb      	ldr	r3, [r7, #12]
    3160:	695b      	ldr	r3, [r3, #20]
    3162:	68fa      	ldr	r2, [r7, #12]
    3164:	0010      	movs	r0, r2
    3166:	4798      	blx	r3
		/* Clear interrupt flag */
		module->hw->COUNT8.INTFLAG.reg = TC_INTFLAG_MC(2);
    3168:	68fb      	ldr	r3, [r7, #12]
    316a:	681b      	ldr	r3, [r3, #0]
    316c:	2220      	movs	r2, #32
    316e:	729a      	strb	r2, [r3, #10]
	}
}
    3170:	46c0      	nop			; (mov r8, r8)
    3172:	46bd      	mov	sp, r7
    3174:	b004      	add	sp, #16
    3176:	bd80      	pop	{r7, pc}
    3178:	200039c8 	.word	0x200039c8

0000317c <cpu_irq_enter_critical>:
 */
volatile bool g_interrupt_enabled = true;
#endif

void cpu_irq_enter_critical(void)
{
    317c:	b580      	push	{r7, lr}
    317e:	b082      	sub	sp, #8
    3180:	af00      	add	r7, sp, #0
	if (cpu_irq_critical_section_counter == 0) {
    3182:	4b10      	ldr	r3, [pc, #64]	; (31c4 <cpu_irq_enter_critical+0x48>)
    3184:	681b      	ldr	r3, [r3, #0]
    3186:	2b00      	cmp	r3, #0
    3188:	d112      	bne.n	31b0 <cpu_irq_enter_critical+0x34>
 */
__attribute__( ( always_inline ) ) __STATIC_INLINE uint32_t __get_PRIMASK(void)
{
  uint32_t result;

  __ASM volatile ("MRS %0, primask" : "=r" (result) );
    318a:	f3ef 8310 	mrs	r3, PRIMASK
    318e:	607b      	str	r3, [r7, #4]
  return(result);
    3190:	687b      	ldr	r3, [r7, #4]
		if (cpu_irq_is_enabled()) {
    3192:	2b00      	cmp	r3, #0
    3194:	d109      	bne.n	31aa <cpu_irq_enter_critical+0x2e>
  __ASM volatile ("cpsid i" : : : "memory");
    3196:	b672      	cpsid	i
    This function ensures the apparent order of the explicit memory operations before
    and after the instruction, without ensuring their completion.
 */
__attribute__( ( always_inline ) ) __STATIC_INLINE void __DMB(void)
{
  __ASM volatile ("dmb");
    3198:	f3bf 8f5f 	dmb	sy
			cpu_irq_disable();
    319c:	4b0a      	ldr	r3, [pc, #40]	; (31c8 <cpu_irq_enter_critical+0x4c>)
    319e:	2200      	movs	r2, #0
    31a0:	701a      	strb	r2, [r3, #0]
			cpu_irq_prev_interrupt_state = true;
    31a2:	4b0a      	ldr	r3, [pc, #40]	; (31cc <cpu_irq_enter_critical+0x50>)
    31a4:	2201      	movs	r2, #1
    31a6:	701a      	strb	r2, [r3, #0]
    31a8:	e002      	b.n	31b0 <cpu_irq_enter_critical+0x34>
		} else {
			/* Make sure the to save the prev state as false */
			cpu_irq_prev_interrupt_state = false;
    31aa:	4b08      	ldr	r3, [pc, #32]	; (31cc <cpu_irq_enter_critical+0x50>)
    31ac:	2200      	movs	r2, #0
    31ae:	701a      	strb	r2, [r3, #0]
		}

	}

	cpu_irq_critical_section_counter++;
    31b0:	4b04      	ldr	r3, [pc, #16]	; (31c4 <cpu_irq_enter_critical+0x48>)
    31b2:	681b      	ldr	r3, [r3, #0]
    31b4:	1c5a      	adds	r2, r3, #1
    31b6:	4b03      	ldr	r3, [pc, #12]	; (31c4 <cpu_irq_enter_critical+0x48>)
    31b8:	601a      	str	r2, [r3, #0]
}
    31ba:	46c0      	nop			; (mov r8, r8)
    31bc:	46bd      	mov	sp, r7
    31be:	b002      	add	sp, #8
    31c0:	bd80      	pop	{r7, pc}
    31c2:	46c0      	nop			; (mov r8, r8)
    31c4:	20003948 	.word	0x20003948
    31c8:	20000004 	.word	0x20000004
    31cc:	2000394c 	.word	0x2000394c

000031d0 <cpu_irq_leave_critical>:

void cpu_irq_leave_critical(void)
{
    31d0:	b580      	push	{r7, lr}
    31d2:	af00      	add	r7, sp, #0
	/* Check if the user is trying to leave a critical section when not in a critical section */
	Assert(cpu_irq_critical_section_counter > 0);

	cpu_irq_critical_section_counter--;
    31d4:	4b0b      	ldr	r3, [pc, #44]	; (3204 <cpu_irq_leave_critical+0x34>)
    31d6:	681b      	ldr	r3, [r3, #0]
    31d8:	1e5a      	subs	r2, r3, #1
    31da:	4b0a      	ldr	r3, [pc, #40]	; (3204 <cpu_irq_leave_critical+0x34>)
    31dc:	601a      	str	r2, [r3, #0]

	/* Only enable global interrupts when the counter reaches 0 and the state of the global interrupt flag
	   was enabled when entering critical state */
	if ((cpu_irq_critical_section_counter == 0) && (cpu_irq_prev_interrupt_state)) {
    31de:	4b09      	ldr	r3, [pc, #36]	; (3204 <cpu_irq_leave_critical+0x34>)
    31e0:	681b      	ldr	r3, [r3, #0]
    31e2:	2b00      	cmp	r3, #0
    31e4:	d10a      	bne.n	31fc <cpu_irq_leave_critical+0x2c>
    31e6:	4b08      	ldr	r3, [pc, #32]	; (3208 <cpu_irq_leave_critical+0x38>)
    31e8:	781b      	ldrb	r3, [r3, #0]
    31ea:	b2db      	uxtb	r3, r3
    31ec:	2b00      	cmp	r3, #0
    31ee:	d005      	beq.n	31fc <cpu_irq_leave_critical+0x2c>
		cpu_irq_enable();
    31f0:	4b06      	ldr	r3, [pc, #24]	; (320c <cpu_irq_leave_critical+0x3c>)
    31f2:	2201      	movs	r2, #1
    31f4:	701a      	strb	r2, [r3, #0]
    31f6:	f3bf 8f5f 	dmb	sy
  __ASM volatile ("cpsie i" : : : "memory");
    31fa:	b662      	cpsie	i
	}
}
    31fc:	46c0      	nop			; (mov r8, r8)
    31fe:	46bd      	mov	sp, r7
    3200:	bd80      	pop	{r7, pc}
    3202:	46c0      	nop			; (mov r8, r8)
    3204:	20003948 	.word	0x20003948
    3208:	2000394c 	.word	0x2000394c
    320c:	20000004 	.word	0x20000004

00003210 <system_pinmux_get_group_from_gpio_pin>:
 *
 * \return Base address of the associated PORT module.
 */
static inline PortGroup* system_pinmux_get_group_from_gpio_pin(
		const uint8_t gpio_pin)
{
    3210:	b580      	push	{r7, lr}
    3212:	b084      	sub	sp, #16
    3214:	af00      	add	r7, sp, #0
    3216:	0002      	movs	r2, r0
    3218:	1dfb      	adds	r3, r7, #7
    321a:	701a      	strb	r2, [r3, #0]
	uint8_t port_index  = (gpio_pin / 128);
    321c:	230f      	movs	r3, #15
    321e:	18fb      	adds	r3, r7, r3
    3220:	1dfa      	adds	r2, r7, #7
    3222:	7812      	ldrb	r2, [r2, #0]
    3224:	09d2      	lsrs	r2, r2, #7
    3226:	701a      	strb	r2, [r3, #0]
	uint8_t group_index = (gpio_pin / 32);
    3228:	230e      	movs	r3, #14
    322a:	18fb      	adds	r3, r7, r3
    322c:	1dfa      	adds	r2, r7, #7
    322e:	7812      	ldrb	r2, [r2, #0]
    3230:	0952      	lsrs	r2, r2, #5
    3232:	701a      	strb	r2, [r3, #0]

	/* Array of available ports */
	Port *const ports[PORT_INST_NUM] = PORT_INSTS;
    3234:	4b0d      	ldr	r3, [pc, #52]	; (326c <system_pinmux_get_group_from_gpio_pin+0x5c>)
    3236:	60bb      	str	r3, [r7, #8]

	if (port_index < PORT_INST_NUM) {
    3238:	230f      	movs	r3, #15
    323a:	18fb      	adds	r3, r7, r3
    323c:	781b      	ldrb	r3, [r3, #0]
    323e:	2b00      	cmp	r3, #0
    3240:	d10f      	bne.n	3262 <system_pinmux_get_group_from_gpio_pin+0x52>
		return &(ports[port_index]->Group[group_index]);
    3242:	230f      	movs	r3, #15
    3244:	18fb      	adds	r3, r7, r3
    3246:	781b      	ldrb	r3, [r3, #0]
    3248:	009b      	lsls	r3, r3, #2
    324a:	2210      	movs	r2, #16
    324c:	4694      	mov	ip, r2
    324e:	44bc      	add	ip, r7
    3250:	4463      	add	r3, ip
    3252:	3b08      	subs	r3, #8
    3254:	681a      	ldr	r2, [r3, #0]
    3256:	230e      	movs	r3, #14
    3258:	18fb      	adds	r3, r7, r3
    325a:	781b      	ldrb	r3, [r3, #0]
    325c:	01db      	lsls	r3, r3, #7
    325e:	18d3      	adds	r3, r2, r3
    3260:	e000      	b.n	3264 <system_pinmux_get_group_from_gpio_pin+0x54>
	} else {
		Assert(false);
		return NULL;
    3262:	2300      	movs	r3, #0
	}
}
    3264:	0018      	movs	r0, r3
    3266:	46bd      	mov	sp, r7
    3268:	b004      	add	sp, #16
    326a:	bd80      	pop	{r7, pc}
    326c:	41006000 	.word	0x41006000

00003270 <port_get_group_from_gpio_pin>:
 *
 *  \return Base address of the associated PORT module.
 */
static inline PortGroup* port_get_group_from_gpio_pin(
		const uint8_t gpio_pin)
{
    3270:	b580      	push	{r7, lr}
    3272:	b082      	sub	sp, #8
    3274:	af00      	add	r7, sp, #0
    3276:	0002      	movs	r2, r0
    3278:	1dfb      	adds	r3, r7, #7
    327a:	701a      	strb	r2, [r3, #0]
	return system_pinmux_get_group_from_gpio_pin(gpio_pin);
    327c:	1dfb      	adds	r3, r7, #7
    327e:	781b      	ldrb	r3, [r3, #0]
    3280:	0018      	movs	r0, r3
    3282:	4b03      	ldr	r3, [pc, #12]	; (3290 <port_get_group_from_gpio_pin+0x20>)
    3284:	4798      	blx	r3
    3286:	0003      	movs	r3, r0
}
    3288:	0018      	movs	r0, r3
    328a:	46bd      	mov	sp, r7
    328c:	b002      	add	sp, #8
    328e:	bd80      	pop	{r7, pc}
    3290:	00003211 	.word	0x00003211

00003294 <port_get_config_defaults>:
 *
 *  \param[out] config  Configuration structure to initialize to default values
 */
static inline void port_get_config_defaults(
		struct port_config *const config)
{
    3294:	b580      	push	{r7, lr}
    3296:	b082      	sub	sp, #8
    3298:	af00      	add	r7, sp, #0
    329a:	6078      	str	r0, [r7, #4]
	/* Sanity check arguments */
	Assert(config);

	/* Default configuration values */
	config->direction  = PORT_PIN_DIR_INPUT;
    329c:	687b      	ldr	r3, [r7, #4]
    329e:	2200      	movs	r2, #0
    32a0:	701a      	strb	r2, [r3, #0]
	config->input_pull = PORT_PIN_PULL_UP;
    32a2:	687b      	ldr	r3, [r7, #4]
    32a4:	2201      	movs	r2, #1
    32a6:	705a      	strb	r2, [r3, #1]
	config->powersave  = false;
    32a8:	687b      	ldr	r3, [r7, #4]
    32aa:	2200      	movs	r2, #0
    32ac:	709a      	strb	r2, [r3, #2]
}
    32ae:	46c0      	nop			; (mov r8, r8)
    32b0:	46bd      	mov	sp, r7
    32b2:	b002      	add	sp, #8
    32b4:	bd80      	pop	{r7, pc}
	...

000032b8 <port_pin_set_output_level>:
 *  \param[in] level     Logical level to set the given pin to
 */
static inline void port_pin_set_output_level(
		const uint8_t gpio_pin,
		const bool level)
{
    32b8:	b580      	push	{r7, lr}
    32ba:	b084      	sub	sp, #16
    32bc:	af00      	add	r7, sp, #0
    32be:	0002      	movs	r2, r0
    32c0:	1dfb      	adds	r3, r7, #7
    32c2:	701a      	strb	r2, [r3, #0]
    32c4:	1dbb      	adds	r3, r7, #6
    32c6:	1c0a      	adds	r2, r1, #0
    32c8:	701a      	strb	r2, [r3, #0]
	PortGroup *const port_base = port_get_group_from_gpio_pin(gpio_pin);
    32ca:	1dfb      	adds	r3, r7, #7
    32cc:	781b      	ldrb	r3, [r3, #0]
    32ce:	0018      	movs	r0, r3
    32d0:	4b0d      	ldr	r3, [pc, #52]	; (3308 <port_pin_set_output_level+0x50>)
    32d2:	4798      	blx	r3
    32d4:	0003      	movs	r3, r0
    32d6:	60fb      	str	r3, [r7, #12]
	uint32_t pin_mask  = (1UL << (gpio_pin % 32));
    32d8:	1dfb      	adds	r3, r7, #7
    32da:	781b      	ldrb	r3, [r3, #0]
    32dc:	221f      	movs	r2, #31
    32de:	4013      	ands	r3, r2
    32e0:	2201      	movs	r2, #1
    32e2:	409a      	lsls	r2, r3
    32e4:	0013      	movs	r3, r2
    32e6:	60bb      	str	r3, [r7, #8]

	/* Set the pin to high or low atomically based on the requested level */
	if (level) {
    32e8:	1dbb      	adds	r3, r7, #6
    32ea:	781b      	ldrb	r3, [r3, #0]
    32ec:	2b00      	cmp	r3, #0
    32ee:	d003      	beq.n	32f8 <port_pin_set_output_level+0x40>
		port_base->OUTSET.reg = pin_mask;
    32f0:	68fb      	ldr	r3, [r7, #12]
    32f2:	68ba      	ldr	r2, [r7, #8]
    32f4:	619a      	str	r2, [r3, #24]
	} else {
		port_base->OUTCLR.reg = pin_mask;
	}
}
    32f6:	e002      	b.n	32fe <port_pin_set_output_level+0x46>
		port_base->OUTCLR.reg = pin_mask;
    32f8:	68fb      	ldr	r3, [r7, #12]
    32fa:	68ba      	ldr	r2, [r7, #8]
    32fc:	615a      	str	r2, [r3, #20]
}
    32fe:	46c0      	nop			; (mov r8, r8)
    3300:	46bd      	mov	sp, r7
    3302:	b004      	add	sp, #16
    3304:	bd80      	pop	{r7, pc}
    3306:	46c0      	nop			; (mov r8, r8)
    3308:	00003271 	.word	0x00003271

0000330c <system_board_init>:
void board_init(void);
#  pragma weak board_init=system_board_init
#endif

void system_board_init(void)
{
    330c:	b580      	push	{r7, lr}
    330e:	b082      	sub	sp, #8
    3310:	af00      	add	r7, sp, #0
	struct port_config pin_conf;
	port_get_config_defaults(&pin_conf);
    3312:	1d3b      	adds	r3, r7, #4
    3314:	0018      	movs	r0, r3
    3316:	4b0e      	ldr	r3, [pc, #56]	; (3350 <system_board_init+0x44>)
    3318:	4798      	blx	r3

	/* Configure LEDs as outputs, turn them off */
	pin_conf.direction  = PORT_PIN_DIR_OUTPUT;
    331a:	1d3b      	adds	r3, r7, #4
    331c:	2201      	movs	r2, #1
    331e:	701a      	strb	r2, [r3, #0]
	port_pin_set_config(LED_0_PIN, &pin_conf);
    3320:	1d3b      	adds	r3, r7, #4
    3322:	0019      	movs	r1, r3
    3324:	205b      	movs	r0, #91	; 0x5b
    3326:	4b0b      	ldr	r3, [pc, #44]	; (3354 <system_board_init+0x48>)
    3328:	4798      	blx	r3
	port_pin_set_output_level(LED_0_PIN, LED_0_INACTIVE);
    332a:	2101      	movs	r1, #1
    332c:	205b      	movs	r0, #91	; 0x5b
    332e:	4b0a      	ldr	r3, [pc, #40]	; (3358 <system_board_init+0x4c>)
    3330:	4798      	blx	r3

	/* Set buttons as inputs */
	pin_conf.direction  = PORT_PIN_DIR_INPUT;
    3332:	1d3b      	adds	r3, r7, #4
    3334:	2200      	movs	r2, #0
    3336:	701a      	strb	r2, [r3, #0]
	pin_conf.input_pull = PORT_PIN_PULL_UP;
    3338:	1d3b      	adds	r3, r7, #4
    333a:	2201      	movs	r2, #1
    333c:	705a      	strb	r2, [r3, #1]
	port_pin_set_config(BUTTON_0_PIN, &pin_conf);
    333e:	1d3b      	adds	r3, r7, #4
    3340:	0019      	movs	r1, r3
    3342:	2041      	movs	r0, #65	; 0x41
    3344:	4b03      	ldr	r3, [pc, #12]	; (3354 <system_board_init+0x48>)
    3346:	4798      	blx	r3
}
    3348:	46c0      	nop			; (mov r8, r8)
    334a:	46bd      	mov	sp, r7
    334c:	b002      	add	sp, #8
    334e:	bd80      	pop	{r7, pc}
    3350:	00003295 	.word	0x00003295
    3354:	00003385 	.word	0x00003385
    3358:	000032b9 	.word	0x000032b9

0000335c <system_pinmux_get_config_defaults>:
{
    335c:	b580      	push	{r7, lr}
    335e:	b082      	sub	sp, #8
    3360:	af00      	add	r7, sp, #0
    3362:	6078      	str	r0, [r7, #4]
	config->mux_position = SYSTEM_PINMUX_GPIO;
    3364:	687b      	ldr	r3, [r7, #4]
    3366:	2280      	movs	r2, #128	; 0x80
    3368:	701a      	strb	r2, [r3, #0]
	config->direction    = SYSTEM_PINMUX_PIN_DIR_INPUT;
    336a:	687b      	ldr	r3, [r7, #4]
    336c:	2200      	movs	r2, #0
    336e:	705a      	strb	r2, [r3, #1]
	config->input_pull   = SYSTEM_PINMUX_PIN_PULL_UP;
    3370:	687b      	ldr	r3, [r7, #4]
    3372:	2201      	movs	r2, #1
    3374:	709a      	strb	r2, [r3, #2]
	config->powersave    = false;
    3376:	687b      	ldr	r3, [r7, #4]
    3378:	2200      	movs	r2, #0
    337a:	70da      	strb	r2, [r3, #3]
}
    337c:	46c0      	nop			; (mov r8, r8)
    337e:	46bd      	mov	sp, r7
    3380:	b002      	add	sp, #8
    3382:	bd80      	pop	{r7, pc}

00003384 <port_pin_set_config>:
 *  \param[in] config    Configuration settings for the pin
 */
void port_pin_set_config(
		const uint8_t gpio_pin,
		const struct port_config *const config)
{
    3384:	b580      	push	{r7, lr}
    3386:	b084      	sub	sp, #16
    3388:	af00      	add	r7, sp, #0
    338a:	0002      	movs	r2, r0
    338c:	6039      	str	r1, [r7, #0]
    338e:	1dfb      	adds	r3, r7, #7
    3390:	701a      	strb	r2, [r3, #0]
	/* Sanity check arguments */
	Assert(config);

	struct system_pinmux_config pinmux_config;
	system_pinmux_get_config_defaults(&pinmux_config);
    3392:	230c      	movs	r3, #12
    3394:	18fb      	adds	r3, r7, r3
    3396:	0018      	movs	r0, r3
    3398:	4b10      	ldr	r3, [pc, #64]	; (33dc <port_pin_set_config+0x58>)
    339a:	4798      	blx	r3

	pinmux_config.mux_position = SYSTEM_PINMUX_GPIO;
    339c:	230c      	movs	r3, #12
    339e:	18fb      	adds	r3, r7, r3
    33a0:	2280      	movs	r2, #128	; 0x80
    33a2:	701a      	strb	r2, [r3, #0]
	pinmux_config.direction    = (enum system_pinmux_pin_dir)config->direction;
    33a4:	683b      	ldr	r3, [r7, #0]
    33a6:	781a      	ldrb	r2, [r3, #0]
    33a8:	230c      	movs	r3, #12
    33aa:	18fb      	adds	r3, r7, r3
    33ac:	705a      	strb	r2, [r3, #1]
	pinmux_config.input_pull   = (enum system_pinmux_pin_pull)config->input_pull;
    33ae:	683b      	ldr	r3, [r7, #0]
    33b0:	785a      	ldrb	r2, [r3, #1]
    33b2:	230c      	movs	r3, #12
    33b4:	18fb      	adds	r3, r7, r3
    33b6:	709a      	strb	r2, [r3, #2]
	pinmux_config.powersave    = config->powersave;
    33b8:	683b      	ldr	r3, [r7, #0]
    33ba:	789a      	ldrb	r2, [r3, #2]
    33bc:	230c      	movs	r3, #12
    33be:	18fb      	adds	r3, r7, r3
    33c0:	70da      	strb	r2, [r3, #3]

	system_pinmux_pin_set_config(gpio_pin, &pinmux_config);
    33c2:	230c      	movs	r3, #12
    33c4:	18fa      	adds	r2, r7, r3
    33c6:	1dfb      	adds	r3, r7, #7
    33c8:	781b      	ldrb	r3, [r3, #0]
    33ca:	0011      	movs	r1, r2
    33cc:	0018      	movs	r0, r3
    33ce:	4b04      	ldr	r3, [pc, #16]	; (33e0 <port_pin_set_config+0x5c>)
    33d0:	4798      	blx	r3
}
    33d2:	46c0      	nop			; (mov r8, r8)
    33d4:	46bd      	mov	sp, r7
    33d6:	b004      	add	sp, #16
    33d8:	bd80      	pop	{r7, pc}
    33da:	46c0      	nop			; (mov r8, r8)
    33dc:	0000335d 	.word	0x0000335d
    33e0:	00003ca1 	.word	0x00003ca1

000033e4 <system_gclk_gen_get_config_defaults>:
{
    33e4:	b580      	push	{r7, lr}
    33e6:	b082      	sub	sp, #8
    33e8:	af00      	add	r7, sp, #0
    33ea:	6078      	str	r0, [r7, #4]
	config->division_factor    = 1;
    33ec:	687b      	ldr	r3, [r7, #4]
    33ee:	2201      	movs	r2, #1
    33f0:	605a      	str	r2, [r3, #4]
	config->high_when_disabled = false;
    33f2:	687b      	ldr	r3, [r7, #4]
    33f4:	2200      	movs	r2, #0
    33f6:	705a      	strb	r2, [r3, #1]
	config->source_clock       = GCLK_SOURCE_OSC16M;
    33f8:	687b      	ldr	r3, [r7, #4]
    33fa:	2205      	movs	r2, #5
    33fc:	701a      	strb	r2, [r3, #0]
	config->run_in_standby     = false;
    33fe:	687b      	ldr	r3, [r7, #4]
    3400:	2200      	movs	r2, #0
    3402:	721a      	strb	r2, [r3, #8]
	config->output_enable      = false;
    3404:	687b      	ldr	r3, [r7, #4]
    3406:	2200      	movs	r2, #0
    3408:	725a      	strb	r2, [r3, #9]
}
    340a:	46c0      	nop			; (mov r8, r8)
    340c:	46bd      	mov	sp, r7
    340e:	b002      	add	sp, #8
    3410:	bd80      	pop	{r7, pc}
	...

00003414 <system_cpu_clock_set_divider>:
{
    3414:	b580      	push	{r7, lr}
    3416:	b082      	sub	sp, #8
    3418:	af00      	add	r7, sp, #0
    341a:	0002      	movs	r2, r0
    341c:	1dfb      	adds	r3, r7, #7
    341e:	701a      	strb	r2, [r3, #0]
	MCLK->CPUDIV.reg = MCLK_CPUDIV_CPUDIV(1 << divider);
    3420:	4a05      	ldr	r2, [pc, #20]	; (3438 <system_cpu_clock_set_divider+0x24>)
    3422:	1dfb      	adds	r3, r7, #7
    3424:	781b      	ldrb	r3, [r3, #0]
    3426:	2101      	movs	r1, #1
    3428:	4099      	lsls	r1, r3
    342a:	000b      	movs	r3, r1
    342c:	b2db      	uxtb	r3, r3
    342e:	7113      	strb	r3, [r2, #4]
}
    3430:	46c0      	nop			; (mov r8, r8)
    3432:	46bd      	mov	sp, r7
    3434:	b002      	add	sp, #8
    3436:	bd80      	pop	{r7, pc}
    3438:	40000800 	.word	0x40000800

0000343c <system_backup_clock_set_divider>:
{
    343c:	b580      	push	{r7, lr}
    343e:	b082      	sub	sp, #8
    3440:	af00      	add	r7, sp, #0
    3442:	0002      	movs	r2, r0
    3444:	1dfb      	adds	r3, r7, #7
    3446:	701a      	strb	r2, [r3, #0]
	MCLK->BUPDIV.reg = MCLK_BUPDIV_BUPDIV(1 << divider);
    3448:	4a05      	ldr	r2, [pc, #20]	; (3460 <system_backup_clock_set_divider+0x24>)
    344a:	1dfb      	adds	r3, r7, #7
    344c:	781b      	ldrb	r3, [r3, #0]
    344e:	2101      	movs	r1, #1
    3450:	4099      	lsls	r1, r3
    3452:	000b      	movs	r3, r1
    3454:	b2db      	uxtb	r3, r3
    3456:	7193      	strb	r3, [r2, #6]
}
    3458:	46c0      	nop			; (mov r8, r8)
    345a:	46bd      	mov	sp, r7
    345c:	b002      	add	sp, #8
    345e:	bd80      	pop	{r7, pc}
    3460:	40000800 	.word	0x40000800

00003464 <system_cpu_clock_get_hz>:
{
    3464:	b580      	push	{r7, lr}
    3466:	af00      	add	r7, sp, #0
	return (system_gclk_gen_get_hz(GCLK_GENERATOR_0) / MCLK->CPUDIV.reg);
    3468:	2000      	movs	r0, #0
    346a:	4b07      	ldr	r3, [pc, #28]	; (3488 <system_cpu_clock_get_hz+0x24>)
    346c:	4798      	blx	r3
    346e:	0002      	movs	r2, r0
    3470:	4b06      	ldr	r3, [pc, #24]	; (348c <system_cpu_clock_get_hz+0x28>)
    3472:	791b      	ldrb	r3, [r3, #4]
    3474:	b2db      	uxtb	r3, r3
    3476:	0019      	movs	r1, r3
    3478:	4b05      	ldr	r3, [pc, #20]	; (3490 <system_cpu_clock_get_hz+0x2c>)
    347a:	0010      	movs	r0, r2
    347c:	4798      	blx	r3
    347e:	0003      	movs	r3, r0
}
    3480:	0018      	movs	r0, r3
    3482:	46bd      	mov	sp, r7
    3484:	bd80      	pop	{r7, pc}
    3486:	46c0      	nop			; (mov r8, r8)
    3488:	0000392d 	.word	0x0000392d
    348c:	40000800 	.word	0x40000800
    3490:	000040fd 	.word	0x000040fd

00003494 <system_flash_set_waitstates>:
 * can be found in the electrical characteristics of the device.
 *
 * \param[in] wait_states Number of wait states to use for internal flash
 */
static inline void system_flash_set_waitstates(uint8_t wait_states)
{
    3494:	b580      	push	{r7, lr}
    3496:	b082      	sub	sp, #8
    3498:	af00      	add	r7, sp, #0
    349a:	0002      	movs	r2, r0
    349c:	1dfb      	adds	r3, r7, #7
    349e:	701a      	strb	r2, [r3, #0]
	Assert(NVMCTRL_CTRLB_RWS((uint32_t)wait_states) ==
			((uint32_t)wait_states << NVMCTRL_CTRLB_RWS_Pos));

	NVMCTRL->CTRLB.bit.RWS = wait_states;
    34a0:	4a08      	ldr	r2, [pc, #32]	; (34c4 <system_flash_set_waitstates+0x30>)
    34a2:	1dfb      	adds	r3, r7, #7
    34a4:	781b      	ldrb	r3, [r3, #0]
    34a6:	210f      	movs	r1, #15
    34a8:	400b      	ands	r3, r1
    34aa:	b2d9      	uxtb	r1, r3
    34ac:	6853      	ldr	r3, [r2, #4]
    34ae:	200f      	movs	r0, #15
    34b0:	4001      	ands	r1, r0
    34b2:	0049      	lsls	r1, r1, #1
    34b4:	201e      	movs	r0, #30
    34b6:	4383      	bics	r3, r0
    34b8:	430b      	orrs	r3, r1
    34ba:	6053      	str	r3, [r2, #4]
}
    34bc:	46c0      	nop			; (mov r8, r8)
    34be:	46bd      	mov	sp, r7
    34c0:	b002      	add	sp, #8
    34c2:	bd80      	pop	{r7, pc}
    34c4:	41004000 	.word	0x41004000

000034c8 <system_switch_performance_level>:
 * \retval STATUS_ERR_INVALID_ARG  Invalid parameter
 * \retval STATUS_OK               Successfully
 */
static inline enum status_code system_switch_performance_level(
					const enum system_performance_level performance_level)
{
    34c8:	b580      	push	{r7, lr}
    34ca:	b082      	sub	sp, #8
    34cc:	af00      	add	r7, sp, #0
    34ce:	0002      	movs	r2, r0
    34d0:	1dfb      	adds	r3, r7, #7
    34d2:	701a      	strb	r2, [r3, #0]

	if (performance_level == (enum system_performance_level)PM->PLCFG.reg) {
    34d4:	4b11      	ldr	r3, [pc, #68]	; (351c <system_switch_performance_level+0x54>)
    34d6:	789b      	ldrb	r3, [r3, #2]
    34d8:	b2db      	uxtb	r3, r3
    34da:	1dfa      	adds	r2, r7, #7
    34dc:	7812      	ldrb	r2, [r2, #0]
    34de:	429a      	cmp	r2, r3
    34e0:	d101      	bne.n	34e6 <system_switch_performance_level+0x1e>
		return STATUS_OK;
    34e2:	2300      	movs	r3, #0
    34e4:	e015      	b.n	3512 <system_switch_performance_level+0x4a>
	}

#if SAML22 || SAML21XXXB
	if (PM->PLCFG.reg & PM_PLCFG_PLDIS) {
    34e6:	4b0d      	ldr	r3, [pc, #52]	; (351c <system_switch_performance_level+0x54>)
    34e8:	789b      	ldrb	r3, [r3, #2]
    34ea:	b2db      	uxtb	r3, r3
    34ec:	b25b      	sxtb	r3, r3
    34ee:	2b00      	cmp	r3, #0
    34f0:	da01      	bge.n	34f6 <system_switch_performance_level+0x2e>
		return STATUS_ERR_INVALID_ARG;
    34f2:	2317      	movs	r3, #23
    34f4:	e00d      	b.n	3512 <system_switch_performance_level+0x4a>
	}
#endif

	/* Clear performance level status */
	PM->INTFLAG.reg = PM_INTFLAG_PLRDY;
    34f6:	4b09      	ldr	r3, [pc, #36]	; (351c <system_switch_performance_level+0x54>)
    34f8:	2201      	movs	r2, #1
    34fa:	719a      	strb	r2, [r3, #6]

	/* Switch performance level */
	PM->PLCFG.reg = performance_level;
    34fc:	4a07      	ldr	r2, [pc, #28]	; (351c <system_switch_performance_level+0x54>)
    34fe:	1dfb      	adds	r3, r7, #7
    3500:	781b      	ldrb	r3, [r3, #0]
    3502:	7093      	strb	r3, [r2, #2]

	/* Waiting performance level ready */
	while (!PM->INTFLAG.reg) {
    3504:	46c0      	nop			; (mov r8, r8)
    3506:	4b05      	ldr	r3, [pc, #20]	; (351c <system_switch_performance_level+0x54>)
    3508:	799b      	ldrb	r3, [r3, #6]
    350a:	b2db      	uxtb	r3, r3
    350c:	2b00      	cmp	r3, #0
    350e:	d0fa      	beq.n	3506 <system_switch_performance_level+0x3e>
		;
	}
	return STATUS_OK;
    3510:	2300      	movs	r3, #0
}
    3512:	0018      	movs	r0, r3
    3514:	46bd      	mov	sp, r7
    3516:	b002      	add	sp, #8
    3518:	bd80      	pop	{r7, pc}
    351a:	46c0      	nop			; (mov r8, r8)
    351c:	40000400 	.word	0x40000400

00003520 <_system_dfll_wait_for_sync>:
/**
 * \internal
 * \brief Wait for sync to the DFLL control registers.
 */
static inline void _system_dfll_wait_for_sync(void)
{
    3520:	b580      	push	{r7, lr}
    3522:	af00      	add	r7, sp, #0
	while (!(OSCCTRL->STATUS.reg & OSCCTRL_STATUS_DFLLRDY)) {
    3524:	46c0      	nop			; (mov r8, r8)
    3526:	4b04      	ldr	r3, [pc, #16]	; (3538 <_system_dfll_wait_for_sync+0x18>)
    3528:	68da      	ldr	r2, [r3, #12]
    352a:	2380      	movs	r3, #128	; 0x80
    352c:	005b      	lsls	r3, r3, #1
    352e:	4013      	ands	r3, r2
    3530:	d0f9      	beq.n	3526 <_system_dfll_wait_for_sync+0x6>
		/* Wait for DFLL sync */
	}
}
    3532:	46c0      	nop			; (mov r8, r8)
    3534:	46bd      	mov	sp, r7
    3536:	bd80      	pop	{r7, pc}
    3538:	40001000 	.word	0x40001000

0000353c <system_clock_source_get_hz>:
 *
 * \returns Frequency of the given clock source, in Hz.
 */
uint32_t system_clock_source_get_hz(
		const enum system_clock_source clock_source)
{
    353c:	b580      	push	{r7, lr}
    353e:	b082      	sub	sp, #8
    3540:	af00      	add	r7, sp, #0
    3542:	0002      	movs	r2, r0
    3544:	1dfb      	adds	r3, r7, #7
    3546:	701a      	strb	r2, [r3, #0]
	switch (clock_source) {
    3548:	1dfb      	adds	r3, r7, #7
    354a:	781b      	ldrb	r3, [r3, #0]
    354c:	2b07      	cmp	r3, #7
    354e:	d83f      	bhi.n	35d0 <system_clock_source_get_hz+0x94>
    3550:	009a      	lsls	r2, r3, #2
    3552:	4b22      	ldr	r3, [pc, #136]	; (35dc <system_clock_source_get_hz+0xa0>)
    3554:	18d3      	adds	r3, r2, r3
    3556:	681b      	ldr	r3, [r3, #0]
    3558:	469f      	mov	pc, r3
	case SYSTEM_CLOCK_SOURCE_XOSC:
		return _system_clock_inst.xosc.frequency;
    355a:	4b21      	ldr	r3, [pc, #132]	; (35e0 <system_clock_source_get_hz+0xa4>)
    355c:	691b      	ldr	r3, [r3, #16]
    355e:	e038      	b.n	35d2 <system_clock_source_get_hz+0x96>

	case SYSTEM_CLOCK_SOURCE_OSC16M:
		return (OSCCTRL->OSC16MCTRL.bit.FSEL+1)*4000000UL;
    3560:	4b20      	ldr	r3, [pc, #128]	; (35e4 <system_clock_source_get_hz+0xa8>)
    3562:	7d1b      	ldrb	r3, [r3, #20]
    3564:	071b      	lsls	r3, r3, #28
    3566:	0f9b      	lsrs	r3, r3, #30
    3568:	b2db      	uxtb	r3, r3
    356a:	3301      	adds	r3, #1
    356c:	001a      	movs	r2, r3
    356e:	4b1e      	ldr	r3, [pc, #120]	; (35e8 <system_clock_source_get_hz+0xac>)
    3570:	4353      	muls	r3, r2
    3572:	e02e      	b.n	35d2 <system_clock_source_get_hz+0x96>

	case SYSTEM_CLOCK_SOURCE_ULP32K:
		return 32768UL;
    3574:	2380      	movs	r3, #128	; 0x80
    3576:	021b      	lsls	r3, r3, #8
    3578:	e02b      	b.n	35d2 <system_clock_source_get_hz+0x96>

	case SYSTEM_CLOCK_SOURCE_XOSC32K:
		return _system_clock_inst.xosc32k.frequency;
    357a:	4b19      	ldr	r3, [pc, #100]	; (35e0 <system_clock_source_get_hz+0xa4>)
    357c:	695b      	ldr	r3, [r3, #20]
    357e:	e028      	b.n	35d2 <system_clock_source_get_hz+0x96>

	case SYSTEM_CLOCK_SOURCE_DFLL:

		/* Check if the DFLL has been configured */
		if (!(_system_clock_inst.dfll.control & OSCCTRL_DFLLCTRL_ENABLE))
    3580:	4b17      	ldr	r3, [pc, #92]	; (35e0 <system_clock_source_get_hz+0xa4>)
    3582:	681b      	ldr	r3, [r3, #0]
    3584:	2202      	movs	r2, #2
    3586:	4013      	ands	r3, r2
    3588:	d101      	bne.n	358e <system_clock_source_get_hz+0x52>
			return 0;
    358a:	2300      	movs	r3, #0
    358c:	e021      	b.n	35d2 <system_clock_source_get_hz+0x96>

		/* Make sure that the DFLL module is ready */
		_system_dfll_wait_for_sync();
    358e:	4b17      	ldr	r3, [pc, #92]	; (35ec <system_clock_source_get_hz+0xb0>)
    3590:	4798      	blx	r3

		/* Check if operating in closed loop (USB) mode */
		switch(_system_clock_inst.dfll.control &
    3592:	4b13      	ldr	r3, [pc, #76]	; (35e0 <system_clock_source_get_hz+0xa4>)
    3594:	681b      	ldr	r3, [r3, #0]
    3596:	2224      	movs	r2, #36	; 0x24
    3598:	4013      	ands	r3, r2
    359a:	2b04      	cmp	r3, #4
    359c:	d109      	bne.n	35b2 <system_clock_source_get_hz+0x76>
				(OSCCTRL_DFLLCTRL_MODE | OSCCTRL_DFLLCTRL_USBCRM)) {
		case OSCCTRL_DFLLCTRL_MODE:
			return system_gclk_chan_get_hz(OSCCTRL_GCLK_ID_DFLL48) *
    359e:	2000      	movs	r0, #0
    35a0:	4b13      	ldr	r3, [pc, #76]	; (35f0 <system_clock_source_get_hz+0xb4>)
    35a2:	4798      	blx	r3
    35a4:	0002      	movs	r2, r0
					(_system_clock_inst.dfll.mul & 0xffff);
    35a6:	4b0e      	ldr	r3, [pc, #56]	; (35e0 <system_clock_source_get_hz+0xa4>)
    35a8:	689b      	ldr	r3, [r3, #8]
    35aa:	041b      	lsls	r3, r3, #16
    35ac:	0c1b      	lsrs	r3, r3, #16
			return system_gclk_chan_get_hz(OSCCTRL_GCLK_ID_DFLL48) *
    35ae:	4353      	muls	r3, r2
    35b0:	e00f      	b.n	35d2 <system_clock_source_get_hz+0x96>
		default:
			return 48000000UL;
    35b2:	4b10      	ldr	r3, [pc, #64]	; (35f4 <system_clock_source_get_hz+0xb8>)
    35b4:	e00d      	b.n	35d2 <system_clock_source_get_hz+0x96>
		}

	case SYSTEM_CLOCK_SOURCE_DPLL:
		if (!(OSCCTRL->DPLLCTRLA.reg & OSCCTRL_DPLLCTRLA_ENABLE)) {
    35b6:	4a0b      	ldr	r2, [pc, #44]	; (35e4 <system_clock_source_get_hz+0xa8>)
    35b8:	2328      	movs	r3, #40	; 0x28
    35ba:	5cd3      	ldrb	r3, [r2, r3]
    35bc:	b2db      	uxtb	r3, r3
    35be:	001a      	movs	r2, r3
    35c0:	2302      	movs	r3, #2
    35c2:	4013      	ands	r3, r2
    35c4:	d101      	bne.n	35ca <system_clock_source_get_hz+0x8e>
			return 0;
    35c6:	2300      	movs	r3, #0
    35c8:	e003      	b.n	35d2 <system_clock_source_get_hz+0x96>
		}

		return _system_clock_inst.dpll.frequency;
    35ca:	4b05      	ldr	r3, [pc, #20]	; (35e0 <system_clock_source_get_hz+0xa4>)
    35cc:	68db      	ldr	r3, [r3, #12]
    35ce:	e000      	b.n	35d2 <system_clock_source_get_hz+0x96>

	default:
		return 0;
    35d0:	2300      	movs	r3, #0
	}
}
    35d2:	0018      	movs	r0, r3
    35d4:	46bd      	mov	sp, r7
    35d6:	b002      	add	sp, #8
    35d8:	bd80      	pop	{r7, pc}
    35da:	46c0      	nop			; (mov r8, r8)
    35dc:	00004dec 	.word	0x00004dec
    35e0:	20003950 	.word	0x20003950
    35e4:	40001000 	.word	0x40001000
    35e8:	003d0900 	.word	0x003d0900
    35ec:	00003521 	.word	0x00003521
    35f0:	00003add 	.word	0x00003add
    35f4:	02dc6c00 	.word	0x02dc6c00

000035f8 <system_clock_init>:
 * \note OSC16M is always enabled and if user selects other clocks for GCLK generators,
 * the OSC16M default enable can be disabled after system_clock_init. Make sure the
 * clock switch successfully before disabling OSC8M.
 */
void system_clock_init(void)
{
    35f8:	b580      	push	{r7, lr}
    35fa:	b094      	sub	sp, #80	; 0x50
    35fc:	af00      	add	r7, sp, #0
	/* Various bits in the INTFLAG register can be set to one at startup.
	   This will ensure that these bits are cleared */
	OSCCTRL->INTFLAG.reg = OSCCTRL_INTFLAG_DFLLRDY;
    35fe:	4b28      	ldr	r3, [pc, #160]	; (36a0 <system_clock_init+0xa8>)
    3600:	2280      	movs	r2, #128	; 0x80
    3602:	0052      	lsls	r2, r2, #1
    3604:	609a      	str	r2, [r3, #8]
	SUPC->INTFLAG.reg = SUPC_INTFLAG_BOD33RDY | SUPC_INTFLAG_BOD33DET;
    3606:	4b27      	ldr	r3, [pc, #156]	; (36a4 <system_clock_init+0xac>)
    3608:	2203      	movs	r2, #3
    360a:	609a      	str	r2, [r3, #8]

	system_flash_set_waitstates(CONF_CLOCK_FLASH_WAIT_STATES);
    360c:	2000      	movs	r0, #0
    360e:	4b26      	ldr	r3, [pc, #152]	; (36a8 <system_clock_init+0xb0>)
    3610:	4798      	blx	r3

	/*  Switch to PL2 to be sure configuration of GCLK0 is safe */
	system_switch_performance_level(SYSTEM_PERFORMANCE_LEVEL_2);
    3612:	2002      	movs	r0, #2
    3614:	4b25      	ldr	r3, [pc, #148]	; (36ac <system_clock_init+0xb4>)
    3616:	4798      	blx	r3
	}
#endif

	/* OSC16M */
	if (CONF_CLOCK_OSC16M_FREQ_SEL == SYSTEM_OSC16M_4M){
		OSCCTRL->OSC16MCTRL.bit.ONDEMAND = CONF_CLOCK_OSC16M_ON_DEMAND ;
    3618:	4a21      	ldr	r2, [pc, #132]	; (36a0 <system_clock_init+0xa8>)
    361a:	7d13      	ldrb	r3, [r2, #20]
    361c:	2180      	movs	r1, #128	; 0x80
    361e:	4249      	negs	r1, r1
    3620:	430b      	orrs	r3, r1
    3622:	7513      	strb	r3, [r2, #20]
		OSCCTRL->OSC16MCTRL.bit.RUNSTDBY = CONF_CLOCK_OSC16M_RUN_IN_STANDBY;
    3624:	4a1e      	ldr	r2, [pc, #120]	; (36a0 <system_clock_init+0xa8>)
    3626:	7d13      	ldrb	r3, [r2, #20]
    3628:	2140      	movs	r1, #64	; 0x40
    362a:	438b      	bics	r3, r1
    362c:	7513      	strb	r3, [r2, #20]
	} else {
		_system_clock_source_osc16m_freq_sel();
	}

	uint32_t mask = OSC32KCTRL->OSCULP32K.reg & (~(OSC32KCTRL_OSCULP32K_EN32K | OSC32KCTRL_OSCULP32K_EN1K));
    362e:	4b20      	ldr	r3, [pc, #128]	; (36b0 <system_clock_init+0xb8>)
    3630:	69db      	ldr	r3, [r3, #28]
    3632:	2206      	movs	r2, #6
    3634:	4393      	bics	r3, r2
    3636:	64fb      	str	r3, [r7, #76]	; 0x4c
	OSC32KCTRL->OSCULP32K.reg = mask | (CONF_CLOCK_OSCULP32K_ENABLE_1KHZ_OUTPUT << OSC32KCTRL_OSCULP32K_EN1K_Pos)
    3638:	4b1d      	ldr	r3, [pc, #116]	; (36b0 <system_clock_init+0xb8>)
									 | (CONF_CLOCK_OSCULP32K_ENABLE_32KHZ_OUTPUT << OSC32KCTRL_OSCULP32K_EN32K_Pos);
    363a:	6cfa      	ldr	r2, [r7, #76]	; 0x4c
    363c:	2106      	movs	r1, #6
    363e:	430a      	orrs	r2, r1
	OSC32KCTRL->OSCULP32K.reg = mask | (CONF_CLOCK_OSCULP32K_ENABLE_1KHZ_OUTPUT << OSC32KCTRL_OSCULP32K_EN1K_Pos)
    3640:	61da      	str	r2, [r3, #28]
	system_clock_source_dfll_set_config(&dfll_conf);
#endif

	/* GCLK */
#if CONF_CLOCK_CONFIGURE_GCLK == true
	system_gclk_init();
    3642:	4b1c      	ldr	r3, [pc, #112]	; (36b4 <system_clock_init+0xbc>)
    3644:	4798      	blx	r3
	}

#  endif

	/* CPU and BUS clocks */
	system_backup_clock_set_divider(CONF_CLOCK_BACKUP_DIVIDER);
    3646:	2000      	movs	r0, #0
    3648:	4b1b      	ldr	r3, [pc, #108]	; (36b8 <system_clock_init+0xc0>)
    364a:	4798      	blx	r3
	system_cpu_clock_set_divider(CONF_CLOCK_CPU_DIVIDER);
    364c:	2000      	movs	r0, #0
    364e:	4b1b      	ldr	r3, [pc, #108]	; (36bc <system_clock_init+0xc4>)
    3650:	4798      	blx	r3

	/* GCLK 0 */
#if CONF_CLOCK_CONFIGURE_GCLK == true
	/* Configure the main GCLK last as it might depend on other generators */
	_CONF_CLOCK_GCLK_CONFIG(0, ~);
    3652:	003b      	movs	r3, r7
    3654:	0018      	movs	r0, r3
    3656:	4b1a      	ldr	r3, [pc, #104]	; (36c0 <system_clock_init+0xc8>)
    3658:	4798      	blx	r3
    365a:	003b      	movs	r3, r7
    365c:	2205      	movs	r2, #5
    365e:	701a      	strb	r2, [r3, #0]
    3660:	003b      	movs	r3, r7
    3662:	2201      	movs	r2, #1
    3664:	605a      	str	r2, [r3, #4]
    3666:	003b      	movs	r3, r7
    3668:	2200      	movs	r2, #0
    366a:	721a      	strb	r2, [r3, #8]
    366c:	003b      	movs	r3, r7
    366e:	2200      	movs	r2, #0
    3670:	725a      	strb	r2, [r3, #9]
    3672:	003b      	movs	r3, r7
    3674:	0019      	movs	r1, r3
    3676:	2000      	movs	r0, #0
    3678:	4b12      	ldr	r3, [pc, #72]	; (36c4 <system_clock_init+0xcc>)
    367a:	4798      	blx	r3
    367c:	2000      	movs	r0, #0
    367e:	4b12      	ldr	r3, [pc, #72]	; (36c8 <system_clock_init+0xd0>)
    3680:	4798      	blx	r3
#endif

	/* If CPU frequency is less than 8MHz, scale down performance level to PL0 */
	uint32_t cpu_freq = system_cpu_clock_get_hz();
    3682:	4b12      	ldr	r3, [pc, #72]	; (36cc <system_clock_init+0xd4>)
    3684:	4798      	blx	r3
    3686:	0003      	movs	r3, r0
    3688:	64bb      	str	r3, [r7, #72]	; 0x48
	if (cpu_freq <= 8000000) {
    368a:	6cbb      	ldr	r3, [r7, #72]	; 0x48
    368c:	4a10      	ldr	r2, [pc, #64]	; (36d0 <system_clock_init+0xd8>)
    368e:	4293      	cmp	r3, r2
    3690:	d802      	bhi.n	3698 <system_clock_init+0xa0>
		system_switch_performance_level(SYSTEM_PERFORMANCE_LEVEL_0);
    3692:	2000      	movs	r0, #0
    3694:	4b05      	ldr	r3, [pc, #20]	; (36ac <system_clock_init+0xb4>)
    3696:	4798      	blx	r3
	}
}
    3698:	46c0      	nop			; (mov r8, r8)
    369a:	46bd      	mov	sp, r7
    369c:	b014      	add	sp, #80	; 0x50
    369e:	bd80      	pop	{r7, pc}
    36a0:	40001000 	.word	0x40001000
    36a4:	40001800 	.word	0x40001800
    36a8:	00003495 	.word	0x00003495
    36ac:	000034c9 	.word	0x000034c9
    36b0:	40001400 	.word	0x40001400
    36b4:	00003791 	.word	0x00003791
    36b8:	0000343d 	.word	0x0000343d
    36bc:	00003415 	.word	0x00003415
    36c0:	000033e5 	.word	0x000033e5
    36c4:	000037c1 	.word	0x000037c1
    36c8:	000038d1 	.word	0x000038d1
    36cc:	00003465 	.word	0x00003465
    36d0:	007a1200 	.word	0x007a1200

000036d4 <system_apb_clock_set_mask>:
{
    36d4:	b580      	push	{r7, lr}
    36d6:	b082      	sub	sp, #8
    36d8:	af00      	add	r7, sp, #0
    36da:	0002      	movs	r2, r0
    36dc:	6039      	str	r1, [r7, #0]
    36de:	1dfb      	adds	r3, r7, #7
    36e0:	701a      	strb	r2, [r3, #0]
	switch (bus) {
    36e2:	1dfb      	adds	r3, r7, #7
    36e4:	781b      	ldrb	r3, [r3, #0]
    36e6:	2b01      	cmp	r3, #1
    36e8:	d00a      	beq.n	3700 <system_apb_clock_set_mask+0x2c>
    36ea:	2b02      	cmp	r3, #2
    36ec:	d00f      	beq.n	370e <system_apb_clock_set_mask+0x3a>
    36ee:	2b00      	cmp	r3, #0
    36f0:	d114      	bne.n	371c <system_apb_clock_set_mask+0x48>
			MCLK->APBAMASK.reg |= mask;
    36f2:	4b0e      	ldr	r3, [pc, #56]	; (372c <system_apb_clock_set_mask+0x58>)
    36f4:	4a0d      	ldr	r2, [pc, #52]	; (372c <system_apb_clock_set_mask+0x58>)
    36f6:	6951      	ldr	r1, [r2, #20]
    36f8:	683a      	ldr	r2, [r7, #0]
    36fa:	430a      	orrs	r2, r1
    36fc:	615a      	str	r2, [r3, #20]
			break;
    36fe:	e00f      	b.n	3720 <system_apb_clock_set_mask+0x4c>
			MCLK->APBBMASK.reg |= mask;
    3700:	4b0a      	ldr	r3, [pc, #40]	; (372c <system_apb_clock_set_mask+0x58>)
    3702:	4a0a      	ldr	r2, [pc, #40]	; (372c <system_apb_clock_set_mask+0x58>)
    3704:	6991      	ldr	r1, [r2, #24]
    3706:	683a      	ldr	r2, [r7, #0]
    3708:	430a      	orrs	r2, r1
    370a:	619a      	str	r2, [r3, #24]
			break;
    370c:	e008      	b.n	3720 <system_apb_clock_set_mask+0x4c>
			MCLK->APBCMASK.reg |= mask;
    370e:	4b07      	ldr	r3, [pc, #28]	; (372c <system_apb_clock_set_mask+0x58>)
    3710:	4a06      	ldr	r2, [pc, #24]	; (372c <system_apb_clock_set_mask+0x58>)
    3712:	69d1      	ldr	r1, [r2, #28]
    3714:	683a      	ldr	r2, [r7, #0]
    3716:	430a      	orrs	r2, r1
    3718:	61da      	str	r2, [r3, #28]
			break;
    371a:	e001      	b.n	3720 <system_apb_clock_set_mask+0x4c>
			return STATUS_ERR_INVALID_ARG;
    371c:	2317      	movs	r3, #23
    371e:	e000      	b.n	3722 <system_apb_clock_set_mask+0x4e>
	return STATUS_OK;
    3720:	2300      	movs	r3, #0
}
    3722:	0018      	movs	r0, r3
    3724:	46bd      	mov	sp, r7
    3726:	b002      	add	sp, #8
    3728:	bd80      	pop	{r7, pc}
    372a:	46c0      	nop			; (mov r8, r8)
    372c:	40000800 	.word	0x40000800

00003730 <system_interrupt_enter_critical_section>:
{
    3730:	b580      	push	{r7, lr}
    3732:	af00      	add	r7, sp, #0
	cpu_irq_enter_critical();
    3734:	4b02      	ldr	r3, [pc, #8]	; (3740 <system_interrupt_enter_critical_section+0x10>)
    3736:	4798      	blx	r3
}
    3738:	46c0      	nop			; (mov r8, r8)
    373a:	46bd      	mov	sp, r7
    373c:	bd80      	pop	{r7, pc}
    373e:	46c0      	nop			; (mov r8, r8)
    3740:	0000317d 	.word	0x0000317d

00003744 <system_interrupt_leave_critical_section>:
{
    3744:	b580      	push	{r7, lr}
    3746:	af00      	add	r7, sp, #0
	cpu_irq_leave_critical();
    3748:	4b02      	ldr	r3, [pc, #8]	; (3754 <system_interrupt_leave_critical_section+0x10>)
    374a:	4798      	blx	r3
}
    374c:	46c0      	nop			; (mov r8, r8)
    374e:	46bd      	mov	sp, r7
    3750:	bd80      	pop	{r7, pc}
    3752:	46c0      	nop			; (mov r8, r8)
    3754:	000031d1 	.word	0x000031d1

00003758 <system_gclk_is_syncing>:
  *
  * \retval false if the module has completed synchronization
  * \retval true if the module synchronization is ongoing
  */
static inline bool system_gclk_is_syncing(const uint8_t generator)
{
    3758:	b580      	push	{r7, lr}
    375a:	b082      	sub	sp, #8
    375c:	af00      	add	r7, sp, #0
    375e:	0002      	movs	r2, r0
    3760:	1dfb      	adds	r3, r7, #7
    3762:	701a      	strb	r2, [r3, #0]

	 if (GCLK->SYNCBUSY.reg & GCLK_SYNCBUSY_GENCTRL(1 << generator )){
    3764:	4b09      	ldr	r3, [pc, #36]	; (378c <system_gclk_is_syncing+0x34>)
    3766:	685b      	ldr	r3, [r3, #4]
    3768:	1dfa      	adds	r2, r7, #7
    376a:	7812      	ldrb	r2, [r2, #0]
    376c:	2101      	movs	r1, #1
    376e:	4091      	lsls	r1, r2
    3770:	000a      	movs	r2, r1
    3772:	0092      	lsls	r2, r2, #2
    3774:	4013      	ands	r3, r2
    3776:	227c      	movs	r2, #124	; 0x7c
    3778:	4013      	ands	r3, r2
    377a:	d001      	beq.n	3780 <system_gclk_is_syncing+0x28>
		 return true;
    377c:	2301      	movs	r3, #1
    377e:	e000      	b.n	3782 <system_gclk_is_syncing+0x2a>
	}

	 return false;
    3780:	2300      	movs	r3, #0
}
    3782:	0018      	movs	r0, r3
    3784:	46bd      	mov	sp, r7
    3786:	b002      	add	sp, #8
    3788:	bd80      	pop	{r7, pc}
    378a:	46c0      	nop			; (mov r8, r8)
    378c:	40001c00 	.word	0x40001c00

00003790 <system_gclk_init>:
 *
 * Initializes the Generic Clock module, disabling and resetting all active
 * Generic Clock Generators and Channels to their power-on default values.
 */
void system_gclk_init(void)
{
    3790:	b580      	push	{r7, lr}
    3792:	af00      	add	r7, sp, #0
	/* Turn on the digital interface clock */
	system_apb_clock_set_mask(SYSTEM_CLOCK_APB_APBA, MCLK_APBAMASK_GCLK);
    3794:	2180      	movs	r1, #128	; 0x80
    3796:	2000      	movs	r0, #0
    3798:	4b07      	ldr	r3, [pc, #28]	; (37b8 <system_gclk_init+0x28>)
    379a:	4798      	blx	r3

	/* Software reset the module to ensure it is re-initialized correctly */
	GCLK->CTRLA.reg = GCLK_CTRLA_SWRST;
    379c:	4b07      	ldr	r3, [pc, #28]	; (37bc <system_gclk_init+0x2c>)
    379e:	2201      	movs	r2, #1
    37a0:	701a      	strb	r2, [r3, #0]
	while (GCLK->CTRLA.reg & GCLK_CTRLA_SWRST) {
    37a2:	46c0      	nop			; (mov r8, r8)
    37a4:	4b05      	ldr	r3, [pc, #20]	; (37bc <system_gclk_init+0x2c>)
    37a6:	781b      	ldrb	r3, [r3, #0]
    37a8:	b2db      	uxtb	r3, r3
    37aa:	001a      	movs	r2, r3
    37ac:	2301      	movs	r3, #1
    37ae:	4013      	ands	r3, r2
    37b0:	d1f8      	bne.n	37a4 <system_gclk_init+0x14>
		/* Wait for reset to complete */
	}
}
    37b2:	46c0      	nop			; (mov r8, r8)
    37b4:	46bd      	mov	sp, r7
    37b6:	bd80      	pop	{r7, pc}
    37b8:	000036d5 	.word	0x000036d5
    37bc:	40001c00 	.word	0x40001c00

000037c0 <system_gclk_gen_set_config>:
 * \param[in] config     Configuration settings for the generator
 */
void system_gclk_gen_set_config(
		const uint8_t generator,
		struct system_gclk_gen_config *const config)
{
    37c0:	b580      	push	{r7, lr}
    37c2:	b086      	sub	sp, #24
    37c4:	af00      	add	r7, sp, #0
    37c6:	0002      	movs	r2, r0
    37c8:	6039      	str	r1, [r7, #0]
    37ca:	1dfb      	adds	r3, r7, #7
    37cc:	701a      	strb	r2, [r3, #0]
	/* Cache new register configurations to minimize sync requirements. */
	uint32_t new_genctrl_config ;


	/* Select the requested source clock for the generator */
	new_genctrl_config = config->source_clock << GCLK_GENCTRL_SRC_Pos;
    37ce:	683b      	ldr	r3, [r7, #0]
    37d0:	781b      	ldrb	r3, [r3, #0]
    37d2:	617b      	str	r3, [r7, #20]

	/* Configure the clock to be either high or low when disabled */
	if (config->high_when_disabled) {
    37d4:	683b      	ldr	r3, [r7, #0]
    37d6:	785b      	ldrb	r3, [r3, #1]
    37d8:	2b00      	cmp	r3, #0
    37da:	d004      	beq.n	37e6 <system_gclk_gen_set_config+0x26>
		new_genctrl_config |= GCLK_GENCTRL_OOV;
    37dc:	697b      	ldr	r3, [r7, #20]
    37de:	2280      	movs	r2, #128	; 0x80
    37e0:	00d2      	lsls	r2, r2, #3
    37e2:	4313      	orrs	r3, r2
    37e4:	617b      	str	r3, [r7, #20]
	}

	/* Configure if the clock output to I/O pin should be enabled. */
	if (config->output_enable) {
    37e6:	683b      	ldr	r3, [r7, #0]
    37e8:	7a5b      	ldrb	r3, [r3, #9]
    37ea:	2b00      	cmp	r3, #0
    37ec:	d004      	beq.n	37f8 <system_gclk_gen_set_config+0x38>
		new_genctrl_config |= GCLK_GENCTRL_OE;
    37ee:	697b      	ldr	r3, [r7, #20]
    37f0:	2280      	movs	r2, #128	; 0x80
    37f2:	0112      	lsls	r2, r2, #4
    37f4:	4313      	orrs	r3, r2
    37f6:	617b      	str	r3, [r7, #20]
	}

	/* Set division factor */
	if (config->division_factor > 1) {
    37f8:	683b      	ldr	r3, [r7, #0]
    37fa:	685b      	ldr	r3, [r3, #4]
    37fc:	2b01      	cmp	r3, #1
    37fe:	d92c      	bls.n	385a <system_gclk_gen_set_config+0x9a>
		/* Check if division is a power of two */
		if (((config->division_factor & (config->division_factor - 1)) == 0)) {
    3800:	683b      	ldr	r3, [r7, #0]
    3802:	685a      	ldr	r2, [r3, #4]
    3804:	683b      	ldr	r3, [r7, #0]
    3806:	685b      	ldr	r3, [r3, #4]
    3808:	3b01      	subs	r3, #1
    380a:	4013      	ands	r3, r2
    380c:	d11a      	bne.n	3844 <system_gclk_gen_set_config+0x84>
			/* Determine the index of the highest bit set to get the
			 * division factor that must be loaded into the division
			 * register */

			uint32_t div2_count = 0;
    380e:	2300      	movs	r3, #0
    3810:	613b      	str	r3, [r7, #16]

			uint32_t mask;
			for (mask = (1UL << 1); mask < config->division_factor;
    3812:	2302      	movs	r3, #2
    3814:	60fb      	str	r3, [r7, #12]
    3816:	e005      	b.n	3824 <system_gclk_gen_set_config+0x64>
						mask <<= 1) {
				div2_count++;
    3818:	693b      	ldr	r3, [r7, #16]
    381a:	3301      	adds	r3, #1
    381c:	613b      	str	r3, [r7, #16]
						mask <<= 1) {
    381e:	68fb      	ldr	r3, [r7, #12]
    3820:	005b      	lsls	r3, r3, #1
    3822:	60fb      	str	r3, [r7, #12]
			for (mask = (1UL << 1); mask < config->division_factor;
    3824:	683b      	ldr	r3, [r7, #0]
    3826:	685a      	ldr	r2, [r3, #4]
    3828:	68fb      	ldr	r3, [r7, #12]
    382a:	429a      	cmp	r2, r3
    382c:	d8f4      	bhi.n	3818 <system_gclk_gen_set_config+0x58>
			}

			/* Set binary divider power of 2 division factor */
			new_genctrl_config  |= div2_count << GCLK_GENCTRL_DIV_Pos;
    382e:	693b      	ldr	r3, [r7, #16]
    3830:	041b      	lsls	r3, r3, #16
    3832:	697a      	ldr	r2, [r7, #20]
    3834:	4313      	orrs	r3, r2
    3836:	617b      	str	r3, [r7, #20]
			new_genctrl_config |= GCLK_GENCTRL_DIVSEL;
    3838:	697b      	ldr	r3, [r7, #20]
    383a:	2280      	movs	r2, #128	; 0x80
    383c:	0152      	lsls	r2, r2, #5
    383e:	4313      	orrs	r3, r2
    3840:	617b      	str	r3, [r7, #20]
    3842:	e00a      	b.n	385a <system_gclk_gen_set_config+0x9a>
		} else {
			/* Set integer division factor */

			new_genctrl_config  |=
					(config->division_factor) << GCLK_GENCTRL_DIV_Pos;
    3844:	683b      	ldr	r3, [r7, #0]
    3846:	685b      	ldr	r3, [r3, #4]
    3848:	041b      	lsls	r3, r3, #16
			new_genctrl_config  |=
    384a:	697a      	ldr	r2, [r7, #20]
    384c:	4313      	orrs	r3, r2
    384e:	617b      	str	r3, [r7, #20]

			/* Enable non-binary division with increased duty cycle accuracy */
			new_genctrl_config |= GCLK_GENCTRL_IDC;
    3850:	697b      	ldr	r3, [r7, #20]
    3852:	2280      	movs	r2, #128	; 0x80
    3854:	0092      	lsls	r2, r2, #2
    3856:	4313      	orrs	r3, r2
    3858:	617b      	str	r3, [r7, #20]
		}

	}

	/* Enable or disable the clock in standby mode */
	if (config->run_in_standby) {
    385a:	683b      	ldr	r3, [r7, #0]
    385c:	7a1b      	ldrb	r3, [r3, #8]
    385e:	2b00      	cmp	r3, #0
    3860:	d004      	beq.n	386c <system_gclk_gen_set_config+0xac>
		new_genctrl_config |= GCLK_GENCTRL_RUNSTDBY;
    3862:	697b      	ldr	r3, [r7, #20]
    3864:	2280      	movs	r2, #128	; 0x80
    3866:	0192      	lsls	r2, r2, #6
    3868:	4313      	orrs	r3, r2
    386a:	617b      	str	r3, [r7, #20]
	}

	while (system_gclk_is_syncing(generator)) {
    386c:	46c0      	nop			; (mov r8, r8)
    386e:	1dfb      	adds	r3, r7, #7
    3870:	781b      	ldrb	r3, [r3, #0]
    3872:	0018      	movs	r0, r3
    3874:	4b12      	ldr	r3, [pc, #72]	; (38c0 <system_gclk_gen_set_config+0x100>)
    3876:	4798      	blx	r3
    3878:	1e03      	subs	r3, r0, #0
    387a:	d1f8      	bne.n	386e <system_gclk_gen_set_config+0xae>
		/* Wait for synchronization */
	};

	system_interrupt_enter_critical_section();
    387c:	4b11      	ldr	r3, [pc, #68]	; (38c4 <system_gclk_gen_set_config+0x104>)
    387e:	4798      	blx	r3

	GCLK->GENCTRL[generator].reg = new_genctrl_config | (GCLK->GENCTRL[generator].reg & GCLK_GENCTRL_GENEN);
    3880:	4811      	ldr	r0, [pc, #68]	; (38c8 <system_gclk_gen_set_config+0x108>)
    3882:	1dfb      	adds	r3, r7, #7
    3884:	781b      	ldrb	r3, [r3, #0]
    3886:	4910      	ldr	r1, [pc, #64]	; (38c8 <system_gclk_gen_set_config+0x108>)
    3888:	1dfa      	adds	r2, r7, #7
    388a:	7812      	ldrb	r2, [r2, #0]
    388c:	3208      	adds	r2, #8
    388e:	0092      	lsls	r2, r2, #2
    3890:	5851      	ldr	r1, [r2, r1]
    3892:	2280      	movs	r2, #128	; 0x80
    3894:	0052      	lsls	r2, r2, #1
    3896:	4011      	ands	r1, r2
    3898:	697a      	ldr	r2, [r7, #20]
    389a:	430a      	orrs	r2, r1
    389c:	3308      	adds	r3, #8
    389e:	009b      	lsls	r3, r3, #2
    38a0:	501a      	str	r2, [r3, r0]

	while (system_gclk_is_syncing(generator)) {
    38a2:	46c0      	nop			; (mov r8, r8)
    38a4:	1dfb      	adds	r3, r7, #7
    38a6:	781b      	ldrb	r3, [r3, #0]
    38a8:	0018      	movs	r0, r3
    38aa:	4b05      	ldr	r3, [pc, #20]	; (38c0 <system_gclk_gen_set_config+0x100>)
    38ac:	4798      	blx	r3
    38ae:	1e03      	subs	r3, r0, #0
    38b0:	d1f8      	bne.n	38a4 <system_gclk_gen_set_config+0xe4>
		/* Wait for synchronization */
	};

	system_interrupt_leave_critical_section();
    38b2:	4b06      	ldr	r3, [pc, #24]	; (38cc <system_gclk_gen_set_config+0x10c>)
    38b4:	4798      	blx	r3
}
    38b6:	46c0      	nop			; (mov r8, r8)
    38b8:	46bd      	mov	sp, r7
    38ba:	b006      	add	sp, #24
    38bc:	bd80      	pop	{r7, pc}
    38be:	46c0      	nop			; (mov r8, r8)
    38c0:	00003759 	.word	0x00003759
    38c4:	00003731 	.word	0x00003731
    38c8:	40001c00 	.word	0x40001c00
    38cc:	00003745 	.word	0x00003745

000038d0 <system_gclk_gen_enable>:
 *
 * \param[in] generator  Generic Clock Generator index to enable
 */
void system_gclk_gen_enable(
		const uint8_t generator)
{
    38d0:	b580      	push	{r7, lr}
    38d2:	b082      	sub	sp, #8
    38d4:	af00      	add	r7, sp, #0
    38d6:	0002      	movs	r2, r0
    38d8:	1dfb      	adds	r3, r7, #7
    38da:	701a      	strb	r2, [r3, #0]
	while (system_gclk_is_syncing(generator)) {
    38dc:	46c0      	nop			; (mov r8, r8)
    38de:	1dfb      	adds	r3, r7, #7
    38e0:	781b      	ldrb	r3, [r3, #0]
    38e2:	0018      	movs	r0, r3
    38e4:	4b0d      	ldr	r3, [pc, #52]	; (391c <system_gclk_gen_enable+0x4c>)
    38e6:	4798      	blx	r3
    38e8:	1e03      	subs	r3, r0, #0
    38ea:	d1f8      	bne.n	38de <system_gclk_gen_enable+0xe>
		/* Wait for synchronization */
	};

	system_interrupt_enter_critical_section();
    38ec:	4b0c      	ldr	r3, [pc, #48]	; (3920 <system_gclk_gen_enable+0x50>)
    38ee:	4798      	blx	r3

	/* Enable generator */
	GCLK->GENCTRL[generator].reg |= GCLK_GENCTRL_GENEN;
    38f0:	480c      	ldr	r0, [pc, #48]	; (3924 <system_gclk_gen_enable+0x54>)
    38f2:	1dfb      	adds	r3, r7, #7
    38f4:	781b      	ldrb	r3, [r3, #0]
    38f6:	490b      	ldr	r1, [pc, #44]	; (3924 <system_gclk_gen_enable+0x54>)
    38f8:	1dfa      	adds	r2, r7, #7
    38fa:	7812      	ldrb	r2, [r2, #0]
    38fc:	3208      	adds	r2, #8
    38fe:	0092      	lsls	r2, r2, #2
    3900:	5852      	ldr	r2, [r2, r1]
    3902:	2180      	movs	r1, #128	; 0x80
    3904:	0049      	lsls	r1, r1, #1
    3906:	430a      	orrs	r2, r1
    3908:	3308      	adds	r3, #8
    390a:	009b      	lsls	r3, r3, #2
    390c:	501a      	str	r2, [r3, r0]

	system_interrupt_leave_critical_section();
    390e:	4b06      	ldr	r3, [pc, #24]	; (3928 <system_gclk_gen_enable+0x58>)
    3910:	4798      	blx	r3
}
    3912:	46c0      	nop			; (mov r8, r8)
    3914:	46bd      	mov	sp, r7
    3916:	b002      	add	sp, #8
    3918:	bd80      	pop	{r7, pc}
    391a:	46c0      	nop			; (mov r8, r8)
    391c:	00003759 	.word	0x00003759
    3920:	00003731 	.word	0x00003731
    3924:	40001c00 	.word	0x40001c00
    3928:	00003745 	.word	0x00003745

0000392c <system_gclk_gen_get_hz>:
 *
 * \return The frequency of the generic clock generator, in Hz.
 */
uint32_t system_gclk_gen_get_hz(
		const uint8_t generator)
{
    392c:	b580      	push	{r7, lr}
    392e:	b086      	sub	sp, #24
    3930:	af00      	add	r7, sp, #0
    3932:	0002      	movs	r2, r0
    3934:	1dfb      	adds	r3, r7, #7
    3936:	701a      	strb	r2, [r3, #0]
	while (system_gclk_is_syncing(generator)) {
    3938:	46c0      	nop			; (mov r8, r8)
    393a:	1dfb      	adds	r3, r7, #7
    393c:	781b      	ldrb	r3, [r3, #0]
    393e:	0018      	movs	r0, r3
    3940:	4b24      	ldr	r3, [pc, #144]	; (39d4 <system_gclk_gen_get_hz+0xa8>)
    3942:	4798      	blx	r3
    3944:	1e03      	subs	r3, r0, #0
    3946:	d1f8      	bne.n	393a <system_gclk_gen_get_hz+0xe>
		/* Wait for synchronization */
	};

	system_interrupt_enter_critical_section();
    3948:	4b23      	ldr	r3, [pc, #140]	; (39d8 <system_gclk_gen_get_hz+0xac>)
    394a:	4798      	blx	r3

	/* Get the frequency of the source connected to the GCLK generator */
	uint32_t gen_input_hz = system_clock_source_get_hz(
			(enum system_clock_source)GCLK->GENCTRL[generator].bit.SRC);
    394c:	4a23      	ldr	r2, [pc, #140]	; (39dc <system_gclk_gen_get_hz+0xb0>)
    394e:	1dfb      	adds	r3, r7, #7
    3950:	781b      	ldrb	r3, [r3, #0]
    3952:	3308      	adds	r3, #8
    3954:	009b      	lsls	r3, r3, #2
    3956:	589b      	ldr	r3, [r3, r2]
    3958:	075b      	lsls	r3, r3, #29
    395a:	0f5b      	lsrs	r3, r3, #29
    395c:	b2db      	uxtb	r3, r3
	uint32_t gen_input_hz = system_clock_source_get_hz(
    395e:	0018      	movs	r0, r3
    3960:	4b1f      	ldr	r3, [pc, #124]	; (39e0 <system_gclk_gen_get_hz+0xb4>)
    3962:	4798      	blx	r3
    3964:	0003      	movs	r3, r0
    3966:	617b      	str	r3, [r7, #20]

	uint8_t divsel = GCLK->GENCTRL[generator].bit.DIVSEL;
    3968:	4a1c      	ldr	r2, [pc, #112]	; (39dc <system_gclk_gen_get_hz+0xb0>)
    396a:	1dfb      	adds	r3, r7, #7
    396c:	781b      	ldrb	r3, [r3, #0]
    396e:	3308      	adds	r3, #8
    3970:	009b      	lsls	r3, r3, #2
    3972:	589b      	ldr	r3, [r3, r2]
    3974:	04db      	lsls	r3, r3, #19
    3976:	0fdb      	lsrs	r3, r3, #31
    3978:	b2da      	uxtb	r2, r3
    397a:	2313      	movs	r3, #19
    397c:	18fb      	adds	r3, r7, r3
    397e:	701a      	strb	r2, [r3, #0]
	uint32_t divider = GCLK->GENCTRL[generator].bit.DIV;
    3980:	4a16      	ldr	r2, [pc, #88]	; (39dc <system_gclk_gen_get_hz+0xb0>)
    3982:	1dfb      	adds	r3, r7, #7
    3984:	781b      	ldrb	r3, [r3, #0]
    3986:	3308      	adds	r3, #8
    3988:	009b      	lsls	r3, r3, #2
    398a:	589b      	ldr	r3, [r3, r2]
    398c:	0c1b      	lsrs	r3, r3, #16
    398e:	b29b      	uxth	r3, r3
    3990:	60fb      	str	r3, [r7, #12]

	system_interrupt_leave_critical_section();
    3992:	4b14      	ldr	r3, [pc, #80]	; (39e4 <system_gclk_gen_get_hz+0xb8>)
    3994:	4798      	blx	r3

	/* Check if the generator is using fractional or binary division */
	if (!divsel && divider > 1) {
    3996:	2313      	movs	r3, #19
    3998:	18fb      	adds	r3, r7, r3
    399a:	781b      	ldrb	r3, [r3, #0]
    399c:	2b00      	cmp	r3, #0
    399e:	d109      	bne.n	39b4 <system_gclk_gen_get_hz+0x88>
    39a0:	68fb      	ldr	r3, [r7, #12]
    39a2:	2b01      	cmp	r3, #1
    39a4:	d906      	bls.n	39b4 <system_gclk_gen_get_hz+0x88>
		gen_input_hz /= divider;
    39a6:	4b10      	ldr	r3, [pc, #64]	; (39e8 <system_gclk_gen_get_hz+0xbc>)
    39a8:	68f9      	ldr	r1, [r7, #12]
    39aa:	6978      	ldr	r0, [r7, #20]
    39ac:	4798      	blx	r3
    39ae:	0003      	movs	r3, r0
    39b0:	617b      	str	r3, [r7, #20]
    39b2:	e00a      	b.n	39ca <system_gclk_gen_get_hz+0x9e>
	} else if (divsel) {
    39b4:	2313      	movs	r3, #19
    39b6:	18fb      	adds	r3, r7, r3
    39b8:	781b      	ldrb	r3, [r3, #0]
    39ba:	2b00      	cmp	r3, #0
    39bc:	d005      	beq.n	39ca <system_gclk_gen_get_hz+0x9e>
		gen_input_hz >>= (divider+1);
    39be:	68fb      	ldr	r3, [r7, #12]
    39c0:	3301      	adds	r3, #1
    39c2:	697a      	ldr	r2, [r7, #20]
    39c4:	40da      	lsrs	r2, r3
    39c6:	0013      	movs	r3, r2
    39c8:	617b      	str	r3, [r7, #20]
	}

	return gen_input_hz;
    39ca:	697b      	ldr	r3, [r7, #20]
}
    39cc:	0018      	movs	r0, r3
    39ce:	46bd      	mov	sp, r7
    39d0:	b006      	add	sp, #24
    39d2:	bd80      	pop	{r7, pc}
    39d4:	00003759 	.word	0x00003759
    39d8:	00003731 	.word	0x00003731
    39dc:	40001c00 	.word	0x40001c00
    39e0:	0000353d 	.word	0x0000353d
    39e4:	00003745 	.word	0x00003745
    39e8:	000040fd 	.word	0x000040fd

000039ec <system_gclk_chan_set_config>:
 *
 */
void system_gclk_chan_set_config(
		const uint8_t channel,
		struct system_gclk_chan_config *const config)
{
    39ec:	b580      	push	{r7, lr}
    39ee:	b082      	sub	sp, #8
    39f0:	af00      	add	r7, sp, #0
    39f2:	0002      	movs	r2, r0
    39f4:	6039      	str	r1, [r7, #0]
    39f6:	1dfb      	adds	r3, r7, #7
    39f8:	701a      	strb	r2, [r3, #0]
	/* Sanity check arguments */
	Assert(config);

	/* Disable generic clock channel */
	system_gclk_chan_disable(channel);
    39fa:	1dfb      	adds	r3, r7, #7
    39fc:	781b      	ldrb	r3, [r3, #0]
    39fe:	0018      	movs	r0, r3
    3a00:	4b08      	ldr	r3, [pc, #32]	; (3a24 <system_gclk_chan_set_config+0x38>)
    3a02:	4798      	blx	r3

	/* Configure the peripheral channel */
	GCLK->PCHCTRL[channel].reg = GCLK_PCHCTRL_GEN(config->source_generator);
    3a04:	4908      	ldr	r1, [pc, #32]	; (3a28 <system_gclk_chan_set_config+0x3c>)
    3a06:	1dfb      	adds	r3, r7, #7
    3a08:	781b      	ldrb	r3, [r3, #0]
    3a0a:	683a      	ldr	r2, [r7, #0]
    3a0c:	7812      	ldrb	r2, [r2, #0]
    3a0e:	0010      	movs	r0, r2
    3a10:	2207      	movs	r2, #7
    3a12:	4002      	ands	r2, r0
    3a14:	3320      	adds	r3, #32
    3a16:	009b      	lsls	r3, r3, #2
    3a18:	505a      	str	r2, [r3, r1]


}
    3a1a:	46c0      	nop			; (mov r8, r8)
    3a1c:	46bd      	mov	sp, r7
    3a1e:	b002      	add	sp, #8
    3a20:	bd80      	pop	{r7, pc}
    3a22:	46c0      	nop			; (mov r8, r8)
    3a24:	00003a85 	.word	0x00003a85
    3a28:	40001c00 	.word	0x40001c00

00003a2c <system_gclk_chan_enable>:
 *
 * \param[in] channel   Generic Clock channel to enable
 */
void system_gclk_chan_enable(
		const uint8_t channel)
{
    3a2c:	b580      	push	{r7, lr}
    3a2e:	b082      	sub	sp, #8
    3a30:	af00      	add	r7, sp, #0
    3a32:	0002      	movs	r2, r0
    3a34:	1dfb      	adds	r3, r7, #7
    3a36:	701a      	strb	r2, [r3, #0]
	system_interrupt_enter_critical_section();
    3a38:	4b0f      	ldr	r3, [pc, #60]	; (3a78 <system_gclk_chan_enable+0x4c>)
    3a3a:	4798      	blx	r3

	/* Enable the peripheral channel */
	GCLK->PCHCTRL[channel].reg |= GCLK_PCHCTRL_CHEN;
    3a3c:	490f      	ldr	r1, [pc, #60]	; (3a7c <system_gclk_chan_enable+0x50>)
    3a3e:	1dfb      	adds	r3, r7, #7
    3a40:	781b      	ldrb	r3, [r3, #0]
    3a42:	480e      	ldr	r0, [pc, #56]	; (3a7c <system_gclk_chan_enable+0x50>)
    3a44:	1dfa      	adds	r2, r7, #7
    3a46:	7812      	ldrb	r2, [r2, #0]
    3a48:	3220      	adds	r2, #32
    3a4a:	0092      	lsls	r2, r2, #2
    3a4c:	5812      	ldr	r2, [r2, r0]
    3a4e:	2040      	movs	r0, #64	; 0x40
    3a50:	4302      	orrs	r2, r0
    3a52:	3320      	adds	r3, #32
    3a54:	009b      	lsls	r3, r3, #2
    3a56:	505a      	str	r2, [r3, r1]

	while (!(GCLK->PCHCTRL[channel].reg & GCLK_PCHCTRL_CHEN)) {
    3a58:	46c0      	nop			; (mov r8, r8)
    3a5a:	4a08      	ldr	r2, [pc, #32]	; (3a7c <system_gclk_chan_enable+0x50>)
    3a5c:	1dfb      	adds	r3, r7, #7
    3a5e:	781b      	ldrb	r3, [r3, #0]
    3a60:	3320      	adds	r3, #32
    3a62:	009b      	lsls	r3, r3, #2
    3a64:	589b      	ldr	r3, [r3, r2]
    3a66:	2240      	movs	r2, #64	; 0x40
    3a68:	4013      	ands	r3, r2
    3a6a:	d0f6      	beq.n	3a5a <system_gclk_chan_enable+0x2e>
		/* Wait for clock synchronization */
	}

	system_interrupt_leave_critical_section();
    3a6c:	4b04      	ldr	r3, [pc, #16]	; (3a80 <system_gclk_chan_enable+0x54>)
    3a6e:	4798      	blx	r3
}
    3a70:	46c0      	nop			; (mov r8, r8)
    3a72:	46bd      	mov	sp, r7
    3a74:	b002      	add	sp, #8
    3a76:	bd80      	pop	{r7, pc}
    3a78:	00003731 	.word	0x00003731
    3a7c:	40001c00 	.word	0x40001c00
    3a80:	00003745 	.word	0x00003745

00003a84 <system_gclk_chan_disable>:
 *
 * \param[in] channel  Generic Clock channel to disable
 */
void system_gclk_chan_disable(
		const uint8_t channel)
{
    3a84:	b580      	push	{r7, lr}
    3a86:	b082      	sub	sp, #8
    3a88:	af00      	add	r7, sp, #0
    3a8a:	0002      	movs	r2, r0
    3a8c:	1dfb      	adds	r3, r7, #7
    3a8e:	701a      	strb	r2, [r3, #0]
	system_interrupt_enter_critical_section();
    3a90:	4b0f      	ldr	r3, [pc, #60]	; (3ad0 <system_gclk_chan_disable+0x4c>)
    3a92:	4798      	blx	r3

	/* Sanity check WRTLOCK */
	Assert(!GCLK->PCHCTRL[channel].bit.WRTLOCK);

	/* Disable the peripheral channel */
	GCLK->PCHCTRL[channel].reg &= ~GCLK_PCHCTRL_CHEN;
    3a94:	490f      	ldr	r1, [pc, #60]	; (3ad4 <system_gclk_chan_disable+0x50>)
    3a96:	1dfb      	adds	r3, r7, #7
    3a98:	781b      	ldrb	r3, [r3, #0]
    3a9a:	480e      	ldr	r0, [pc, #56]	; (3ad4 <system_gclk_chan_disable+0x50>)
    3a9c:	1dfa      	adds	r2, r7, #7
    3a9e:	7812      	ldrb	r2, [r2, #0]
    3aa0:	3220      	adds	r2, #32
    3aa2:	0092      	lsls	r2, r2, #2
    3aa4:	5812      	ldr	r2, [r2, r0]
    3aa6:	2040      	movs	r0, #64	; 0x40
    3aa8:	4382      	bics	r2, r0
    3aaa:	3320      	adds	r3, #32
    3aac:	009b      	lsls	r3, r3, #2
    3aae:	505a      	str	r2, [r3, r1]

	while (GCLK->PCHCTRL[channel].reg & GCLK_PCHCTRL_CHEN) {
    3ab0:	46c0      	nop			; (mov r8, r8)
    3ab2:	4a08      	ldr	r2, [pc, #32]	; (3ad4 <system_gclk_chan_disable+0x50>)
    3ab4:	1dfb      	adds	r3, r7, #7
    3ab6:	781b      	ldrb	r3, [r3, #0]
    3ab8:	3320      	adds	r3, #32
    3aba:	009b      	lsls	r3, r3, #2
    3abc:	589b      	ldr	r3, [r3, r2]
    3abe:	2240      	movs	r2, #64	; 0x40
    3ac0:	4013      	ands	r3, r2
    3ac2:	d1f6      	bne.n	3ab2 <system_gclk_chan_disable+0x2e>
		/* Wait for clock synchronization */
	}

	system_interrupt_leave_critical_section();
    3ac4:	4b04      	ldr	r3, [pc, #16]	; (3ad8 <system_gclk_chan_disable+0x54>)
    3ac6:	4798      	blx	r3
}
    3ac8:	46c0      	nop			; (mov r8, r8)
    3aca:	46bd      	mov	sp, r7
    3acc:	b002      	add	sp, #8
    3ace:	bd80      	pop	{r7, pc}
    3ad0:	00003731 	.word	0x00003731
    3ad4:	40001c00 	.word	0x40001c00
    3ad8:	00003745 	.word	0x00003745

00003adc <system_gclk_chan_get_hz>:
 *
 * \return The frequency of the generic clock channel, in Hz.
 */
uint32_t system_gclk_chan_get_hz(
		const uint8_t channel)
{
    3adc:	b580      	push	{r7, lr}
    3ade:	b084      	sub	sp, #16
    3ae0:	af00      	add	r7, sp, #0
    3ae2:	0002      	movs	r2, r0
    3ae4:	1dfb      	adds	r3, r7, #7
    3ae6:	701a      	strb	r2, [r3, #0]
	uint8_t gen_id;

	system_interrupt_enter_critical_section();
    3ae8:	4b0d      	ldr	r3, [pc, #52]	; (3b20 <system_gclk_chan_get_hz+0x44>)
    3aea:	4798      	blx	r3
	/* Select the requested generic clock channel */
	gen_id = GCLK->PCHCTRL[channel].bit.GEN;
    3aec:	4a0d      	ldr	r2, [pc, #52]	; (3b24 <system_gclk_chan_get_hz+0x48>)
    3aee:	1dfb      	adds	r3, r7, #7
    3af0:	781b      	ldrb	r3, [r3, #0]
    3af2:	3320      	adds	r3, #32
    3af4:	009b      	lsls	r3, r3, #2
    3af6:	589b      	ldr	r3, [r3, r2]
    3af8:	075b      	lsls	r3, r3, #29
    3afa:	0f5b      	lsrs	r3, r3, #29
    3afc:	b2da      	uxtb	r2, r3
    3afe:	230f      	movs	r3, #15
    3b00:	18fb      	adds	r3, r7, r3
    3b02:	701a      	strb	r2, [r3, #0]
	system_interrupt_leave_critical_section();
    3b04:	4b08      	ldr	r3, [pc, #32]	; (3b28 <system_gclk_chan_get_hz+0x4c>)
    3b06:	4798      	blx	r3

	/* Return the clock speed of the associated GCLK generator */
	return system_gclk_gen_get_hz(gen_id);
    3b08:	230f      	movs	r3, #15
    3b0a:	18fb      	adds	r3, r7, r3
    3b0c:	781b      	ldrb	r3, [r3, #0]
    3b0e:	0018      	movs	r0, r3
    3b10:	4b06      	ldr	r3, [pc, #24]	; (3b2c <system_gclk_chan_get_hz+0x50>)
    3b12:	4798      	blx	r3
    3b14:	0003      	movs	r3, r0
}
    3b16:	0018      	movs	r0, r3
    3b18:	46bd      	mov	sp, r7
    3b1a:	b004      	add	sp, #16
    3b1c:	bd80      	pop	{r7, pc}
    3b1e:	46c0      	nop			; (mov r8, r8)
    3b20:	00003731 	.word	0x00003731
    3b24:	40001c00 	.word	0x40001c00
    3b28:	00003745 	.word	0x00003745
    3b2c:	0000392d 	.word	0x0000392d

00003b30 <system_pinmux_get_group_from_gpio_pin>:
{
    3b30:	b580      	push	{r7, lr}
    3b32:	b084      	sub	sp, #16
    3b34:	af00      	add	r7, sp, #0
    3b36:	0002      	movs	r2, r0
    3b38:	1dfb      	adds	r3, r7, #7
    3b3a:	701a      	strb	r2, [r3, #0]
	uint8_t port_index  = (gpio_pin / 128);
    3b3c:	230f      	movs	r3, #15
    3b3e:	18fb      	adds	r3, r7, r3
    3b40:	1dfa      	adds	r2, r7, #7
    3b42:	7812      	ldrb	r2, [r2, #0]
    3b44:	09d2      	lsrs	r2, r2, #7
    3b46:	701a      	strb	r2, [r3, #0]
	uint8_t group_index = (gpio_pin / 32);
    3b48:	230e      	movs	r3, #14
    3b4a:	18fb      	adds	r3, r7, r3
    3b4c:	1dfa      	adds	r2, r7, #7
    3b4e:	7812      	ldrb	r2, [r2, #0]
    3b50:	0952      	lsrs	r2, r2, #5
    3b52:	701a      	strb	r2, [r3, #0]
	Port *const ports[PORT_INST_NUM] = PORT_INSTS;
    3b54:	4b0d      	ldr	r3, [pc, #52]	; (3b8c <system_pinmux_get_group_from_gpio_pin+0x5c>)
    3b56:	60bb      	str	r3, [r7, #8]
	if (port_index < PORT_INST_NUM) {
    3b58:	230f      	movs	r3, #15
    3b5a:	18fb      	adds	r3, r7, r3
    3b5c:	781b      	ldrb	r3, [r3, #0]
    3b5e:	2b00      	cmp	r3, #0
    3b60:	d10f      	bne.n	3b82 <system_pinmux_get_group_from_gpio_pin+0x52>
		return &(ports[port_index]->Group[group_index]);
    3b62:	230f      	movs	r3, #15
    3b64:	18fb      	adds	r3, r7, r3
    3b66:	781b      	ldrb	r3, [r3, #0]
    3b68:	009b      	lsls	r3, r3, #2
    3b6a:	2210      	movs	r2, #16
    3b6c:	4694      	mov	ip, r2
    3b6e:	44bc      	add	ip, r7
    3b70:	4463      	add	r3, ip
    3b72:	3b08      	subs	r3, #8
    3b74:	681a      	ldr	r2, [r3, #0]
    3b76:	230e      	movs	r3, #14
    3b78:	18fb      	adds	r3, r7, r3
    3b7a:	781b      	ldrb	r3, [r3, #0]
    3b7c:	01db      	lsls	r3, r3, #7
    3b7e:	18d3      	adds	r3, r2, r3
    3b80:	e000      	b.n	3b84 <system_pinmux_get_group_from_gpio_pin+0x54>
		return NULL;
    3b82:	2300      	movs	r3, #0
}
    3b84:	0018      	movs	r0, r3
    3b86:	46bd      	mov	sp, r7
    3b88:	b004      	add	sp, #16
    3b8a:	bd80      	pop	{r7, pc}
    3b8c:	41006000 	.word	0x41006000

00003b90 <_system_pinmux_config>:
 */
static void _system_pinmux_config(
		PortGroup *const port,
		const uint32_t pin_mask,
		const struct system_pinmux_config *const config)
{
    3b90:	b580      	push	{r7, lr}
    3b92:	b088      	sub	sp, #32
    3b94:	af00      	add	r7, sp, #0
    3b96:	60f8      	str	r0, [r7, #12]
    3b98:	60b9      	str	r1, [r7, #8]
    3b9a:	607a      	str	r2, [r7, #4]
	Assert(port);
	Assert(config);

	/* Track the configuration bits into a temporary variable before writing */
	uint32_t pin_cfg = 0;
    3b9c:	2300      	movs	r3, #0
    3b9e:	61fb      	str	r3, [r7, #28]

	/* Enabled powersave mode, don't create configuration */
	if (!config->powersave) {
    3ba0:	687b      	ldr	r3, [r7, #4]
    3ba2:	78db      	ldrb	r3, [r3, #3]
    3ba4:	2201      	movs	r2, #1
    3ba6:	4053      	eors	r3, r2
    3ba8:	b2db      	uxtb	r3, r3
    3baa:	2b00      	cmp	r3, #0
    3bac:	d035      	beq.n	3c1a <_system_pinmux_config+0x8a>
		/* Enable the pin peripheral MUX flag if non-GPIO selected (pinmux will
		 * be written later) and store the new MUX mask */
		if (config->mux_position != SYSTEM_PINMUX_GPIO) {
    3bae:	687b      	ldr	r3, [r7, #4]
    3bb0:	781b      	ldrb	r3, [r3, #0]
    3bb2:	2b80      	cmp	r3, #128	; 0x80
    3bb4:	d00b      	beq.n	3bce <_system_pinmux_config+0x3e>
			pin_cfg |= PORT_WRCONFIG_PMUXEN;
    3bb6:	69fb      	ldr	r3, [r7, #28]
    3bb8:	2280      	movs	r2, #128	; 0x80
    3bba:	0252      	lsls	r2, r2, #9
    3bbc:	4313      	orrs	r3, r2
    3bbe:	61fb      	str	r3, [r7, #28]
			pin_cfg |= (config->mux_position << PORT_WRCONFIG_PMUX_Pos);
    3bc0:	687b      	ldr	r3, [r7, #4]
    3bc2:	781b      	ldrb	r3, [r3, #0]
    3bc4:	061b      	lsls	r3, r3, #24
    3bc6:	001a      	movs	r2, r3
    3bc8:	69fb      	ldr	r3, [r7, #28]
    3bca:	4313      	orrs	r3, r2
    3bcc:	61fb      	str	r3, [r7, #28]
		}

		/* Check if the user has requested that the input buffer be enabled */
		if ((config->direction == SYSTEM_PINMUX_PIN_DIR_INPUT) ||
    3bce:	687b      	ldr	r3, [r7, #4]
    3bd0:	785b      	ldrb	r3, [r3, #1]
    3bd2:	2b00      	cmp	r3, #0
    3bd4:	d003      	beq.n	3bde <_system_pinmux_config+0x4e>
				(config->direction == SYSTEM_PINMUX_PIN_DIR_OUTPUT_WITH_READBACK)) {
    3bd6:	687b      	ldr	r3, [r7, #4]
    3bd8:	785b      	ldrb	r3, [r3, #1]
		if ((config->direction == SYSTEM_PINMUX_PIN_DIR_INPUT) ||
    3bda:	2b02      	cmp	r3, #2
    3bdc:	d110      	bne.n	3c00 <_system_pinmux_config+0x70>
			/* Enable input buffer flag */
			pin_cfg |= PORT_WRCONFIG_INEN;
    3bde:	69fb      	ldr	r3, [r7, #28]
    3be0:	2280      	movs	r2, #128	; 0x80
    3be2:	0292      	lsls	r2, r2, #10
    3be4:	4313      	orrs	r3, r2
    3be6:	61fb      	str	r3, [r7, #28]

			/* Enable pull-up/pull-down control flag if requested */
			if (config->input_pull != SYSTEM_PINMUX_PIN_PULL_NONE) {
    3be8:	687b      	ldr	r3, [r7, #4]
    3bea:	789b      	ldrb	r3, [r3, #2]
    3bec:	2b00      	cmp	r3, #0
    3bee:	d004      	beq.n	3bfa <_system_pinmux_config+0x6a>
				pin_cfg |= PORT_WRCONFIG_PULLEN;
    3bf0:	69fb      	ldr	r3, [r7, #28]
    3bf2:	2280      	movs	r2, #128	; 0x80
    3bf4:	02d2      	lsls	r2, r2, #11
    3bf6:	4313      	orrs	r3, r2
    3bf8:	61fb      	str	r3, [r7, #28]
			}

			/* Clear the port DIR bits to disable the output buffer */
			port->DIRCLR.reg = pin_mask;
    3bfa:	68fb      	ldr	r3, [r7, #12]
    3bfc:	68ba      	ldr	r2, [r7, #8]
    3bfe:	605a      	str	r2, [r3, #4]
		}

		/* Check if the user has requested that the output buffer be enabled */
		if ((config->direction == SYSTEM_PINMUX_PIN_DIR_OUTPUT) ||
    3c00:	687b      	ldr	r3, [r7, #4]
    3c02:	785b      	ldrb	r3, [r3, #1]
    3c04:	2b01      	cmp	r3, #1
    3c06:	d003      	beq.n	3c10 <_system_pinmux_config+0x80>
				(config->direction == SYSTEM_PINMUX_PIN_DIR_OUTPUT_WITH_READBACK)) {
    3c08:	687b      	ldr	r3, [r7, #4]
    3c0a:	785b      	ldrb	r3, [r3, #1]
		if ((config->direction == SYSTEM_PINMUX_PIN_DIR_OUTPUT) ||
    3c0c:	2b02      	cmp	r3, #2
    3c0e:	d107      	bne.n	3c20 <_system_pinmux_config+0x90>
			/* Cannot use a pull-up if the output driver is enabled,
			 * if requested the input buffer can only sample the current
			 * output state */
			pin_cfg &= ~PORT_WRCONFIG_PULLEN;
    3c10:	69fb      	ldr	r3, [r7, #28]
    3c12:	4a22      	ldr	r2, [pc, #136]	; (3c9c <_system_pinmux_config+0x10c>)
    3c14:	4013      	ands	r3, r2
    3c16:	61fb      	str	r3, [r7, #28]
    3c18:	e002      	b.n	3c20 <_system_pinmux_config+0x90>
		}
	} else {
		port->DIRCLR.reg = pin_mask;
    3c1a:	68fb      	ldr	r3, [r7, #12]
    3c1c:	68ba      	ldr	r2, [r7, #8]
    3c1e:	605a      	str	r2, [r3, #4]
	}

	/* The Write Configuration register (WRCONFIG) requires the
	 * pins to to grouped into two 16-bit half-words - split them out here */
	uint32_t lower_pin_mask = (pin_mask & 0xFFFF);
    3c20:	68bb      	ldr	r3, [r7, #8]
    3c22:	041b      	lsls	r3, r3, #16
    3c24:	0c1b      	lsrs	r3, r3, #16
    3c26:	61bb      	str	r3, [r7, #24]
	uint32_t upper_pin_mask = (pin_mask >> 16);
    3c28:	68bb      	ldr	r3, [r7, #8]
    3c2a:	0c1b      	lsrs	r3, r3, #16
    3c2c:	617b      	str	r3, [r7, #20]

	/* Configure the lower 16-bits of the port to the desired configuration,
	 * including the pin peripheral multiplexer just in case it is enabled */
	port->WRCONFIG.reg
		= (lower_pin_mask << PORT_WRCONFIG_PINMASK_Pos) |
    3c2e:	69ba      	ldr	r2, [r7, #24]
    3c30:	69fb      	ldr	r3, [r7, #28]
    3c32:	4313      	orrs	r3, r2
			pin_cfg | PORT_WRCONFIG_WRPMUX | PORT_WRCONFIG_WRPINCFG;
    3c34:	22a0      	movs	r2, #160	; 0xa0
    3c36:	05d2      	lsls	r2, r2, #23
    3c38:	431a      	orrs	r2, r3
		= (lower_pin_mask << PORT_WRCONFIG_PINMASK_Pos) |
    3c3a:	68fb      	ldr	r3, [r7, #12]
    3c3c:	629a      	str	r2, [r3, #40]	; 0x28

	/* Configure the upper 16-bits of the port to the desired configuration,
	 * including the pin peripheral multiplexer just in case it is enabled */
	port->WRCONFIG.reg
		= (upper_pin_mask << PORT_WRCONFIG_PINMASK_Pos) |
    3c3e:	697a      	ldr	r2, [r7, #20]
    3c40:	69fb      	ldr	r3, [r7, #28]
    3c42:	4313      	orrs	r3, r2
			pin_cfg | PORT_WRCONFIG_WRPMUX | PORT_WRCONFIG_WRPINCFG |
    3c44:	22d0      	movs	r2, #208	; 0xd0
    3c46:	0612      	lsls	r2, r2, #24
    3c48:	431a      	orrs	r2, r3
		= (upper_pin_mask << PORT_WRCONFIG_PINMASK_Pos) |
    3c4a:	68fb      	ldr	r3, [r7, #12]
    3c4c:	629a      	str	r2, [r3, #40]	; 0x28
			PORT_WRCONFIG_HWSEL;

	if(!config->powersave) {
    3c4e:	687b      	ldr	r3, [r7, #4]
    3c50:	78db      	ldrb	r3, [r3, #3]
    3c52:	2201      	movs	r2, #1
    3c54:	4053      	eors	r3, r2
    3c56:	b2db      	uxtb	r3, r3
    3c58:	2b00      	cmp	r3, #0
    3c5a:	d01a      	beq.n	3c92 <_system_pinmux_config+0x102>
		/* Set the pull-up state once the port pins are configured if one was
		 * requested and it does not violate the valid set of port
		 * configurations */
		if (pin_cfg & PORT_WRCONFIG_PULLEN) {
    3c5c:	69fa      	ldr	r2, [r7, #28]
    3c5e:	2380      	movs	r3, #128	; 0x80
    3c60:	02db      	lsls	r3, r3, #11
    3c62:	4013      	ands	r3, r2
    3c64:	d00a      	beq.n	3c7c <_system_pinmux_config+0xec>
			/* Set the OUT register bits to enable the pull-up if requested,
			 * clear to enable pull-down */
			if (config->input_pull == SYSTEM_PINMUX_PIN_PULL_UP) {
    3c66:	687b      	ldr	r3, [r7, #4]
    3c68:	789b      	ldrb	r3, [r3, #2]
    3c6a:	2b01      	cmp	r3, #1
    3c6c:	d103      	bne.n	3c76 <_system_pinmux_config+0xe6>
				port->OUTSET.reg = pin_mask;
    3c6e:	68fb      	ldr	r3, [r7, #12]
    3c70:	68ba      	ldr	r2, [r7, #8]
    3c72:	619a      	str	r2, [r3, #24]
    3c74:	e002      	b.n	3c7c <_system_pinmux_config+0xec>
			} else {
				port->OUTCLR.reg = pin_mask;
    3c76:	68fb      	ldr	r3, [r7, #12]
    3c78:	68ba      	ldr	r2, [r7, #8]
    3c7a:	615a      	str	r2, [r3, #20]
			}
		}

		/* Check if the user has requested that the output buffer be enabled */
		if ((config->direction == SYSTEM_PINMUX_PIN_DIR_OUTPUT) ||
    3c7c:	687b      	ldr	r3, [r7, #4]
    3c7e:	785b      	ldrb	r3, [r3, #1]
    3c80:	2b01      	cmp	r3, #1
    3c82:	d003      	beq.n	3c8c <_system_pinmux_config+0xfc>
				(config->direction == SYSTEM_PINMUX_PIN_DIR_OUTPUT_WITH_READBACK)) {
    3c84:	687b      	ldr	r3, [r7, #4]
    3c86:	785b      	ldrb	r3, [r3, #1]
		if ((config->direction == SYSTEM_PINMUX_PIN_DIR_OUTPUT) ||
    3c88:	2b02      	cmp	r3, #2
    3c8a:	d102      	bne.n	3c92 <_system_pinmux_config+0x102>
			/* Set the port DIR bits to enable the output buffer */
			port->DIRSET.reg = pin_mask;
    3c8c:	68fb      	ldr	r3, [r7, #12]
    3c8e:	68ba      	ldr	r2, [r7, #8]
    3c90:	609a      	str	r2, [r3, #8]
		}
	}
}
    3c92:	46c0      	nop			; (mov r8, r8)
    3c94:	46bd      	mov	sp, r7
    3c96:	b008      	add	sp, #32
    3c98:	bd80      	pop	{r7, pc}
    3c9a:	46c0      	nop			; (mov r8, r8)
    3c9c:	fffbffff 	.word	0xfffbffff

00003ca0 <system_pinmux_pin_set_config>:
 * \param[in] config    Configuration settings for the pin
 */
void system_pinmux_pin_set_config(
		const uint8_t gpio_pin,
		const struct system_pinmux_config *const config)
{
    3ca0:	b580      	push	{r7, lr}
    3ca2:	b084      	sub	sp, #16
    3ca4:	af00      	add	r7, sp, #0
    3ca6:	0002      	movs	r2, r0
    3ca8:	6039      	str	r1, [r7, #0]
    3caa:	1dfb      	adds	r3, r7, #7
    3cac:	701a      	strb	r2, [r3, #0]
	PortGroup *const port = system_pinmux_get_group_from_gpio_pin(gpio_pin);
    3cae:	1dfb      	adds	r3, r7, #7
    3cb0:	781b      	ldrb	r3, [r3, #0]
    3cb2:	0018      	movs	r0, r3
    3cb4:	4b0a      	ldr	r3, [pc, #40]	; (3ce0 <system_pinmux_pin_set_config+0x40>)
    3cb6:	4798      	blx	r3
    3cb8:	0003      	movs	r3, r0
    3cba:	60fb      	str	r3, [r7, #12]
	uint32_t pin_mask = (1UL << (gpio_pin % 32));
    3cbc:	1dfb      	adds	r3, r7, #7
    3cbe:	781b      	ldrb	r3, [r3, #0]
    3cc0:	221f      	movs	r2, #31
    3cc2:	4013      	ands	r3, r2
    3cc4:	2201      	movs	r2, #1
    3cc6:	409a      	lsls	r2, r3
    3cc8:	0013      	movs	r3, r2
    3cca:	60bb      	str	r3, [r7, #8]

	_system_pinmux_config(port, pin_mask, config);
    3ccc:	683a      	ldr	r2, [r7, #0]
    3cce:	68b9      	ldr	r1, [r7, #8]
    3cd0:	68fb      	ldr	r3, [r7, #12]
    3cd2:	0018      	movs	r0, r3
    3cd4:	4b03      	ldr	r3, [pc, #12]	; (3ce4 <system_pinmux_pin_set_config+0x44>)
    3cd6:	4798      	blx	r3
}
    3cd8:	46c0      	nop			; (mov r8, r8)
    3cda:	46bd      	mov	sp, r7
    3cdc:	b004      	add	sp, #16
    3cde:	bd80      	pop	{r7, pc}
    3ce0:	00003b31 	.word	0x00003b31
    3ce4:	00003b91 	.word	0x00003b91

00003ce8 <_system_dummy_init>:
 * Dummy initialization function, used as a weak alias target for the various
 * init functions called by \ref system_init().
 */
void _system_dummy_init(void);
void _system_dummy_init(void)
{
    3ce8:	b580      	push	{r7, lr}
    3cea:	af00      	add	r7, sp, #0
	return;
    3cec:	46c0      	nop			; (mov r8, r8)
}
    3cee:	46bd      	mov	sp, r7
    3cf0:	bd80      	pop	{r7, pc}
	...

00003cf4 <system_init>:
 *  - Board hardware initialization (via the Board module)
 *  - Event system driver initialization (via the EVSYS module)
 *  - External Interrupt driver initialization (via the EXTINT module)
 */
void system_init(void)
{
    3cf4:	b580      	push	{r7, lr}
    3cf6:	af00      	add	r7, sp, #0
	/* Configure GCLK and clock sources according to conf_clocks.h */
	system_clock_init();
    3cf8:	4b06      	ldr	r3, [pc, #24]	; (3d14 <system_init+0x20>)
    3cfa:	4798      	blx	r3

	/* Initialize board hardware */
	system_board_init();
    3cfc:	4b06      	ldr	r3, [pc, #24]	; (3d18 <system_init+0x24>)
    3cfe:	4798      	blx	r3

	/* Initialize EVSYS hardware */
	_system_events_init();
    3d00:	4b06      	ldr	r3, [pc, #24]	; (3d1c <system_init+0x28>)
    3d02:	4798      	blx	r3

	/* Initialize External hardware */
	_system_extint_init();
    3d04:	4b06      	ldr	r3, [pc, #24]	; (3d20 <system_init+0x2c>)
    3d06:	4798      	blx	r3
	
	/* Initialize DIVAS hardware */
	_system_divas_init();
    3d08:	4b06      	ldr	r3, [pc, #24]	; (3d24 <system_init+0x30>)
    3d0a:	4798      	blx	r3
}
    3d0c:	46c0      	nop			; (mov r8, r8)
    3d0e:	46bd      	mov	sp, r7
    3d10:	bd80      	pop	{r7, pc}
    3d12:	46c0      	nop			; (mov r8, r8)
    3d14:	000035f9 	.word	0x000035f9
    3d18:	0000330d 	.word	0x0000330d
    3d1c:	00003ce9 	.word	0x00003ce9
    3d20:	00003ce9 	.word	0x00003ce9
    3d24:	00003ce9 	.word	0x00003ce9

00003d28 <Reset_Handler>:
/**
 * \brief This is the code that gets called on processor reset.
 * To initialize the device, and call the main() routine.
 */
void Reset_Handler(void)
{
    3d28:	b580      	push	{r7, lr}
    3d2a:	b082      	sub	sp, #8
    3d2c:	af00      	add	r7, sp, #0
        uint32_t *pSrc, *pDest;

        /* Initialize the relocate segment */
        pSrc = &_etext;
    3d2e:	4b16      	ldr	r3, [pc, #88]	; (3d88 <Reset_Handler+0x60>)
    3d30:	607b      	str	r3, [r7, #4]
        pDest = &_srelocate;
    3d32:	4b16      	ldr	r3, [pc, #88]	; (3d8c <Reset_Handler+0x64>)
    3d34:	603b      	str	r3, [r7, #0]

        if (pSrc != pDest) {
    3d36:	687a      	ldr	r2, [r7, #4]
    3d38:	683b      	ldr	r3, [r7, #0]
    3d3a:	429a      	cmp	r2, r3
    3d3c:	d00c      	beq.n	3d58 <Reset_Handler+0x30>
                for (; pDest < &_erelocate;) {
    3d3e:	e007      	b.n	3d50 <Reset_Handler+0x28>
                        *pDest++ = *pSrc++;
    3d40:	683b      	ldr	r3, [r7, #0]
    3d42:	1d1a      	adds	r2, r3, #4
    3d44:	603a      	str	r2, [r7, #0]
    3d46:	687a      	ldr	r2, [r7, #4]
    3d48:	1d11      	adds	r1, r2, #4
    3d4a:	6079      	str	r1, [r7, #4]
    3d4c:	6812      	ldr	r2, [r2, #0]
    3d4e:	601a      	str	r2, [r3, #0]
                for (; pDest < &_erelocate;) {
    3d50:	683a      	ldr	r2, [r7, #0]
    3d52:	4b0f      	ldr	r3, [pc, #60]	; (3d90 <Reset_Handler+0x68>)
    3d54:	429a      	cmp	r2, r3
    3d56:	d3f3      	bcc.n	3d40 <Reset_Handler+0x18>
                }
        }

        /* Clear the zero segment */
        for (pDest = &_szero; pDest < &_ezero;) {
    3d58:	4b0e      	ldr	r3, [pc, #56]	; (3d94 <Reset_Handler+0x6c>)
    3d5a:	603b      	str	r3, [r7, #0]
    3d5c:	e004      	b.n	3d68 <Reset_Handler+0x40>
                *pDest++ = 0;
    3d5e:	683b      	ldr	r3, [r7, #0]
    3d60:	1d1a      	adds	r2, r3, #4
    3d62:	603a      	str	r2, [r7, #0]
    3d64:	2200      	movs	r2, #0
    3d66:	601a      	str	r2, [r3, #0]
        for (pDest = &_szero; pDest < &_ezero;) {
    3d68:	683a      	ldr	r2, [r7, #0]
    3d6a:	4b0b      	ldr	r3, [pc, #44]	; (3d98 <Reset_Handler+0x70>)
    3d6c:	429a      	cmp	r2, r3
    3d6e:	d3f6      	bcc.n	3d5e <Reset_Handler+0x36>
        }

        /* Set the vector table base address */
        pSrc = (uint32_t *) & _sfixed;
    3d70:	4b0a      	ldr	r3, [pc, #40]	; (3d9c <Reset_Handler+0x74>)
    3d72:	607b      	str	r3, [r7, #4]
        SCB->VTOR = ((uint32_t) pSrc & SCB_VTOR_TBLOFF_Msk);
    3d74:	4b0a      	ldr	r3, [pc, #40]	; (3da0 <Reset_Handler+0x78>)
    3d76:	687a      	ldr	r2, [r7, #4]
    3d78:	21ff      	movs	r1, #255	; 0xff
    3d7a:	438a      	bics	r2, r1
    3d7c:	609a      	str	r2, [r3, #8]

        /* Initialize the C library */
        __libc_init_array();
    3d7e:	4b09      	ldr	r3, [pc, #36]	; (3da4 <Reset_Handler+0x7c>)
    3d80:	4798      	blx	r3

        /* Branch to main function */
        main();
    3d82:	4b09      	ldr	r3, [pc, #36]	; (3da8 <Reset_Handler+0x80>)
    3d84:	4798      	blx	r3

        /* Infinite loop */
        while (1);
    3d86:	e7fe      	b.n	3d86 <Reset_Handler+0x5e>
    3d88:	00004ea8 	.word	0x00004ea8
    3d8c:	20000000 	.word	0x20000000
    3d90:	2000006c 	.word	0x2000006c
    3d94:	2000006c 	.word	0x2000006c
    3d98:	200039dc 	.word	0x200039dc
    3d9c:	00000000 	.word	0x00000000
    3da0:	e000ed00 	.word	0xe000ed00
    3da4:	00004269 	.word	0x00004269
    3da8:	000040a9 	.word	0x000040a9

00003dac <Dummy_Handler>:

/**
 * \brief Default interrupt handler for unused IRQs.
 */
void Dummy_Handler(void)
{
    3dac:	b580      	push	{r7, lr}
    3dae:	af00      	add	r7, sp, #0
        while (1) {
    3db0:	e7fe      	b.n	3db0 <Dummy_Handler+0x4>
	...

00003db4 <_sbrk>:
extern void _exit(int status);
extern void _kill(int pid, int sig);
extern int _getpid(void);

extern caddr_t _sbrk(int incr)
{
    3db4:	b580      	push	{r7, lr}
    3db6:	b084      	sub	sp, #16
    3db8:	af00      	add	r7, sp, #0
    3dba:	6078      	str	r0, [r7, #4]
	static unsigned char *heap = NULL;
	unsigned char *prev_heap;

	if (heap == NULL) {
    3dbc:	4b0a      	ldr	r3, [pc, #40]	; (3de8 <_sbrk+0x34>)
    3dbe:	681b      	ldr	r3, [r3, #0]
    3dc0:	2b00      	cmp	r3, #0
    3dc2:	d102      	bne.n	3dca <_sbrk+0x16>
		heap = (unsigned char *)&_end;
    3dc4:	4b08      	ldr	r3, [pc, #32]	; (3de8 <_sbrk+0x34>)
    3dc6:	4a09      	ldr	r2, [pc, #36]	; (3dec <_sbrk+0x38>)
    3dc8:	601a      	str	r2, [r3, #0]
	}
	prev_heap = heap;
    3dca:	4b07      	ldr	r3, [pc, #28]	; (3de8 <_sbrk+0x34>)
    3dcc:	681b      	ldr	r3, [r3, #0]
    3dce:	60fb      	str	r3, [r7, #12]

	heap += incr;
    3dd0:	4b05      	ldr	r3, [pc, #20]	; (3de8 <_sbrk+0x34>)
    3dd2:	681a      	ldr	r2, [r3, #0]
    3dd4:	687b      	ldr	r3, [r7, #4]
    3dd6:	18d2      	adds	r2, r2, r3
    3dd8:	4b03      	ldr	r3, [pc, #12]	; (3de8 <_sbrk+0x34>)
    3dda:	601a      	str	r2, [r3, #0]

	return (caddr_t) prev_heap;
    3ddc:	68fb      	ldr	r3, [r7, #12]
}
    3dde:	0018      	movs	r0, r3
    3de0:	46bd      	mov	sp, r7
    3de2:	b004      	add	sp, #16
    3de4:	bd80      	pop	{r7, pc}
    3de6:	46c0      	nop			; (mov r8, r8)
    3de8:	20003968 	.word	0x20003968
    3dec:	200059e0 	.word	0x200059e0

00003df0 <_close>:
{
	return -1;
}

extern int _close(int file)
{
    3df0:	b580      	push	{r7, lr}
    3df2:	b082      	sub	sp, #8
    3df4:	af00      	add	r7, sp, #0
    3df6:	6078      	str	r0, [r7, #4]
	return -1;
    3df8:	2301      	movs	r3, #1
    3dfa:	425b      	negs	r3, r3
}
    3dfc:	0018      	movs	r0, r3
    3dfe:	46bd      	mov	sp, r7
    3e00:	b002      	add	sp, #8
    3e02:	bd80      	pop	{r7, pc}

00003e04 <_fstat>:

extern int _fstat(int file, struct stat *st)
{
    3e04:	b580      	push	{r7, lr}
    3e06:	b082      	sub	sp, #8
    3e08:	af00      	add	r7, sp, #0
    3e0a:	6078      	str	r0, [r7, #4]
    3e0c:	6039      	str	r1, [r7, #0]
	st->st_mode = S_IFCHR;
    3e0e:	683b      	ldr	r3, [r7, #0]
    3e10:	2280      	movs	r2, #128	; 0x80
    3e12:	0192      	lsls	r2, r2, #6
    3e14:	605a      	str	r2, [r3, #4]

	return 0;
    3e16:	2300      	movs	r3, #0
}
    3e18:	0018      	movs	r0, r3
    3e1a:	46bd      	mov	sp, r7
    3e1c:	b002      	add	sp, #8
    3e1e:	bd80      	pop	{r7, pc}

00003e20 <_isatty>:

extern int _isatty(int file)
{
    3e20:	b580      	push	{r7, lr}
    3e22:	b082      	sub	sp, #8
    3e24:	af00      	add	r7, sp, #0
    3e26:	6078      	str	r0, [r7, #4]
	return 1;
    3e28:	2301      	movs	r3, #1
}
    3e2a:	0018      	movs	r0, r3
    3e2c:	46bd      	mov	sp, r7
    3e2e:	b002      	add	sp, #8
    3e30:	bd80      	pop	{r7, pc}

00003e32 <_lseek>:

extern int _lseek(int file, int ptr, int dir)
{
    3e32:	b580      	push	{r7, lr}
    3e34:	b084      	sub	sp, #16
    3e36:	af00      	add	r7, sp, #0
    3e38:	60f8      	str	r0, [r7, #12]
    3e3a:	60b9      	str	r1, [r7, #8]
    3e3c:	607a      	str	r2, [r7, #4]
	return 0;
    3e3e:	2300      	movs	r3, #0
}
    3e40:	0018      	movs	r0, r3
    3e42:	46bd      	mov	sp, r7
    3e44:	b004      	add	sp, #16
    3e46:	bd80      	pop	{r7, pc}

00003e48 <NVIC_SetPriority>:

    \param [in]      IRQn  Interrupt number.
    \param [in]  priority  Priority to set.
 */
__STATIC_INLINE void NVIC_SetPriority(IRQn_Type IRQn, uint32_t priority)
{
    3e48:	b5b0      	push	{r4, r5, r7, lr}
    3e4a:	b082      	sub	sp, #8
    3e4c:	af00      	add	r7, sp, #0
    3e4e:	0002      	movs	r2, r0
    3e50:	6039      	str	r1, [r7, #0]
    3e52:	1dfb      	adds	r3, r7, #7
    3e54:	701a      	strb	r2, [r3, #0]
  if(IRQn < 0) {
    3e56:	1dfb      	adds	r3, r7, #7
    3e58:	781b      	ldrb	r3, [r3, #0]
    3e5a:	2b7f      	cmp	r3, #127	; 0x7f
    3e5c:	d932      	bls.n	3ec4 <NVIC_SetPriority+0x7c>
    SCB->SHP[_SHP_IDX(IRQn)] = (SCB->SHP[_SHP_IDX(IRQn)] & ~(0xFF << _BIT_SHIFT(IRQn))) |
    3e5e:	4c2f      	ldr	r4, [pc, #188]	; (3f1c <NVIC_SetPriority+0xd4>)
    3e60:	1dfb      	adds	r3, r7, #7
    3e62:	781b      	ldrb	r3, [r3, #0]
    3e64:	001a      	movs	r2, r3
    3e66:	230f      	movs	r3, #15
    3e68:	4013      	ands	r3, r2
    3e6a:	3b08      	subs	r3, #8
    3e6c:	0899      	lsrs	r1, r3, #2
    3e6e:	4a2b      	ldr	r2, [pc, #172]	; (3f1c <NVIC_SetPriority+0xd4>)
    3e70:	1dfb      	adds	r3, r7, #7
    3e72:	781b      	ldrb	r3, [r3, #0]
    3e74:	0018      	movs	r0, r3
    3e76:	230f      	movs	r3, #15
    3e78:	4003      	ands	r3, r0
    3e7a:	3b08      	subs	r3, #8
    3e7c:	089b      	lsrs	r3, r3, #2
    3e7e:	3306      	adds	r3, #6
    3e80:	009b      	lsls	r3, r3, #2
    3e82:	18d3      	adds	r3, r2, r3
    3e84:	3304      	adds	r3, #4
    3e86:	681b      	ldr	r3, [r3, #0]
    3e88:	1dfa      	adds	r2, r7, #7
    3e8a:	7812      	ldrb	r2, [r2, #0]
    3e8c:	0010      	movs	r0, r2
    3e8e:	2203      	movs	r2, #3
    3e90:	4002      	ands	r2, r0
    3e92:	00d2      	lsls	r2, r2, #3
    3e94:	20ff      	movs	r0, #255	; 0xff
    3e96:	4090      	lsls	r0, r2
    3e98:	0002      	movs	r2, r0
    3e9a:	43d2      	mvns	r2, r2
    3e9c:	401a      	ands	r2, r3
        (((priority << (8 - __NVIC_PRIO_BITS)) & 0xFF) << _BIT_SHIFT(IRQn)); }
    3e9e:	683b      	ldr	r3, [r7, #0]
    3ea0:	019b      	lsls	r3, r3, #6
    3ea2:	20ff      	movs	r0, #255	; 0xff
    3ea4:	4018      	ands	r0, r3
    3ea6:	1dfb      	adds	r3, r7, #7
    3ea8:	781b      	ldrb	r3, [r3, #0]
    3eaa:	001d      	movs	r5, r3
    3eac:	2303      	movs	r3, #3
    3eae:	402b      	ands	r3, r5
    3eb0:	00db      	lsls	r3, r3, #3
    3eb2:	4098      	lsls	r0, r3
    3eb4:	0003      	movs	r3, r0
    SCB->SHP[_SHP_IDX(IRQn)] = (SCB->SHP[_SHP_IDX(IRQn)] & ~(0xFF << _BIT_SHIFT(IRQn))) |
    3eb6:	431a      	orrs	r2, r3
    3eb8:	1d8b      	adds	r3, r1, #6
    3eba:	009b      	lsls	r3, r3, #2
    3ebc:	18e3      	adds	r3, r4, r3
    3ebe:	3304      	adds	r3, #4
    3ec0:	601a      	str	r2, [r3, #0]
  else {
    NVIC->IP[_IP_IDX(IRQn)] = (NVIC->IP[_IP_IDX(IRQn)] & ~(0xFF << _BIT_SHIFT(IRQn))) |
        (((priority << (8 - __NVIC_PRIO_BITS)) & 0xFF) << _BIT_SHIFT(IRQn)); }
}
    3ec2:	e027      	b.n	3f14 <NVIC_SetPriority+0xcc>
    NVIC->IP[_IP_IDX(IRQn)] = (NVIC->IP[_IP_IDX(IRQn)] & ~(0xFF << _BIT_SHIFT(IRQn))) |
    3ec4:	4c16      	ldr	r4, [pc, #88]	; (3f20 <NVIC_SetPriority+0xd8>)
    3ec6:	1dfb      	adds	r3, r7, #7
    3ec8:	781b      	ldrb	r3, [r3, #0]
    3eca:	b25b      	sxtb	r3, r3
    3ecc:	089b      	lsrs	r3, r3, #2
    3ece:	4914      	ldr	r1, [pc, #80]	; (3f20 <NVIC_SetPriority+0xd8>)
    3ed0:	1dfa      	adds	r2, r7, #7
    3ed2:	7812      	ldrb	r2, [r2, #0]
    3ed4:	b252      	sxtb	r2, r2
    3ed6:	0892      	lsrs	r2, r2, #2
    3ed8:	32c0      	adds	r2, #192	; 0xc0
    3eda:	0092      	lsls	r2, r2, #2
    3edc:	5852      	ldr	r2, [r2, r1]
    3ede:	1df9      	adds	r1, r7, #7
    3ee0:	7809      	ldrb	r1, [r1, #0]
    3ee2:	0008      	movs	r0, r1
    3ee4:	2103      	movs	r1, #3
    3ee6:	4001      	ands	r1, r0
    3ee8:	00c9      	lsls	r1, r1, #3
    3eea:	20ff      	movs	r0, #255	; 0xff
    3eec:	4088      	lsls	r0, r1
    3eee:	0001      	movs	r1, r0
    3ef0:	43c9      	mvns	r1, r1
    3ef2:	4011      	ands	r1, r2
        (((priority << (8 - __NVIC_PRIO_BITS)) & 0xFF) << _BIT_SHIFT(IRQn)); }
    3ef4:	683a      	ldr	r2, [r7, #0]
    3ef6:	0192      	lsls	r2, r2, #6
    3ef8:	20ff      	movs	r0, #255	; 0xff
    3efa:	4010      	ands	r0, r2
    3efc:	1dfa      	adds	r2, r7, #7
    3efe:	7812      	ldrb	r2, [r2, #0]
    3f00:	0015      	movs	r5, r2
    3f02:	2203      	movs	r2, #3
    3f04:	402a      	ands	r2, r5
    3f06:	00d2      	lsls	r2, r2, #3
    3f08:	4090      	lsls	r0, r2
    3f0a:	0002      	movs	r2, r0
    NVIC->IP[_IP_IDX(IRQn)] = (NVIC->IP[_IP_IDX(IRQn)] & ~(0xFF << _BIT_SHIFT(IRQn))) |
    3f0c:	430a      	orrs	r2, r1
    3f0e:	33c0      	adds	r3, #192	; 0xc0
    3f10:	009b      	lsls	r3, r3, #2
    3f12:	511a      	str	r2, [r3, r4]
}
    3f14:	46c0      	nop			; (mov r8, r8)
    3f16:	46bd      	mov	sp, r7
    3f18:	b002      	add	sp, #8
    3f1a:	bdb0      	pop	{r4, r5, r7, pc}
    3f1c:	e000ed00 	.word	0xe000ed00
    3f20:	e000e100 	.word	0xe000e100

00003f24 <SysTick_Config>:
    function <b>SysTick_Config</b> is not included. In this case, the file <b><i>device</i>.h</b>
    must contain a vendor-specific implementation of this function.

 */
__STATIC_INLINE uint32_t SysTick_Config(uint32_t ticks)
{
    3f24:	b580      	push	{r7, lr}
    3f26:	b082      	sub	sp, #8
    3f28:	af00      	add	r7, sp, #0
    3f2a:	6078      	str	r0, [r7, #4]
  if ((ticks - 1) > SysTick_LOAD_RELOAD_Msk)  return (1);      /* Reload value impossible */
    3f2c:	687b      	ldr	r3, [r7, #4]
    3f2e:	3b01      	subs	r3, #1
    3f30:	4a0c      	ldr	r2, [pc, #48]	; (3f64 <SysTick_Config+0x40>)
    3f32:	4293      	cmp	r3, r2
    3f34:	d901      	bls.n	3f3a <SysTick_Config+0x16>
    3f36:	2301      	movs	r3, #1
    3f38:	e010      	b.n	3f5c <SysTick_Config+0x38>

  SysTick->LOAD  = ticks - 1;                                  /* set reload register */
    3f3a:	4b0b      	ldr	r3, [pc, #44]	; (3f68 <SysTick_Config+0x44>)
    3f3c:	687a      	ldr	r2, [r7, #4]
    3f3e:	3a01      	subs	r2, #1
    3f40:	605a      	str	r2, [r3, #4]
  NVIC_SetPriority (SysTick_IRQn, (1<<__NVIC_PRIO_BITS) - 1);  /* set Priority for Systick Interrupt */
    3f42:	2301      	movs	r3, #1
    3f44:	425b      	negs	r3, r3
    3f46:	2103      	movs	r1, #3
    3f48:	0018      	movs	r0, r3
    3f4a:	4b08      	ldr	r3, [pc, #32]	; (3f6c <SysTick_Config+0x48>)
    3f4c:	4798      	blx	r3
  SysTick->VAL   = 0;                                          /* Load the SysTick Counter Value */
    3f4e:	4b06      	ldr	r3, [pc, #24]	; (3f68 <SysTick_Config+0x44>)
    3f50:	2200      	movs	r2, #0
    3f52:	609a      	str	r2, [r3, #8]
  SysTick->CTRL  = SysTick_CTRL_CLKSOURCE_Msk |
    3f54:	4b04      	ldr	r3, [pc, #16]	; (3f68 <SysTick_Config+0x44>)
    3f56:	2207      	movs	r2, #7
    3f58:	601a      	str	r2, [r3, #0]
                   SysTick_CTRL_TICKINT_Msk   |
                   SysTick_CTRL_ENABLE_Msk;                    /* Enable SysTick IRQ and SysTick Timer */
  return (0);                                                  /* Function successful */
    3f5a:	2300      	movs	r3, #0
}
    3f5c:	0018      	movs	r0, r3
    3f5e:	46bd      	mov	sp, r7
    3f60:	b002      	add	sp, #8
    3f62:	bd80      	pop	{r7, pc}
    3f64:	00ffffff 	.word	0x00ffffff
    3f68:	e000e010 	.word	0xe000e010
    3f6c:	00003e49 	.word	0x00003e49

00003f70 <system_pinmux_get_group_from_gpio_pin>:
{
    3f70:	b580      	push	{r7, lr}
    3f72:	b084      	sub	sp, #16
    3f74:	af00      	add	r7, sp, #0
    3f76:	0002      	movs	r2, r0
    3f78:	1dfb      	adds	r3, r7, #7
    3f7a:	701a      	strb	r2, [r3, #0]
	uint8_t port_index  = (gpio_pin / 128);
    3f7c:	230f      	movs	r3, #15
    3f7e:	18fb      	adds	r3, r7, r3
    3f80:	1dfa      	adds	r2, r7, #7
    3f82:	7812      	ldrb	r2, [r2, #0]
    3f84:	09d2      	lsrs	r2, r2, #7
    3f86:	701a      	strb	r2, [r3, #0]
	uint8_t group_index = (gpio_pin / 32);
    3f88:	230e      	movs	r3, #14
    3f8a:	18fb      	adds	r3, r7, r3
    3f8c:	1dfa      	adds	r2, r7, #7
    3f8e:	7812      	ldrb	r2, [r2, #0]
    3f90:	0952      	lsrs	r2, r2, #5
    3f92:	701a      	strb	r2, [r3, #0]
	Port *const ports[PORT_INST_NUM] = PORT_INSTS;
    3f94:	4b0d      	ldr	r3, [pc, #52]	; (3fcc <system_pinmux_get_group_from_gpio_pin+0x5c>)
    3f96:	60bb      	str	r3, [r7, #8]
	if (port_index < PORT_INST_NUM) {
    3f98:	230f      	movs	r3, #15
    3f9a:	18fb      	adds	r3, r7, r3
    3f9c:	781b      	ldrb	r3, [r3, #0]
    3f9e:	2b00      	cmp	r3, #0
    3fa0:	d10f      	bne.n	3fc2 <system_pinmux_get_group_from_gpio_pin+0x52>
		return &(ports[port_index]->Group[group_index]);
    3fa2:	230f      	movs	r3, #15
    3fa4:	18fb      	adds	r3, r7, r3
    3fa6:	781b      	ldrb	r3, [r3, #0]
    3fa8:	009b      	lsls	r3, r3, #2
    3faa:	2210      	movs	r2, #16
    3fac:	4694      	mov	ip, r2
    3fae:	44bc      	add	ip, r7
    3fb0:	4463      	add	r3, ip
    3fb2:	3b08      	subs	r3, #8
    3fb4:	681a      	ldr	r2, [r3, #0]
    3fb6:	230e      	movs	r3, #14
    3fb8:	18fb      	adds	r3, r7, r3
    3fba:	781b      	ldrb	r3, [r3, #0]
    3fbc:	01db      	lsls	r3, r3, #7
    3fbe:	18d3      	adds	r3, r2, r3
    3fc0:	e000      	b.n	3fc4 <system_pinmux_get_group_from_gpio_pin+0x54>
		return NULL;
    3fc2:	2300      	movs	r3, #0
}
    3fc4:	0018      	movs	r0, r3
    3fc6:	46bd      	mov	sp, r7
    3fc8:	b004      	add	sp, #16
    3fca:	bd80      	pop	{r7, pc}
    3fcc:	41006000 	.word	0x41006000

00003fd0 <port_get_group_from_gpio_pin>:
{
    3fd0:	b580      	push	{r7, lr}
    3fd2:	b082      	sub	sp, #8
    3fd4:	af00      	add	r7, sp, #0
    3fd6:	0002      	movs	r2, r0
    3fd8:	1dfb      	adds	r3, r7, #7
    3fda:	701a      	strb	r2, [r3, #0]
	return system_pinmux_get_group_from_gpio_pin(gpio_pin);
    3fdc:	1dfb      	adds	r3, r7, #7
    3fde:	781b      	ldrb	r3, [r3, #0]
    3fe0:	0018      	movs	r0, r3
    3fe2:	4b03      	ldr	r3, [pc, #12]	; (3ff0 <port_get_group_from_gpio_pin+0x20>)
    3fe4:	4798      	blx	r3
    3fe6:	0003      	movs	r3, r0
}
    3fe8:	0018      	movs	r0, r3
    3fea:	46bd      	mov	sp, r7
    3fec:	b002      	add	sp, #8
    3fee:	bd80      	pop	{r7, pc}
    3ff0:	00003f71 	.word	0x00003f71

00003ff4 <port_get_config_defaults>:
{
    3ff4:	b580      	push	{r7, lr}
    3ff6:	b082      	sub	sp, #8
    3ff8:	af00      	add	r7, sp, #0
    3ffa:	6078      	str	r0, [r7, #4]
	config->direction  = PORT_PIN_DIR_INPUT;
    3ffc:	687b      	ldr	r3, [r7, #4]
    3ffe:	2200      	movs	r2, #0
    4000:	701a      	strb	r2, [r3, #0]
	config->input_pull = PORT_PIN_PULL_UP;
    4002:	687b      	ldr	r3, [r7, #4]
    4004:	2201      	movs	r2, #1
    4006:	705a      	strb	r2, [r3, #1]
	config->powersave  = false;
    4008:	687b      	ldr	r3, [r7, #4]
    400a:	2200      	movs	r2, #0
    400c:	709a      	strb	r2, [r3, #2]
}
    400e:	46c0      	nop			; (mov r8, r8)
    4010:	46bd      	mov	sp, r7
    4012:	b002      	add	sp, #8
    4014:	bd80      	pop	{r7, pc}
	...

00004018 <port_pin_set_output_level>:
{
    4018:	b580      	push	{r7, lr}
    401a:	b084      	sub	sp, #16
    401c:	af00      	add	r7, sp, #0
    401e:	0002      	movs	r2, r0
    4020:	1dfb      	adds	r3, r7, #7
    4022:	701a      	strb	r2, [r3, #0]
    4024:	1dbb      	adds	r3, r7, #6
    4026:	1c0a      	adds	r2, r1, #0
    4028:	701a      	strb	r2, [r3, #0]
	PortGroup *const port_base = port_get_group_from_gpio_pin(gpio_pin);
    402a:	1dfb      	adds	r3, r7, #7
    402c:	781b      	ldrb	r3, [r3, #0]
    402e:	0018      	movs	r0, r3
    4030:	4b0d      	ldr	r3, [pc, #52]	; (4068 <port_pin_set_output_level+0x50>)
    4032:	4798      	blx	r3
    4034:	0003      	movs	r3, r0
    4036:	60fb      	str	r3, [r7, #12]
	uint32_t pin_mask  = (1UL << (gpio_pin % 32));
    4038:	1dfb      	adds	r3, r7, #7
    403a:	781b      	ldrb	r3, [r3, #0]
    403c:	221f      	movs	r2, #31
    403e:	4013      	ands	r3, r2
    4040:	2201      	movs	r2, #1
    4042:	409a      	lsls	r2, r3
    4044:	0013      	movs	r3, r2
    4046:	60bb      	str	r3, [r7, #8]
	if (level) {
    4048:	1dbb      	adds	r3, r7, #6
    404a:	781b      	ldrb	r3, [r3, #0]
    404c:	2b00      	cmp	r3, #0
    404e:	d003      	beq.n	4058 <port_pin_set_output_level+0x40>
		port_base->OUTSET.reg = pin_mask;
    4050:	68fb      	ldr	r3, [r7, #12]
    4052:	68ba      	ldr	r2, [r7, #8]
    4054:	619a      	str	r2, [r3, #24]
}
    4056:	e002      	b.n	405e <port_pin_set_output_level+0x46>
		port_base->OUTCLR.reg = pin_mask;
    4058:	68fb      	ldr	r3, [r7, #12]
    405a:	68ba      	ldr	r2, [r7, #8]
    405c:	615a      	str	r2, [r3, #20]
}
    405e:	46c0      	nop			; (mov r8, r8)
    4060:	46bd      	mov	sp, r7
    4062:	b004      	add	sp, #16
    4064:	bd80      	pop	{r7, pc}
    4066:	46c0      	nop			; (mov r8, r8)
    4068:	00003fd1 	.word	0x00003fd1

0000406c <config_led>:
}
#endif

/** Configure LED0, turn it off*/
static void config_led(void)
{
    406c:	b580      	push	{r7, lr}
    406e:	b082      	sub	sp, #8
    4070:	af00      	add	r7, sp, #0
	struct port_config pin_conf;
	port_get_config_defaults(&pin_conf);
    4072:	1d3b      	adds	r3, r7, #4
    4074:	0018      	movs	r0, r3
    4076:	4b09      	ldr	r3, [pc, #36]	; (409c <config_led+0x30>)
    4078:	4798      	blx	r3

	pin_conf.direction  = PORT_PIN_DIR_OUTPUT;
    407a:	1d3b      	adds	r3, r7, #4
    407c:	2201      	movs	r2, #1
    407e:	701a      	strb	r2, [r3, #0]
	port_pin_set_config(LED_0_PIN, &pin_conf);
    4080:	1d3b      	adds	r3, r7, #4
    4082:	0019      	movs	r1, r3
    4084:	205b      	movs	r0, #91	; 0x5b
    4086:	4b06      	ldr	r3, [pc, #24]	; (40a0 <config_led+0x34>)
    4088:	4798      	blx	r3
	port_pin_set_output_level(LED_0_PIN, LED_0_INACTIVE);
    408a:	2101      	movs	r1, #1
    408c:	205b      	movs	r0, #91	; 0x5b
    408e:	4b05      	ldr	r3, [pc, #20]	; (40a4 <config_led+0x38>)
    4090:	4798      	blx	r3
}
    4092:	46c0      	nop			; (mov r8, r8)
    4094:	46bd      	mov	sp, r7
    4096:	b002      	add	sp, #8
    4098:	bd80      	pop	{r7, pc}
    409a:	46c0      	nop			; (mov r8, r8)
    409c:	00003ff5 	.word	0x00003ff5
    40a0:	00003385 	.word	0x00003385
    40a4:	00004019 	.word	0x00004019

000040a8 <main>:

int main(void)
{
    40a8:	b580      	push	{r7, lr}
    40aa:	af00      	add	r7, sp, #0
	system_init();
    40ac:	4b0a      	ldr	r3, [pc, #40]	; (40d8 <main+0x30>)
    40ae:	4798      	blx	r3
	
	/*Configure UART console.*/
	configure_console();
    40b0:	4b0a      	ldr	r3, [pc, #40]	; (40dc <main+0x34>)
    40b2:	4798      	blx	r3

	/*Configure system tick to generate periodic interrupts */
	SysTick_Config(system_gclk_gen_get_hz(GCLK_GENERATOR_0));
    40b4:	2000      	movs	r0, #0
    40b6:	4b0a      	ldr	r3, [pc, #40]	; (40e0 <main+0x38>)
    40b8:	4798      	blx	r3
    40ba:	0003      	movs	r3, r0
    40bc:	0018      	movs	r0, r3
    40be:	4b09      	ldr	r3, [pc, #36]	; (40e4 <main+0x3c>)
    40c0:	4798      	blx	r3
	system_interrupt_enable_global();
	//! [enable_global_interrupts]*/
	
	/* Output example information */

	puts("scheduler started..\r\n");
    40c2:	4b09      	ldr	r3, [pc, #36]	; (40e8 <main+0x40>)
    40c4:	0018      	movs	r0, r3
    40c6:	4b09      	ldr	r3, [pc, #36]	; (40ec <main+0x44>)
    40c8:	4798      	blx	r3
	

	config_led();
    40ca:	4b09      	ldr	r3, [pc, #36]	; (40f0 <main+0x48>)
    40cc:	4798      	blx	r3

	FreeRtosTasks();
    40ce:	4b09      	ldr	r3, [pc, #36]	; (40f4 <main+0x4c>)
    40d0:	4798      	blx	r3
	
	vTaskStartScheduler();
    40d2:	4b09      	ldr	r3, [pc, #36]	; (40f8 <main+0x50>)
    40d4:	4798      	blx	r3

	while (true) {
    40d6:	e7fe      	b.n	40d6 <main+0x2e>
    40d8:	00003cf5 	.word	0x00003cf5
    40dc:	00001d21 	.word	0x00001d21
    40e0:	0000392d 	.word	0x0000392d
    40e4:	00003f25 	.word	0x00003f25
    40e8:	00004e0c 	.word	0x00004e0c
    40ec:	00004395 	.word	0x00004395
    40f0:	0000406d 	.word	0x0000406d
    40f4:	00000115 	.word	0x00000115
    40f8:	00001281 	.word	0x00001281

000040fc <__udivsi3>:
    40fc:	2200      	movs	r2, #0
    40fe:	0843      	lsrs	r3, r0, #1
    4100:	428b      	cmp	r3, r1
    4102:	d374      	bcc.n	41ee <__udivsi3+0xf2>
    4104:	0903      	lsrs	r3, r0, #4
    4106:	428b      	cmp	r3, r1
    4108:	d35f      	bcc.n	41ca <__udivsi3+0xce>
    410a:	0a03      	lsrs	r3, r0, #8
    410c:	428b      	cmp	r3, r1
    410e:	d344      	bcc.n	419a <__udivsi3+0x9e>
    4110:	0b03      	lsrs	r3, r0, #12
    4112:	428b      	cmp	r3, r1
    4114:	d328      	bcc.n	4168 <__udivsi3+0x6c>
    4116:	0c03      	lsrs	r3, r0, #16
    4118:	428b      	cmp	r3, r1
    411a:	d30d      	bcc.n	4138 <__udivsi3+0x3c>
    411c:	22ff      	movs	r2, #255	; 0xff
    411e:	0209      	lsls	r1, r1, #8
    4120:	ba12      	rev	r2, r2
    4122:	0c03      	lsrs	r3, r0, #16
    4124:	428b      	cmp	r3, r1
    4126:	d302      	bcc.n	412e <__udivsi3+0x32>
    4128:	1212      	asrs	r2, r2, #8
    412a:	0209      	lsls	r1, r1, #8
    412c:	d065      	beq.n	41fa <__udivsi3+0xfe>
    412e:	0b03      	lsrs	r3, r0, #12
    4130:	428b      	cmp	r3, r1
    4132:	d319      	bcc.n	4168 <__udivsi3+0x6c>
    4134:	e000      	b.n	4138 <__udivsi3+0x3c>
    4136:	0a09      	lsrs	r1, r1, #8
    4138:	0bc3      	lsrs	r3, r0, #15
    413a:	428b      	cmp	r3, r1
    413c:	d301      	bcc.n	4142 <__udivsi3+0x46>
    413e:	03cb      	lsls	r3, r1, #15
    4140:	1ac0      	subs	r0, r0, r3
    4142:	4152      	adcs	r2, r2
    4144:	0b83      	lsrs	r3, r0, #14
    4146:	428b      	cmp	r3, r1
    4148:	d301      	bcc.n	414e <__udivsi3+0x52>
    414a:	038b      	lsls	r3, r1, #14
    414c:	1ac0      	subs	r0, r0, r3
    414e:	4152      	adcs	r2, r2
    4150:	0b43      	lsrs	r3, r0, #13
    4152:	428b      	cmp	r3, r1
    4154:	d301      	bcc.n	415a <__udivsi3+0x5e>
    4156:	034b      	lsls	r3, r1, #13
    4158:	1ac0      	subs	r0, r0, r3
    415a:	4152      	adcs	r2, r2
    415c:	0b03      	lsrs	r3, r0, #12
    415e:	428b      	cmp	r3, r1
    4160:	d301      	bcc.n	4166 <__udivsi3+0x6a>
    4162:	030b      	lsls	r3, r1, #12
    4164:	1ac0      	subs	r0, r0, r3
    4166:	4152      	adcs	r2, r2
    4168:	0ac3      	lsrs	r3, r0, #11
    416a:	428b      	cmp	r3, r1
    416c:	d301      	bcc.n	4172 <__udivsi3+0x76>
    416e:	02cb      	lsls	r3, r1, #11
    4170:	1ac0      	subs	r0, r0, r3
    4172:	4152      	adcs	r2, r2
    4174:	0a83      	lsrs	r3, r0, #10
    4176:	428b      	cmp	r3, r1
    4178:	d301      	bcc.n	417e <__udivsi3+0x82>
    417a:	028b      	lsls	r3, r1, #10
    417c:	1ac0      	subs	r0, r0, r3
    417e:	4152      	adcs	r2, r2
    4180:	0a43      	lsrs	r3, r0, #9
    4182:	428b      	cmp	r3, r1
    4184:	d301      	bcc.n	418a <__udivsi3+0x8e>
    4186:	024b      	lsls	r3, r1, #9
    4188:	1ac0      	subs	r0, r0, r3
    418a:	4152      	adcs	r2, r2
    418c:	0a03      	lsrs	r3, r0, #8
    418e:	428b      	cmp	r3, r1
    4190:	d301      	bcc.n	4196 <__udivsi3+0x9a>
    4192:	020b      	lsls	r3, r1, #8
    4194:	1ac0      	subs	r0, r0, r3
    4196:	4152      	adcs	r2, r2
    4198:	d2cd      	bcs.n	4136 <__udivsi3+0x3a>
    419a:	09c3      	lsrs	r3, r0, #7
    419c:	428b      	cmp	r3, r1
    419e:	d301      	bcc.n	41a4 <__udivsi3+0xa8>
    41a0:	01cb      	lsls	r3, r1, #7
    41a2:	1ac0      	subs	r0, r0, r3
    41a4:	4152      	adcs	r2, r2
    41a6:	0983      	lsrs	r3, r0, #6
    41a8:	428b      	cmp	r3, r1
    41aa:	d301      	bcc.n	41b0 <__udivsi3+0xb4>
    41ac:	018b      	lsls	r3, r1, #6
    41ae:	1ac0      	subs	r0, r0, r3
    41b0:	4152      	adcs	r2, r2
    41b2:	0943      	lsrs	r3, r0, #5
    41b4:	428b      	cmp	r3, r1
    41b6:	d301      	bcc.n	41bc <__udivsi3+0xc0>
    41b8:	014b      	lsls	r3, r1, #5
    41ba:	1ac0      	subs	r0, r0, r3
    41bc:	4152      	adcs	r2, r2
    41be:	0903      	lsrs	r3, r0, #4
    41c0:	428b      	cmp	r3, r1
    41c2:	d301      	bcc.n	41c8 <__udivsi3+0xcc>
    41c4:	010b      	lsls	r3, r1, #4
    41c6:	1ac0      	subs	r0, r0, r3
    41c8:	4152      	adcs	r2, r2
    41ca:	08c3      	lsrs	r3, r0, #3
    41cc:	428b      	cmp	r3, r1
    41ce:	d301      	bcc.n	41d4 <__udivsi3+0xd8>
    41d0:	00cb      	lsls	r3, r1, #3
    41d2:	1ac0      	subs	r0, r0, r3
    41d4:	4152      	adcs	r2, r2
    41d6:	0883      	lsrs	r3, r0, #2
    41d8:	428b      	cmp	r3, r1
    41da:	d301      	bcc.n	41e0 <__udivsi3+0xe4>
    41dc:	008b      	lsls	r3, r1, #2
    41de:	1ac0      	subs	r0, r0, r3
    41e0:	4152      	adcs	r2, r2
    41e2:	0843      	lsrs	r3, r0, #1
    41e4:	428b      	cmp	r3, r1
    41e6:	d301      	bcc.n	41ec <__udivsi3+0xf0>
    41e8:	004b      	lsls	r3, r1, #1
    41ea:	1ac0      	subs	r0, r0, r3
    41ec:	4152      	adcs	r2, r2
    41ee:	1a41      	subs	r1, r0, r1
    41f0:	d200      	bcs.n	41f4 <__udivsi3+0xf8>
    41f2:	4601      	mov	r1, r0
    41f4:	4152      	adcs	r2, r2
    41f6:	4610      	mov	r0, r2
    41f8:	4770      	bx	lr
    41fa:	e7ff      	b.n	41fc <__udivsi3+0x100>
    41fc:	b501      	push	{r0, lr}
    41fe:	2000      	movs	r0, #0
    4200:	f000 f806 	bl	4210 <__aeabi_idiv0>
    4204:	bd02      	pop	{r1, pc}
    4206:	46c0      	nop			; (mov r8, r8)

00004208 <__aeabi_uidivmod>:
    4208:	2900      	cmp	r1, #0
    420a:	d0f7      	beq.n	41fc <__udivsi3+0x100>
    420c:	e776      	b.n	40fc <__udivsi3>
    420e:	4770      	bx	lr

00004210 <__aeabi_idiv0>:
    4210:	4770      	bx	lr
    4212:	46c0      	nop			; (mov r8, r8)

00004214 <__aeabi_lmul>:
    4214:	b5f0      	push	{r4, r5, r6, r7, lr}
    4216:	46ce      	mov	lr, r9
    4218:	4647      	mov	r7, r8
    421a:	0415      	lsls	r5, r2, #16
    421c:	0c2d      	lsrs	r5, r5, #16
    421e:	002e      	movs	r6, r5
    4220:	b580      	push	{r7, lr}
    4222:	0407      	lsls	r7, r0, #16
    4224:	0c14      	lsrs	r4, r2, #16
    4226:	0c3f      	lsrs	r7, r7, #16
    4228:	4699      	mov	r9, r3
    422a:	0c03      	lsrs	r3, r0, #16
    422c:	437e      	muls	r6, r7
    422e:	435d      	muls	r5, r3
    4230:	4367      	muls	r7, r4
    4232:	4363      	muls	r3, r4
    4234:	197f      	adds	r7, r7, r5
    4236:	0c34      	lsrs	r4, r6, #16
    4238:	19e4      	adds	r4, r4, r7
    423a:	469c      	mov	ip, r3
    423c:	42a5      	cmp	r5, r4
    423e:	d903      	bls.n	4248 <__aeabi_lmul+0x34>
    4240:	2380      	movs	r3, #128	; 0x80
    4242:	025b      	lsls	r3, r3, #9
    4244:	4698      	mov	r8, r3
    4246:	44c4      	add	ip, r8
    4248:	464b      	mov	r3, r9
    424a:	4351      	muls	r1, r2
    424c:	4343      	muls	r3, r0
    424e:	0436      	lsls	r6, r6, #16
    4250:	0c36      	lsrs	r6, r6, #16
    4252:	0c25      	lsrs	r5, r4, #16
    4254:	0424      	lsls	r4, r4, #16
    4256:	4465      	add	r5, ip
    4258:	19a4      	adds	r4, r4, r6
    425a:	1859      	adds	r1, r3, r1
    425c:	1949      	adds	r1, r1, r5
    425e:	0020      	movs	r0, r4
    4260:	bc0c      	pop	{r2, r3}
    4262:	4690      	mov	r8, r2
    4264:	4699      	mov	r9, r3
    4266:	bdf0      	pop	{r4, r5, r6, r7, pc}

00004268 <__libc_init_array>:
    4268:	b570      	push	{r4, r5, r6, lr}
    426a:	2600      	movs	r6, #0
    426c:	4d0c      	ldr	r5, [pc, #48]	; (42a0 <__libc_init_array+0x38>)
    426e:	4c0d      	ldr	r4, [pc, #52]	; (42a4 <__libc_init_array+0x3c>)
    4270:	1b64      	subs	r4, r4, r5
    4272:	10a4      	asrs	r4, r4, #2
    4274:	42a6      	cmp	r6, r4
    4276:	d109      	bne.n	428c <__libc_init_array+0x24>
    4278:	2600      	movs	r6, #0
    427a:	f000 fe05 	bl	4e88 <_init>
    427e:	4d0a      	ldr	r5, [pc, #40]	; (42a8 <__libc_init_array+0x40>)
    4280:	4c0a      	ldr	r4, [pc, #40]	; (42ac <__libc_init_array+0x44>)
    4282:	1b64      	subs	r4, r4, r5
    4284:	10a4      	asrs	r4, r4, #2
    4286:	42a6      	cmp	r6, r4
    4288:	d105      	bne.n	4296 <__libc_init_array+0x2e>
    428a:	bd70      	pop	{r4, r5, r6, pc}
    428c:	00b3      	lsls	r3, r6, #2
    428e:	58eb      	ldr	r3, [r5, r3]
    4290:	4798      	blx	r3
    4292:	3601      	adds	r6, #1
    4294:	e7ee      	b.n	4274 <__libc_init_array+0xc>
    4296:	00b3      	lsls	r3, r6, #2
    4298:	58eb      	ldr	r3, [r5, r3]
    429a:	4798      	blx	r3
    429c:	3601      	adds	r6, #1
    429e:	e7f2      	b.n	4286 <__libc_init_array+0x1e>
    42a0:	00004e94 	.word	0x00004e94
    42a4:	00004e94 	.word	0x00004e94
    42a8:	00004e94 	.word	0x00004e94
    42ac:	00004e98 	.word	0x00004e98

000042b0 <memcpy>:
    42b0:	2300      	movs	r3, #0
    42b2:	b510      	push	{r4, lr}
    42b4:	429a      	cmp	r2, r3
    42b6:	d100      	bne.n	42ba <memcpy+0xa>
    42b8:	bd10      	pop	{r4, pc}
    42ba:	5ccc      	ldrb	r4, [r1, r3]
    42bc:	54c4      	strb	r4, [r0, r3]
    42be:	3301      	adds	r3, #1
    42c0:	e7f8      	b.n	42b4 <memcpy+0x4>

000042c2 <memset>:
    42c2:	0003      	movs	r3, r0
    42c4:	1882      	adds	r2, r0, r2
    42c6:	4293      	cmp	r3, r2
    42c8:	d100      	bne.n	42cc <memset+0xa>
    42ca:	4770      	bx	lr
    42cc:	7019      	strb	r1, [r3, #0]
    42ce:	3301      	adds	r3, #1
    42d0:	e7f9      	b.n	42c6 <memset+0x4>
	...

000042d4 <_puts_r>:
    42d4:	b570      	push	{r4, r5, r6, lr}
    42d6:	0005      	movs	r5, r0
    42d8:	000e      	movs	r6, r1
    42da:	2800      	cmp	r0, #0
    42dc:	d004      	beq.n	42e8 <_puts_r+0x14>
    42de:	6983      	ldr	r3, [r0, #24]
    42e0:	2b00      	cmp	r3, #0
    42e2:	d101      	bne.n	42e8 <_puts_r+0x14>
    42e4:	f000 fada 	bl	489c <__sinit>
    42e8:	69ab      	ldr	r3, [r5, #24]
    42ea:	68ac      	ldr	r4, [r5, #8]
    42ec:	2b00      	cmp	r3, #0
    42ee:	d102      	bne.n	42f6 <_puts_r+0x22>
    42f0:	0028      	movs	r0, r5
    42f2:	f000 fad3 	bl	489c <__sinit>
    42f6:	4b24      	ldr	r3, [pc, #144]	; (4388 <_puts_r+0xb4>)
    42f8:	429c      	cmp	r4, r3
    42fa:	d10f      	bne.n	431c <_puts_r+0x48>
    42fc:	686c      	ldr	r4, [r5, #4]
    42fe:	89a3      	ldrh	r3, [r4, #12]
    4300:	071b      	lsls	r3, r3, #28
    4302:	d502      	bpl.n	430a <_puts_r+0x36>
    4304:	6923      	ldr	r3, [r4, #16]
    4306:	2b00      	cmp	r3, #0
    4308:	d120      	bne.n	434c <_puts_r+0x78>
    430a:	0021      	movs	r1, r4
    430c:	0028      	movs	r0, r5
    430e:	f000 f957 	bl	45c0 <__swsetup_r>
    4312:	2800      	cmp	r0, #0
    4314:	d01a      	beq.n	434c <_puts_r+0x78>
    4316:	2001      	movs	r0, #1
    4318:	4240      	negs	r0, r0
    431a:	bd70      	pop	{r4, r5, r6, pc}
    431c:	4b1b      	ldr	r3, [pc, #108]	; (438c <_puts_r+0xb8>)
    431e:	429c      	cmp	r4, r3
    4320:	d101      	bne.n	4326 <_puts_r+0x52>
    4322:	68ac      	ldr	r4, [r5, #8]
    4324:	e7eb      	b.n	42fe <_puts_r+0x2a>
    4326:	4b1a      	ldr	r3, [pc, #104]	; (4390 <_puts_r+0xbc>)
    4328:	429c      	cmp	r4, r3
    432a:	d1e8      	bne.n	42fe <_puts_r+0x2a>
    432c:	68ec      	ldr	r4, [r5, #12]
    432e:	e7e6      	b.n	42fe <_puts_r+0x2a>
    4330:	3b01      	subs	r3, #1
    4332:	3601      	adds	r6, #1
    4334:	60a3      	str	r3, [r4, #8]
    4336:	2b00      	cmp	r3, #0
    4338:	da04      	bge.n	4344 <_puts_r+0x70>
    433a:	69a2      	ldr	r2, [r4, #24]
    433c:	4293      	cmp	r3, r2
    433e:	db16      	blt.n	436e <_puts_r+0x9a>
    4340:	290a      	cmp	r1, #10
    4342:	d014      	beq.n	436e <_puts_r+0x9a>
    4344:	6823      	ldr	r3, [r4, #0]
    4346:	1c5a      	adds	r2, r3, #1
    4348:	6022      	str	r2, [r4, #0]
    434a:	7019      	strb	r1, [r3, #0]
    434c:	7831      	ldrb	r1, [r6, #0]
    434e:	68a3      	ldr	r3, [r4, #8]
    4350:	2900      	cmp	r1, #0
    4352:	d1ed      	bne.n	4330 <_puts_r+0x5c>
    4354:	3b01      	subs	r3, #1
    4356:	60a3      	str	r3, [r4, #8]
    4358:	2b00      	cmp	r3, #0
    435a:	da0f      	bge.n	437c <_puts_r+0xa8>
    435c:	0022      	movs	r2, r4
    435e:	310a      	adds	r1, #10
    4360:	0028      	movs	r0, r5
    4362:	f000 f8d7 	bl	4514 <__swbuf_r>
    4366:	1c43      	adds	r3, r0, #1
    4368:	d0d5      	beq.n	4316 <_puts_r+0x42>
    436a:	200a      	movs	r0, #10
    436c:	e7d5      	b.n	431a <_puts_r+0x46>
    436e:	0022      	movs	r2, r4
    4370:	0028      	movs	r0, r5
    4372:	f000 f8cf 	bl	4514 <__swbuf_r>
    4376:	1c43      	adds	r3, r0, #1
    4378:	d1e8      	bne.n	434c <_puts_r+0x78>
    437a:	e7cc      	b.n	4316 <_puts_r+0x42>
    437c:	200a      	movs	r0, #10
    437e:	6823      	ldr	r3, [r4, #0]
    4380:	1c5a      	adds	r2, r3, #1
    4382:	6022      	str	r2, [r4, #0]
    4384:	7018      	strb	r0, [r3, #0]
    4386:	e7c8      	b.n	431a <_puts_r+0x46>
    4388:	00004e48 	.word	0x00004e48
    438c:	00004e68 	.word	0x00004e68
    4390:	00004e28 	.word	0x00004e28

00004394 <puts>:
    4394:	b510      	push	{r4, lr}
    4396:	4b03      	ldr	r3, [pc, #12]	; (43a4 <puts+0x10>)
    4398:	0001      	movs	r1, r0
    439a:	6818      	ldr	r0, [r3, #0]
    439c:	f7ff ff9a 	bl	42d4 <_puts_r>
    43a0:	bd10      	pop	{r4, pc}
    43a2:	46c0      	nop			; (mov r8, r8)
    43a4:	20000008 	.word	0x20000008

000043a8 <setbuf>:
    43a8:	424a      	negs	r2, r1
    43aa:	414a      	adcs	r2, r1
    43ac:	2380      	movs	r3, #128	; 0x80
    43ae:	b510      	push	{r4, lr}
    43b0:	0052      	lsls	r2, r2, #1
    43b2:	00db      	lsls	r3, r3, #3
    43b4:	f000 f802 	bl	43bc <setvbuf>
    43b8:	bd10      	pop	{r4, pc}
	...

000043bc <setvbuf>:
    43bc:	b5f0      	push	{r4, r5, r6, r7, lr}
    43be:	001d      	movs	r5, r3
    43c0:	4b4f      	ldr	r3, [pc, #316]	; (4500 <setvbuf+0x144>)
    43c2:	b085      	sub	sp, #20
    43c4:	681e      	ldr	r6, [r3, #0]
    43c6:	0004      	movs	r4, r0
    43c8:	000f      	movs	r7, r1
    43ca:	9200      	str	r2, [sp, #0]
    43cc:	2e00      	cmp	r6, #0
    43ce:	d005      	beq.n	43dc <setvbuf+0x20>
    43d0:	69b3      	ldr	r3, [r6, #24]
    43d2:	2b00      	cmp	r3, #0
    43d4:	d102      	bne.n	43dc <setvbuf+0x20>
    43d6:	0030      	movs	r0, r6
    43d8:	f000 fa60 	bl	489c <__sinit>
    43dc:	4b49      	ldr	r3, [pc, #292]	; (4504 <setvbuf+0x148>)
    43de:	429c      	cmp	r4, r3
    43e0:	d150      	bne.n	4484 <setvbuf+0xc8>
    43e2:	6874      	ldr	r4, [r6, #4]
    43e4:	9b00      	ldr	r3, [sp, #0]
    43e6:	2b02      	cmp	r3, #2
    43e8:	d005      	beq.n	43f6 <setvbuf+0x3a>
    43ea:	2b01      	cmp	r3, #1
    43ec:	d900      	bls.n	43f0 <setvbuf+0x34>
    43ee:	e084      	b.n	44fa <setvbuf+0x13e>
    43f0:	2d00      	cmp	r5, #0
    43f2:	da00      	bge.n	43f6 <setvbuf+0x3a>
    43f4:	e081      	b.n	44fa <setvbuf+0x13e>
    43f6:	0021      	movs	r1, r4
    43f8:	0030      	movs	r0, r6
    43fa:	f000 f9e1 	bl	47c0 <_fflush_r>
    43fe:	6b61      	ldr	r1, [r4, #52]	; 0x34
    4400:	2900      	cmp	r1, #0
    4402:	d008      	beq.n	4416 <setvbuf+0x5a>
    4404:	0023      	movs	r3, r4
    4406:	3344      	adds	r3, #68	; 0x44
    4408:	4299      	cmp	r1, r3
    440a:	d002      	beq.n	4412 <setvbuf+0x56>
    440c:	0030      	movs	r0, r6
    440e:	f000 fb51 	bl	4ab4 <_free_r>
    4412:	2300      	movs	r3, #0
    4414:	6363      	str	r3, [r4, #52]	; 0x34
    4416:	2300      	movs	r3, #0
    4418:	61a3      	str	r3, [r4, #24]
    441a:	6063      	str	r3, [r4, #4]
    441c:	89a3      	ldrh	r3, [r4, #12]
    441e:	061b      	lsls	r3, r3, #24
    4420:	d503      	bpl.n	442a <setvbuf+0x6e>
    4422:	6921      	ldr	r1, [r4, #16]
    4424:	0030      	movs	r0, r6
    4426:	f000 fb45 	bl	4ab4 <_free_r>
    442a:	89a3      	ldrh	r3, [r4, #12]
    442c:	4a36      	ldr	r2, [pc, #216]	; (4508 <setvbuf+0x14c>)
    442e:	4013      	ands	r3, r2
    4430:	81a3      	strh	r3, [r4, #12]
    4432:	9b00      	ldr	r3, [sp, #0]
    4434:	2b02      	cmp	r3, #2
    4436:	d05a      	beq.n	44ee <setvbuf+0x132>
    4438:	ab03      	add	r3, sp, #12
    443a:	aa02      	add	r2, sp, #8
    443c:	0021      	movs	r1, r4
    443e:	0030      	movs	r0, r6
    4440:	f000 fac2 	bl	49c8 <__swhatbuf_r>
    4444:	89a3      	ldrh	r3, [r4, #12]
    4446:	4318      	orrs	r0, r3
    4448:	81a0      	strh	r0, [r4, #12]
    444a:	2d00      	cmp	r5, #0
    444c:	d124      	bne.n	4498 <setvbuf+0xdc>
    444e:	9d02      	ldr	r5, [sp, #8]
    4450:	0028      	movs	r0, r5
    4452:	f000 fb25 	bl	4aa0 <malloc>
    4456:	9501      	str	r5, [sp, #4]
    4458:	1e07      	subs	r7, r0, #0
    445a:	d142      	bne.n	44e2 <setvbuf+0x126>
    445c:	9b02      	ldr	r3, [sp, #8]
    445e:	9301      	str	r3, [sp, #4]
    4460:	42ab      	cmp	r3, r5
    4462:	d139      	bne.n	44d8 <setvbuf+0x11c>
    4464:	2001      	movs	r0, #1
    4466:	4240      	negs	r0, r0
    4468:	2302      	movs	r3, #2
    446a:	89a2      	ldrh	r2, [r4, #12]
    446c:	4313      	orrs	r3, r2
    446e:	81a3      	strh	r3, [r4, #12]
    4470:	2300      	movs	r3, #0
    4472:	60a3      	str	r3, [r4, #8]
    4474:	0023      	movs	r3, r4
    4476:	3347      	adds	r3, #71	; 0x47
    4478:	6023      	str	r3, [r4, #0]
    447a:	6123      	str	r3, [r4, #16]
    447c:	2301      	movs	r3, #1
    447e:	6163      	str	r3, [r4, #20]
    4480:	b005      	add	sp, #20
    4482:	bdf0      	pop	{r4, r5, r6, r7, pc}
    4484:	4b21      	ldr	r3, [pc, #132]	; (450c <setvbuf+0x150>)
    4486:	429c      	cmp	r4, r3
    4488:	d101      	bne.n	448e <setvbuf+0xd2>
    448a:	68b4      	ldr	r4, [r6, #8]
    448c:	e7aa      	b.n	43e4 <setvbuf+0x28>
    448e:	4b20      	ldr	r3, [pc, #128]	; (4510 <setvbuf+0x154>)
    4490:	429c      	cmp	r4, r3
    4492:	d1a7      	bne.n	43e4 <setvbuf+0x28>
    4494:	68f4      	ldr	r4, [r6, #12]
    4496:	e7a5      	b.n	43e4 <setvbuf+0x28>
    4498:	2f00      	cmp	r7, #0
    449a:	d0d9      	beq.n	4450 <setvbuf+0x94>
    449c:	69b3      	ldr	r3, [r6, #24]
    449e:	2b00      	cmp	r3, #0
    44a0:	d102      	bne.n	44a8 <setvbuf+0xec>
    44a2:	0030      	movs	r0, r6
    44a4:	f000 f9fa 	bl	489c <__sinit>
    44a8:	9b00      	ldr	r3, [sp, #0]
    44aa:	2b01      	cmp	r3, #1
    44ac:	d103      	bne.n	44b6 <setvbuf+0xfa>
    44ae:	89a3      	ldrh	r3, [r4, #12]
    44b0:	9a00      	ldr	r2, [sp, #0]
    44b2:	431a      	orrs	r2, r3
    44b4:	81a2      	strh	r2, [r4, #12]
    44b6:	2008      	movs	r0, #8
    44b8:	89a3      	ldrh	r3, [r4, #12]
    44ba:	6027      	str	r7, [r4, #0]
    44bc:	6127      	str	r7, [r4, #16]
    44be:	6165      	str	r5, [r4, #20]
    44c0:	4018      	ands	r0, r3
    44c2:	d018      	beq.n	44f6 <setvbuf+0x13a>
    44c4:	2001      	movs	r0, #1
    44c6:	4018      	ands	r0, r3
    44c8:	2300      	movs	r3, #0
    44ca:	4298      	cmp	r0, r3
    44cc:	d011      	beq.n	44f2 <setvbuf+0x136>
    44ce:	426d      	negs	r5, r5
    44d0:	60a3      	str	r3, [r4, #8]
    44d2:	61a5      	str	r5, [r4, #24]
    44d4:	0018      	movs	r0, r3
    44d6:	e7d3      	b.n	4480 <setvbuf+0xc4>
    44d8:	9801      	ldr	r0, [sp, #4]
    44da:	f000 fae1 	bl	4aa0 <malloc>
    44de:	1e07      	subs	r7, r0, #0
    44e0:	d0c0      	beq.n	4464 <setvbuf+0xa8>
    44e2:	2380      	movs	r3, #128	; 0x80
    44e4:	89a2      	ldrh	r2, [r4, #12]
    44e6:	9d01      	ldr	r5, [sp, #4]
    44e8:	4313      	orrs	r3, r2
    44ea:	81a3      	strh	r3, [r4, #12]
    44ec:	e7d6      	b.n	449c <setvbuf+0xe0>
    44ee:	2000      	movs	r0, #0
    44f0:	e7ba      	b.n	4468 <setvbuf+0xac>
    44f2:	60a5      	str	r5, [r4, #8]
    44f4:	e7c4      	b.n	4480 <setvbuf+0xc4>
    44f6:	60a0      	str	r0, [r4, #8]
    44f8:	e7c2      	b.n	4480 <setvbuf+0xc4>
    44fa:	2001      	movs	r0, #1
    44fc:	4240      	negs	r0, r0
    44fe:	e7bf      	b.n	4480 <setvbuf+0xc4>
    4500:	20000008 	.word	0x20000008
    4504:	00004e48 	.word	0x00004e48
    4508:	fffff35c 	.word	0xfffff35c
    450c:	00004e68 	.word	0x00004e68
    4510:	00004e28 	.word	0x00004e28

00004514 <__swbuf_r>:
    4514:	b5f8      	push	{r3, r4, r5, r6, r7, lr}
    4516:	0005      	movs	r5, r0
    4518:	000e      	movs	r6, r1
    451a:	0014      	movs	r4, r2
    451c:	2800      	cmp	r0, #0
    451e:	d004      	beq.n	452a <__swbuf_r+0x16>
    4520:	6983      	ldr	r3, [r0, #24]
    4522:	2b00      	cmp	r3, #0
    4524:	d101      	bne.n	452a <__swbuf_r+0x16>
    4526:	f000 f9b9 	bl	489c <__sinit>
    452a:	4b22      	ldr	r3, [pc, #136]	; (45b4 <__swbuf_r+0xa0>)
    452c:	429c      	cmp	r4, r3
    452e:	d12d      	bne.n	458c <__swbuf_r+0x78>
    4530:	686c      	ldr	r4, [r5, #4]
    4532:	69a3      	ldr	r3, [r4, #24]
    4534:	60a3      	str	r3, [r4, #8]
    4536:	89a3      	ldrh	r3, [r4, #12]
    4538:	071b      	lsls	r3, r3, #28
    453a:	d531      	bpl.n	45a0 <__swbuf_r+0x8c>
    453c:	6923      	ldr	r3, [r4, #16]
    453e:	2b00      	cmp	r3, #0
    4540:	d02e      	beq.n	45a0 <__swbuf_r+0x8c>
    4542:	6823      	ldr	r3, [r4, #0]
    4544:	6922      	ldr	r2, [r4, #16]
    4546:	b2f7      	uxtb	r7, r6
    4548:	1a98      	subs	r0, r3, r2
    454a:	6963      	ldr	r3, [r4, #20]
    454c:	b2f6      	uxtb	r6, r6
    454e:	4298      	cmp	r0, r3
    4550:	db05      	blt.n	455e <__swbuf_r+0x4a>
    4552:	0021      	movs	r1, r4
    4554:	0028      	movs	r0, r5
    4556:	f000 f933 	bl	47c0 <_fflush_r>
    455a:	2800      	cmp	r0, #0
    455c:	d126      	bne.n	45ac <__swbuf_r+0x98>
    455e:	68a3      	ldr	r3, [r4, #8]
    4560:	3001      	adds	r0, #1
    4562:	3b01      	subs	r3, #1
    4564:	60a3      	str	r3, [r4, #8]
    4566:	6823      	ldr	r3, [r4, #0]
    4568:	1c5a      	adds	r2, r3, #1
    456a:	6022      	str	r2, [r4, #0]
    456c:	701f      	strb	r7, [r3, #0]
    456e:	6963      	ldr	r3, [r4, #20]
    4570:	4298      	cmp	r0, r3
    4572:	d004      	beq.n	457e <__swbuf_r+0x6a>
    4574:	89a3      	ldrh	r3, [r4, #12]
    4576:	07db      	lsls	r3, r3, #31
    4578:	d51a      	bpl.n	45b0 <__swbuf_r+0x9c>
    457a:	2e0a      	cmp	r6, #10
    457c:	d118      	bne.n	45b0 <__swbuf_r+0x9c>
    457e:	0021      	movs	r1, r4
    4580:	0028      	movs	r0, r5
    4582:	f000 f91d 	bl	47c0 <_fflush_r>
    4586:	2800      	cmp	r0, #0
    4588:	d012      	beq.n	45b0 <__swbuf_r+0x9c>
    458a:	e00f      	b.n	45ac <__swbuf_r+0x98>
    458c:	4b0a      	ldr	r3, [pc, #40]	; (45b8 <__swbuf_r+0xa4>)
    458e:	429c      	cmp	r4, r3
    4590:	d101      	bne.n	4596 <__swbuf_r+0x82>
    4592:	68ac      	ldr	r4, [r5, #8]
    4594:	e7cd      	b.n	4532 <__swbuf_r+0x1e>
    4596:	4b09      	ldr	r3, [pc, #36]	; (45bc <__swbuf_r+0xa8>)
    4598:	429c      	cmp	r4, r3
    459a:	d1ca      	bne.n	4532 <__swbuf_r+0x1e>
    459c:	68ec      	ldr	r4, [r5, #12]
    459e:	e7c8      	b.n	4532 <__swbuf_r+0x1e>
    45a0:	0021      	movs	r1, r4
    45a2:	0028      	movs	r0, r5
    45a4:	f000 f80c 	bl	45c0 <__swsetup_r>
    45a8:	2800      	cmp	r0, #0
    45aa:	d0ca      	beq.n	4542 <__swbuf_r+0x2e>
    45ac:	2601      	movs	r6, #1
    45ae:	4276      	negs	r6, r6
    45b0:	0030      	movs	r0, r6
    45b2:	bdf8      	pop	{r3, r4, r5, r6, r7, pc}
    45b4:	00004e48 	.word	0x00004e48
    45b8:	00004e68 	.word	0x00004e68
    45bc:	00004e28 	.word	0x00004e28

000045c0 <__swsetup_r>:
    45c0:	4b36      	ldr	r3, [pc, #216]	; (469c <__swsetup_r+0xdc>)
    45c2:	b570      	push	{r4, r5, r6, lr}
    45c4:	681d      	ldr	r5, [r3, #0]
    45c6:	0006      	movs	r6, r0
    45c8:	000c      	movs	r4, r1
    45ca:	2d00      	cmp	r5, #0
    45cc:	d005      	beq.n	45da <__swsetup_r+0x1a>
    45ce:	69ab      	ldr	r3, [r5, #24]
    45d0:	2b00      	cmp	r3, #0
    45d2:	d102      	bne.n	45da <__swsetup_r+0x1a>
    45d4:	0028      	movs	r0, r5
    45d6:	f000 f961 	bl	489c <__sinit>
    45da:	4b31      	ldr	r3, [pc, #196]	; (46a0 <__swsetup_r+0xe0>)
    45dc:	429c      	cmp	r4, r3
    45de:	d10f      	bne.n	4600 <__swsetup_r+0x40>
    45e0:	686c      	ldr	r4, [r5, #4]
    45e2:	230c      	movs	r3, #12
    45e4:	5ee2      	ldrsh	r2, [r4, r3]
    45e6:	b293      	uxth	r3, r2
    45e8:	0719      	lsls	r1, r3, #28
    45ea:	d42d      	bmi.n	4648 <__swsetup_r+0x88>
    45ec:	06d9      	lsls	r1, r3, #27
    45ee:	d411      	bmi.n	4614 <__swsetup_r+0x54>
    45f0:	2309      	movs	r3, #9
    45f2:	2001      	movs	r0, #1
    45f4:	6033      	str	r3, [r6, #0]
    45f6:	3337      	adds	r3, #55	; 0x37
    45f8:	4313      	orrs	r3, r2
    45fa:	81a3      	strh	r3, [r4, #12]
    45fc:	4240      	negs	r0, r0
    45fe:	bd70      	pop	{r4, r5, r6, pc}
    4600:	4b28      	ldr	r3, [pc, #160]	; (46a4 <__swsetup_r+0xe4>)
    4602:	429c      	cmp	r4, r3
    4604:	d101      	bne.n	460a <__swsetup_r+0x4a>
    4606:	68ac      	ldr	r4, [r5, #8]
    4608:	e7eb      	b.n	45e2 <__swsetup_r+0x22>
    460a:	4b27      	ldr	r3, [pc, #156]	; (46a8 <__swsetup_r+0xe8>)
    460c:	429c      	cmp	r4, r3
    460e:	d1e8      	bne.n	45e2 <__swsetup_r+0x22>
    4610:	68ec      	ldr	r4, [r5, #12]
    4612:	e7e6      	b.n	45e2 <__swsetup_r+0x22>
    4614:	075b      	lsls	r3, r3, #29
    4616:	d513      	bpl.n	4640 <__swsetup_r+0x80>
    4618:	6b61      	ldr	r1, [r4, #52]	; 0x34
    461a:	2900      	cmp	r1, #0
    461c:	d008      	beq.n	4630 <__swsetup_r+0x70>
    461e:	0023      	movs	r3, r4
    4620:	3344      	adds	r3, #68	; 0x44
    4622:	4299      	cmp	r1, r3
    4624:	d002      	beq.n	462c <__swsetup_r+0x6c>
    4626:	0030      	movs	r0, r6
    4628:	f000 fa44 	bl	4ab4 <_free_r>
    462c:	2300      	movs	r3, #0
    462e:	6363      	str	r3, [r4, #52]	; 0x34
    4630:	2224      	movs	r2, #36	; 0x24
    4632:	89a3      	ldrh	r3, [r4, #12]
    4634:	4393      	bics	r3, r2
    4636:	81a3      	strh	r3, [r4, #12]
    4638:	2300      	movs	r3, #0
    463a:	6063      	str	r3, [r4, #4]
    463c:	6923      	ldr	r3, [r4, #16]
    463e:	6023      	str	r3, [r4, #0]
    4640:	2308      	movs	r3, #8
    4642:	89a2      	ldrh	r2, [r4, #12]
    4644:	4313      	orrs	r3, r2
    4646:	81a3      	strh	r3, [r4, #12]
    4648:	6923      	ldr	r3, [r4, #16]
    464a:	2b00      	cmp	r3, #0
    464c:	d10b      	bne.n	4666 <__swsetup_r+0xa6>
    464e:	21a0      	movs	r1, #160	; 0xa0
    4650:	2280      	movs	r2, #128	; 0x80
    4652:	89a3      	ldrh	r3, [r4, #12]
    4654:	0089      	lsls	r1, r1, #2
    4656:	0092      	lsls	r2, r2, #2
    4658:	400b      	ands	r3, r1
    465a:	4293      	cmp	r3, r2
    465c:	d003      	beq.n	4666 <__swsetup_r+0xa6>
    465e:	0021      	movs	r1, r4
    4660:	0030      	movs	r0, r6
    4662:	f000 f9d9 	bl	4a18 <__smakebuf_r>
    4666:	2301      	movs	r3, #1
    4668:	89a2      	ldrh	r2, [r4, #12]
    466a:	4013      	ands	r3, r2
    466c:	d011      	beq.n	4692 <__swsetup_r+0xd2>
    466e:	2300      	movs	r3, #0
    4670:	60a3      	str	r3, [r4, #8]
    4672:	6963      	ldr	r3, [r4, #20]
    4674:	425b      	negs	r3, r3
    4676:	61a3      	str	r3, [r4, #24]
    4678:	2000      	movs	r0, #0
    467a:	6923      	ldr	r3, [r4, #16]
    467c:	4283      	cmp	r3, r0
    467e:	d1be      	bne.n	45fe <__swsetup_r+0x3e>
    4680:	230c      	movs	r3, #12
    4682:	5ee2      	ldrsh	r2, [r4, r3]
    4684:	0613      	lsls	r3, r2, #24
    4686:	d5ba      	bpl.n	45fe <__swsetup_r+0x3e>
    4688:	2340      	movs	r3, #64	; 0x40
    468a:	4313      	orrs	r3, r2
    468c:	81a3      	strh	r3, [r4, #12]
    468e:	3801      	subs	r0, #1
    4690:	e7b5      	b.n	45fe <__swsetup_r+0x3e>
    4692:	0792      	lsls	r2, r2, #30
    4694:	d400      	bmi.n	4698 <__swsetup_r+0xd8>
    4696:	6963      	ldr	r3, [r4, #20]
    4698:	60a3      	str	r3, [r4, #8]
    469a:	e7ed      	b.n	4678 <__swsetup_r+0xb8>
    469c:	20000008 	.word	0x20000008
    46a0:	00004e48 	.word	0x00004e48
    46a4:	00004e68 	.word	0x00004e68
    46a8:	00004e28 	.word	0x00004e28

000046ac <__sflush_r>:
    46ac:	b5f7      	push	{r0, r1, r2, r4, r5, r6, r7, lr}
    46ae:	898a      	ldrh	r2, [r1, #12]
    46b0:	0005      	movs	r5, r0
    46b2:	000c      	movs	r4, r1
    46b4:	0713      	lsls	r3, r2, #28
    46b6:	d460      	bmi.n	477a <__sflush_r+0xce>
    46b8:	684b      	ldr	r3, [r1, #4]
    46ba:	2b00      	cmp	r3, #0
    46bc:	dc04      	bgt.n	46c8 <__sflush_r+0x1c>
    46be:	6c0b      	ldr	r3, [r1, #64]	; 0x40
    46c0:	2b00      	cmp	r3, #0
    46c2:	dc01      	bgt.n	46c8 <__sflush_r+0x1c>
    46c4:	2000      	movs	r0, #0
    46c6:	bdfe      	pop	{r1, r2, r3, r4, r5, r6, r7, pc}
    46c8:	6ae7      	ldr	r7, [r4, #44]	; 0x2c
    46ca:	2f00      	cmp	r7, #0
    46cc:	d0fa      	beq.n	46c4 <__sflush_r+0x18>
    46ce:	2300      	movs	r3, #0
    46d0:	682e      	ldr	r6, [r5, #0]
    46d2:	602b      	str	r3, [r5, #0]
    46d4:	2380      	movs	r3, #128	; 0x80
    46d6:	015b      	lsls	r3, r3, #5
    46d8:	401a      	ands	r2, r3
    46da:	d034      	beq.n	4746 <__sflush_r+0x9a>
    46dc:	6d60      	ldr	r0, [r4, #84]	; 0x54
    46de:	89a3      	ldrh	r3, [r4, #12]
    46e0:	075b      	lsls	r3, r3, #29
    46e2:	d506      	bpl.n	46f2 <__sflush_r+0x46>
    46e4:	6863      	ldr	r3, [r4, #4]
    46e6:	1ac0      	subs	r0, r0, r3
    46e8:	6b63      	ldr	r3, [r4, #52]	; 0x34
    46ea:	2b00      	cmp	r3, #0
    46ec:	d001      	beq.n	46f2 <__sflush_r+0x46>
    46ee:	6c23      	ldr	r3, [r4, #64]	; 0x40
    46f0:	1ac0      	subs	r0, r0, r3
    46f2:	0002      	movs	r2, r0
    46f4:	6a21      	ldr	r1, [r4, #32]
    46f6:	2300      	movs	r3, #0
    46f8:	0028      	movs	r0, r5
    46fa:	6ae7      	ldr	r7, [r4, #44]	; 0x2c
    46fc:	47b8      	blx	r7
    46fe:	89a1      	ldrh	r1, [r4, #12]
    4700:	1c43      	adds	r3, r0, #1
    4702:	d106      	bne.n	4712 <__sflush_r+0x66>
    4704:	682b      	ldr	r3, [r5, #0]
    4706:	2b1d      	cmp	r3, #29
    4708:	d831      	bhi.n	476e <__sflush_r+0xc2>
    470a:	4a2c      	ldr	r2, [pc, #176]	; (47bc <__sflush_r+0x110>)
    470c:	40da      	lsrs	r2, r3
    470e:	07d3      	lsls	r3, r2, #31
    4710:	d52d      	bpl.n	476e <__sflush_r+0xc2>
    4712:	2300      	movs	r3, #0
    4714:	6063      	str	r3, [r4, #4]
    4716:	6923      	ldr	r3, [r4, #16]
    4718:	6023      	str	r3, [r4, #0]
    471a:	04cb      	lsls	r3, r1, #19
    471c:	d505      	bpl.n	472a <__sflush_r+0x7e>
    471e:	1c43      	adds	r3, r0, #1
    4720:	d102      	bne.n	4728 <__sflush_r+0x7c>
    4722:	682b      	ldr	r3, [r5, #0]
    4724:	2b00      	cmp	r3, #0
    4726:	d100      	bne.n	472a <__sflush_r+0x7e>
    4728:	6560      	str	r0, [r4, #84]	; 0x54
    472a:	6b61      	ldr	r1, [r4, #52]	; 0x34
    472c:	602e      	str	r6, [r5, #0]
    472e:	2900      	cmp	r1, #0
    4730:	d0c8      	beq.n	46c4 <__sflush_r+0x18>
    4732:	0023      	movs	r3, r4
    4734:	3344      	adds	r3, #68	; 0x44
    4736:	4299      	cmp	r1, r3
    4738:	d002      	beq.n	4740 <__sflush_r+0x94>
    473a:	0028      	movs	r0, r5
    473c:	f000 f9ba 	bl	4ab4 <_free_r>
    4740:	2000      	movs	r0, #0
    4742:	6360      	str	r0, [r4, #52]	; 0x34
    4744:	e7bf      	b.n	46c6 <__sflush_r+0x1a>
    4746:	2301      	movs	r3, #1
    4748:	6a21      	ldr	r1, [r4, #32]
    474a:	0028      	movs	r0, r5
    474c:	47b8      	blx	r7
    474e:	1c43      	adds	r3, r0, #1
    4750:	d1c5      	bne.n	46de <__sflush_r+0x32>
    4752:	682b      	ldr	r3, [r5, #0]
    4754:	2b00      	cmp	r3, #0
    4756:	d0c2      	beq.n	46de <__sflush_r+0x32>
    4758:	2b1d      	cmp	r3, #29
    475a:	d001      	beq.n	4760 <__sflush_r+0xb4>
    475c:	2b16      	cmp	r3, #22
    475e:	d101      	bne.n	4764 <__sflush_r+0xb8>
    4760:	602e      	str	r6, [r5, #0]
    4762:	e7af      	b.n	46c4 <__sflush_r+0x18>
    4764:	2340      	movs	r3, #64	; 0x40
    4766:	89a2      	ldrh	r2, [r4, #12]
    4768:	4313      	orrs	r3, r2
    476a:	81a3      	strh	r3, [r4, #12]
    476c:	e7ab      	b.n	46c6 <__sflush_r+0x1a>
    476e:	2340      	movs	r3, #64	; 0x40
    4770:	430b      	orrs	r3, r1
    4772:	2001      	movs	r0, #1
    4774:	81a3      	strh	r3, [r4, #12]
    4776:	4240      	negs	r0, r0
    4778:	e7a5      	b.n	46c6 <__sflush_r+0x1a>
    477a:	690f      	ldr	r7, [r1, #16]
    477c:	2f00      	cmp	r7, #0
    477e:	d0a1      	beq.n	46c4 <__sflush_r+0x18>
    4780:	680b      	ldr	r3, [r1, #0]
    4782:	600f      	str	r7, [r1, #0]
    4784:	1bdb      	subs	r3, r3, r7
    4786:	9301      	str	r3, [sp, #4]
    4788:	2300      	movs	r3, #0
    478a:	0792      	lsls	r2, r2, #30
    478c:	d100      	bne.n	4790 <__sflush_r+0xe4>
    478e:	694b      	ldr	r3, [r1, #20]
    4790:	60a3      	str	r3, [r4, #8]
    4792:	9b01      	ldr	r3, [sp, #4]
    4794:	2b00      	cmp	r3, #0
    4796:	dc00      	bgt.n	479a <__sflush_r+0xee>
    4798:	e794      	b.n	46c4 <__sflush_r+0x18>
    479a:	9b01      	ldr	r3, [sp, #4]
    479c:	003a      	movs	r2, r7
    479e:	6a21      	ldr	r1, [r4, #32]
    47a0:	0028      	movs	r0, r5
    47a2:	6aa6      	ldr	r6, [r4, #40]	; 0x28
    47a4:	47b0      	blx	r6
    47a6:	2800      	cmp	r0, #0
    47a8:	dc03      	bgt.n	47b2 <__sflush_r+0x106>
    47aa:	2340      	movs	r3, #64	; 0x40
    47ac:	89a2      	ldrh	r2, [r4, #12]
    47ae:	4313      	orrs	r3, r2
    47b0:	e7df      	b.n	4772 <__sflush_r+0xc6>
    47b2:	9b01      	ldr	r3, [sp, #4]
    47b4:	183f      	adds	r7, r7, r0
    47b6:	1a1b      	subs	r3, r3, r0
    47b8:	9301      	str	r3, [sp, #4]
    47ba:	e7ea      	b.n	4792 <__sflush_r+0xe6>
    47bc:	20400001 	.word	0x20400001

000047c0 <_fflush_r>:
    47c0:	690b      	ldr	r3, [r1, #16]
    47c2:	b570      	push	{r4, r5, r6, lr}
    47c4:	0005      	movs	r5, r0
    47c6:	000c      	movs	r4, r1
    47c8:	2b00      	cmp	r3, #0
    47ca:	d101      	bne.n	47d0 <_fflush_r+0x10>
    47cc:	2000      	movs	r0, #0
    47ce:	bd70      	pop	{r4, r5, r6, pc}
    47d0:	2800      	cmp	r0, #0
    47d2:	d004      	beq.n	47de <_fflush_r+0x1e>
    47d4:	6983      	ldr	r3, [r0, #24]
    47d6:	2b00      	cmp	r3, #0
    47d8:	d101      	bne.n	47de <_fflush_r+0x1e>
    47da:	f000 f85f 	bl	489c <__sinit>
    47de:	4b0b      	ldr	r3, [pc, #44]	; (480c <_fflush_r+0x4c>)
    47e0:	429c      	cmp	r4, r3
    47e2:	d109      	bne.n	47f8 <_fflush_r+0x38>
    47e4:	686c      	ldr	r4, [r5, #4]
    47e6:	220c      	movs	r2, #12
    47e8:	5ea3      	ldrsh	r3, [r4, r2]
    47ea:	2b00      	cmp	r3, #0
    47ec:	d0ee      	beq.n	47cc <_fflush_r+0xc>
    47ee:	0021      	movs	r1, r4
    47f0:	0028      	movs	r0, r5
    47f2:	f7ff ff5b 	bl	46ac <__sflush_r>
    47f6:	e7ea      	b.n	47ce <_fflush_r+0xe>
    47f8:	4b05      	ldr	r3, [pc, #20]	; (4810 <_fflush_r+0x50>)
    47fa:	429c      	cmp	r4, r3
    47fc:	d101      	bne.n	4802 <_fflush_r+0x42>
    47fe:	68ac      	ldr	r4, [r5, #8]
    4800:	e7f1      	b.n	47e6 <_fflush_r+0x26>
    4802:	4b04      	ldr	r3, [pc, #16]	; (4814 <_fflush_r+0x54>)
    4804:	429c      	cmp	r4, r3
    4806:	d1ee      	bne.n	47e6 <_fflush_r+0x26>
    4808:	68ec      	ldr	r4, [r5, #12]
    480a:	e7ec      	b.n	47e6 <_fflush_r+0x26>
    480c:	00004e48 	.word	0x00004e48
    4810:	00004e68 	.word	0x00004e68
    4814:	00004e28 	.word	0x00004e28

00004818 <_cleanup_r>:
    4818:	b510      	push	{r4, lr}
    481a:	4902      	ldr	r1, [pc, #8]	; (4824 <_cleanup_r+0xc>)
    481c:	f000 f8b2 	bl	4984 <_fwalk_reent>
    4820:	bd10      	pop	{r4, pc}
    4822:	46c0      	nop			; (mov r8, r8)
    4824:	000047c1 	.word	0x000047c1

00004828 <std.isra.0>:
    4828:	2300      	movs	r3, #0
    482a:	b510      	push	{r4, lr}
    482c:	0004      	movs	r4, r0
    482e:	6003      	str	r3, [r0, #0]
    4830:	6043      	str	r3, [r0, #4]
    4832:	6083      	str	r3, [r0, #8]
    4834:	8181      	strh	r1, [r0, #12]
    4836:	6643      	str	r3, [r0, #100]	; 0x64
    4838:	81c2      	strh	r2, [r0, #14]
    483a:	6103      	str	r3, [r0, #16]
    483c:	6143      	str	r3, [r0, #20]
    483e:	6183      	str	r3, [r0, #24]
    4840:	0019      	movs	r1, r3
    4842:	2208      	movs	r2, #8
    4844:	305c      	adds	r0, #92	; 0x5c
    4846:	f7ff fd3c 	bl	42c2 <memset>
    484a:	4b05      	ldr	r3, [pc, #20]	; (4860 <std.isra.0+0x38>)
    484c:	6224      	str	r4, [r4, #32]
    484e:	6263      	str	r3, [r4, #36]	; 0x24
    4850:	4b04      	ldr	r3, [pc, #16]	; (4864 <std.isra.0+0x3c>)
    4852:	62a3      	str	r3, [r4, #40]	; 0x28
    4854:	4b04      	ldr	r3, [pc, #16]	; (4868 <std.isra.0+0x40>)
    4856:	62e3      	str	r3, [r4, #44]	; 0x2c
    4858:	4b04      	ldr	r3, [pc, #16]	; (486c <std.isra.0+0x44>)
    485a:	6323      	str	r3, [r4, #48]	; 0x30
    485c:	bd10      	pop	{r4, pc}
    485e:	46c0      	nop			; (mov r8, r8)
    4860:	00004c29 	.word	0x00004c29
    4864:	00004c51 	.word	0x00004c51
    4868:	00004c89 	.word	0x00004c89
    486c:	00004cb5 	.word	0x00004cb5

00004870 <__sfmoreglue>:
    4870:	b570      	push	{r4, r5, r6, lr}
    4872:	2568      	movs	r5, #104	; 0x68
    4874:	1e4a      	subs	r2, r1, #1
    4876:	4355      	muls	r5, r2
    4878:	000e      	movs	r6, r1
    487a:	0029      	movs	r1, r5
    487c:	3174      	adds	r1, #116	; 0x74
    487e:	f000 f963 	bl	4b48 <_malloc_r>
    4882:	1e04      	subs	r4, r0, #0
    4884:	d008      	beq.n	4898 <__sfmoreglue+0x28>
    4886:	2100      	movs	r1, #0
    4888:	002a      	movs	r2, r5
    488a:	6001      	str	r1, [r0, #0]
    488c:	6046      	str	r6, [r0, #4]
    488e:	300c      	adds	r0, #12
    4890:	60a0      	str	r0, [r4, #8]
    4892:	3268      	adds	r2, #104	; 0x68
    4894:	f7ff fd15 	bl	42c2 <memset>
    4898:	0020      	movs	r0, r4
    489a:	bd70      	pop	{r4, r5, r6, pc}

0000489c <__sinit>:
    489c:	6983      	ldr	r3, [r0, #24]
    489e:	b513      	push	{r0, r1, r4, lr}
    48a0:	0004      	movs	r4, r0
    48a2:	2b00      	cmp	r3, #0
    48a4:	d128      	bne.n	48f8 <__sinit+0x5c>
    48a6:	6483      	str	r3, [r0, #72]	; 0x48
    48a8:	64c3      	str	r3, [r0, #76]	; 0x4c
    48aa:	6503      	str	r3, [r0, #80]	; 0x50
    48ac:	4b13      	ldr	r3, [pc, #76]	; (48fc <__sinit+0x60>)
    48ae:	4a14      	ldr	r2, [pc, #80]	; (4900 <__sinit+0x64>)
    48b0:	681b      	ldr	r3, [r3, #0]
    48b2:	6282      	str	r2, [r0, #40]	; 0x28
    48b4:	9301      	str	r3, [sp, #4]
    48b6:	4298      	cmp	r0, r3
    48b8:	d101      	bne.n	48be <__sinit+0x22>
    48ba:	2301      	movs	r3, #1
    48bc:	6183      	str	r3, [r0, #24]
    48be:	0020      	movs	r0, r4
    48c0:	f000 f820 	bl	4904 <__sfp>
    48c4:	6060      	str	r0, [r4, #4]
    48c6:	0020      	movs	r0, r4
    48c8:	f000 f81c 	bl	4904 <__sfp>
    48cc:	60a0      	str	r0, [r4, #8]
    48ce:	0020      	movs	r0, r4
    48d0:	f000 f818 	bl	4904 <__sfp>
    48d4:	2200      	movs	r2, #0
    48d6:	60e0      	str	r0, [r4, #12]
    48d8:	2104      	movs	r1, #4
    48da:	6860      	ldr	r0, [r4, #4]
    48dc:	f7ff ffa4 	bl	4828 <std.isra.0>
    48e0:	2201      	movs	r2, #1
    48e2:	2109      	movs	r1, #9
    48e4:	68a0      	ldr	r0, [r4, #8]
    48e6:	f7ff ff9f 	bl	4828 <std.isra.0>
    48ea:	2202      	movs	r2, #2
    48ec:	2112      	movs	r1, #18
    48ee:	68e0      	ldr	r0, [r4, #12]
    48f0:	f7ff ff9a 	bl	4828 <std.isra.0>
    48f4:	2301      	movs	r3, #1
    48f6:	61a3      	str	r3, [r4, #24]
    48f8:	bd13      	pop	{r0, r1, r4, pc}
    48fa:	46c0      	nop			; (mov r8, r8)
    48fc:	00004e24 	.word	0x00004e24
    4900:	00004819 	.word	0x00004819

00004904 <__sfp>:
    4904:	b5f8      	push	{r3, r4, r5, r6, r7, lr}
    4906:	4b1e      	ldr	r3, [pc, #120]	; (4980 <__sfp+0x7c>)
    4908:	0007      	movs	r7, r0
    490a:	681e      	ldr	r6, [r3, #0]
    490c:	69b3      	ldr	r3, [r6, #24]
    490e:	2b00      	cmp	r3, #0
    4910:	d102      	bne.n	4918 <__sfp+0x14>
    4912:	0030      	movs	r0, r6
    4914:	f7ff ffc2 	bl	489c <__sinit>
    4918:	3648      	adds	r6, #72	; 0x48
    491a:	68b4      	ldr	r4, [r6, #8]
    491c:	6873      	ldr	r3, [r6, #4]
    491e:	3b01      	subs	r3, #1
    4920:	d504      	bpl.n	492c <__sfp+0x28>
    4922:	6833      	ldr	r3, [r6, #0]
    4924:	2b00      	cmp	r3, #0
    4926:	d007      	beq.n	4938 <__sfp+0x34>
    4928:	6836      	ldr	r6, [r6, #0]
    492a:	e7f6      	b.n	491a <__sfp+0x16>
    492c:	220c      	movs	r2, #12
    492e:	5ea5      	ldrsh	r5, [r4, r2]
    4930:	2d00      	cmp	r5, #0
    4932:	d00d      	beq.n	4950 <__sfp+0x4c>
    4934:	3468      	adds	r4, #104	; 0x68
    4936:	e7f2      	b.n	491e <__sfp+0x1a>
    4938:	2104      	movs	r1, #4
    493a:	0038      	movs	r0, r7
    493c:	f7ff ff98 	bl	4870 <__sfmoreglue>
    4940:	6030      	str	r0, [r6, #0]
    4942:	2800      	cmp	r0, #0
    4944:	d1f0      	bne.n	4928 <__sfp+0x24>
    4946:	230c      	movs	r3, #12
    4948:	0004      	movs	r4, r0
    494a:	603b      	str	r3, [r7, #0]
    494c:	0020      	movs	r0, r4
    494e:	bdf8      	pop	{r3, r4, r5, r6, r7, pc}
    4950:	2301      	movs	r3, #1
    4952:	0020      	movs	r0, r4
    4954:	425b      	negs	r3, r3
    4956:	81e3      	strh	r3, [r4, #14]
    4958:	3302      	adds	r3, #2
    495a:	81a3      	strh	r3, [r4, #12]
    495c:	6665      	str	r5, [r4, #100]	; 0x64
    495e:	6025      	str	r5, [r4, #0]
    4960:	60a5      	str	r5, [r4, #8]
    4962:	6065      	str	r5, [r4, #4]
    4964:	6125      	str	r5, [r4, #16]
    4966:	6165      	str	r5, [r4, #20]
    4968:	61a5      	str	r5, [r4, #24]
    496a:	2208      	movs	r2, #8
    496c:	0029      	movs	r1, r5
    496e:	305c      	adds	r0, #92	; 0x5c
    4970:	f7ff fca7 	bl	42c2 <memset>
    4974:	6365      	str	r5, [r4, #52]	; 0x34
    4976:	63a5      	str	r5, [r4, #56]	; 0x38
    4978:	64a5      	str	r5, [r4, #72]	; 0x48
    497a:	64e5      	str	r5, [r4, #76]	; 0x4c
    497c:	e7e6      	b.n	494c <__sfp+0x48>
    497e:	46c0      	nop			; (mov r8, r8)
    4980:	00004e24 	.word	0x00004e24

00004984 <_fwalk_reent>:
    4984:	b5f7      	push	{r0, r1, r2, r4, r5, r6, r7, lr}
    4986:	0004      	movs	r4, r0
    4988:	0007      	movs	r7, r0
    498a:	2600      	movs	r6, #0
    498c:	9101      	str	r1, [sp, #4]
    498e:	3448      	adds	r4, #72	; 0x48
    4990:	2c00      	cmp	r4, #0
    4992:	d101      	bne.n	4998 <_fwalk_reent+0x14>
    4994:	0030      	movs	r0, r6
    4996:	bdfe      	pop	{r1, r2, r3, r4, r5, r6, r7, pc}
    4998:	6863      	ldr	r3, [r4, #4]
    499a:	68a5      	ldr	r5, [r4, #8]
    499c:	9300      	str	r3, [sp, #0]
    499e:	9b00      	ldr	r3, [sp, #0]
    49a0:	3b01      	subs	r3, #1
    49a2:	9300      	str	r3, [sp, #0]
    49a4:	d501      	bpl.n	49aa <_fwalk_reent+0x26>
    49a6:	6824      	ldr	r4, [r4, #0]
    49a8:	e7f2      	b.n	4990 <_fwalk_reent+0xc>
    49aa:	89ab      	ldrh	r3, [r5, #12]
    49ac:	2b01      	cmp	r3, #1
    49ae:	d908      	bls.n	49c2 <_fwalk_reent+0x3e>
    49b0:	220e      	movs	r2, #14
    49b2:	5eab      	ldrsh	r3, [r5, r2]
    49b4:	3301      	adds	r3, #1
    49b6:	d004      	beq.n	49c2 <_fwalk_reent+0x3e>
    49b8:	0029      	movs	r1, r5
    49ba:	0038      	movs	r0, r7
    49bc:	9b01      	ldr	r3, [sp, #4]
    49be:	4798      	blx	r3
    49c0:	4306      	orrs	r6, r0
    49c2:	3568      	adds	r5, #104	; 0x68
    49c4:	e7eb      	b.n	499e <_fwalk_reent+0x1a>
	...

000049c8 <__swhatbuf_r>:
    49c8:	b570      	push	{r4, r5, r6, lr}
    49ca:	000e      	movs	r6, r1
    49cc:	001d      	movs	r5, r3
    49ce:	230e      	movs	r3, #14
    49d0:	5ec9      	ldrsh	r1, [r1, r3]
    49d2:	b090      	sub	sp, #64	; 0x40
    49d4:	0014      	movs	r4, r2
    49d6:	2900      	cmp	r1, #0
    49d8:	da07      	bge.n	49ea <__swhatbuf_r+0x22>
    49da:	2300      	movs	r3, #0
    49dc:	602b      	str	r3, [r5, #0]
    49de:	89b3      	ldrh	r3, [r6, #12]
    49e0:	061b      	lsls	r3, r3, #24
    49e2:	d411      	bmi.n	4a08 <__swhatbuf_r+0x40>
    49e4:	2380      	movs	r3, #128	; 0x80
    49e6:	00db      	lsls	r3, r3, #3
    49e8:	e00f      	b.n	4a0a <__swhatbuf_r+0x42>
    49ea:	aa01      	add	r2, sp, #4
    49ec:	f000 f98e 	bl	4d0c <_fstat_r>
    49f0:	2800      	cmp	r0, #0
    49f2:	dbf2      	blt.n	49da <__swhatbuf_r+0x12>
    49f4:	22f0      	movs	r2, #240	; 0xf0
    49f6:	9b02      	ldr	r3, [sp, #8]
    49f8:	0212      	lsls	r2, r2, #8
    49fa:	4013      	ands	r3, r2
    49fc:	4a05      	ldr	r2, [pc, #20]	; (4a14 <__swhatbuf_r+0x4c>)
    49fe:	189b      	adds	r3, r3, r2
    4a00:	425a      	negs	r2, r3
    4a02:	4153      	adcs	r3, r2
    4a04:	602b      	str	r3, [r5, #0]
    4a06:	e7ed      	b.n	49e4 <__swhatbuf_r+0x1c>
    4a08:	2340      	movs	r3, #64	; 0x40
    4a0a:	2000      	movs	r0, #0
    4a0c:	6023      	str	r3, [r4, #0]
    4a0e:	b010      	add	sp, #64	; 0x40
    4a10:	bd70      	pop	{r4, r5, r6, pc}
    4a12:	46c0      	nop			; (mov r8, r8)
    4a14:	ffffe000 	.word	0xffffe000

00004a18 <__smakebuf_r>:
    4a18:	b5f7      	push	{r0, r1, r2, r4, r5, r6, r7, lr}
    4a1a:	2602      	movs	r6, #2
    4a1c:	898b      	ldrh	r3, [r1, #12]
    4a1e:	0005      	movs	r5, r0
    4a20:	000c      	movs	r4, r1
    4a22:	4233      	tst	r3, r6
    4a24:	d006      	beq.n	4a34 <__smakebuf_r+0x1c>
    4a26:	0023      	movs	r3, r4
    4a28:	3347      	adds	r3, #71	; 0x47
    4a2a:	6023      	str	r3, [r4, #0]
    4a2c:	6123      	str	r3, [r4, #16]
    4a2e:	2301      	movs	r3, #1
    4a30:	6163      	str	r3, [r4, #20]
    4a32:	bdf7      	pop	{r0, r1, r2, r4, r5, r6, r7, pc}
    4a34:	ab01      	add	r3, sp, #4
    4a36:	466a      	mov	r2, sp
    4a38:	f7ff ffc6 	bl	49c8 <__swhatbuf_r>
    4a3c:	9900      	ldr	r1, [sp, #0]
    4a3e:	0007      	movs	r7, r0
    4a40:	0028      	movs	r0, r5
    4a42:	f000 f881 	bl	4b48 <_malloc_r>
    4a46:	2800      	cmp	r0, #0
    4a48:	d108      	bne.n	4a5c <__smakebuf_r+0x44>
    4a4a:	220c      	movs	r2, #12
    4a4c:	5ea3      	ldrsh	r3, [r4, r2]
    4a4e:	059a      	lsls	r2, r3, #22
    4a50:	d4ef      	bmi.n	4a32 <__smakebuf_r+0x1a>
    4a52:	2203      	movs	r2, #3
    4a54:	4393      	bics	r3, r2
    4a56:	431e      	orrs	r6, r3
    4a58:	81a6      	strh	r6, [r4, #12]
    4a5a:	e7e4      	b.n	4a26 <__smakebuf_r+0xe>
    4a5c:	4b0f      	ldr	r3, [pc, #60]	; (4a9c <__smakebuf_r+0x84>)
    4a5e:	62ab      	str	r3, [r5, #40]	; 0x28
    4a60:	2380      	movs	r3, #128	; 0x80
    4a62:	89a2      	ldrh	r2, [r4, #12]
    4a64:	6020      	str	r0, [r4, #0]
    4a66:	4313      	orrs	r3, r2
    4a68:	81a3      	strh	r3, [r4, #12]
    4a6a:	9b00      	ldr	r3, [sp, #0]
    4a6c:	6120      	str	r0, [r4, #16]
    4a6e:	6163      	str	r3, [r4, #20]
    4a70:	9b01      	ldr	r3, [sp, #4]
    4a72:	2b00      	cmp	r3, #0
    4a74:	d00d      	beq.n	4a92 <__smakebuf_r+0x7a>
    4a76:	230e      	movs	r3, #14
    4a78:	5ee1      	ldrsh	r1, [r4, r3]
    4a7a:	0028      	movs	r0, r5
    4a7c:	f000 f958 	bl	4d30 <_isatty_r>
    4a80:	2800      	cmp	r0, #0
    4a82:	d006      	beq.n	4a92 <__smakebuf_r+0x7a>
    4a84:	2203      	movs	r2, #3
    4a86:	89a3      	ldrh	r3, [r4, #12]
    4a88:	4393      	bics	r3, r2
    4a8a:	001a      	movs	r2, r3
    4a8c:	2301      	movs	r3, #1
    4a8e:	4313      	orrs	r3, r2
    4a90:	81a3      	strh	r3, [r4, #12]
    4a92:	89a0      	ldrh	r0, [r4, #12]
    4a94:	4338      	orrs	r0, r7
    4a96:	81a0      	strh	r0, [r4, #12]
    4a98:	e7cb      	b.n	4a32 <__smakebuf_r+0x1a>
    4a9a:	46c0      	nop			; (mov r8, r8)
    4a9c:	00004819 	.word	0x00004819

00004aa0 <malloc>:
    4aa0:	b510      	push	{r4, lr}
    4aa2:	4b03      	ldr	r3, [pc, #12]	; (4ab0 <malloc+0x10>)
    4aa4:	0001      	movs	r1, r0
    4aa6:	6818      	ldr	r0, [r3, #0]
    4aa8:	f000 f84e 	bl	4b48 <_malloc_r>
    4aac:	bd10      	pop	{r4, pc}
    4aae:	46c0      	nop			; (mov r8, r8)
    4ab0:	20000008 	.word	0x20000008

00004ab4 <_free_r>:
    4ab4:	b570      	push	{r4, r5, r6, lr}
    4ab6:	0005      	movs	r5, r0
    4ab8:	2900      	cmp	r1, #0
    4aba:	d010      	beq.n	4ade <_free_r+0x2a>
    4abc:	1f0c      	subs	r4, r1, #4
    4abe:	6823      	ldr	r3, [r4, #0]
    4ac0:	2b00      	cmp	r3, #0
    4ac2:	da00      	bge.n	4ac6 <_free_r+0x12>
    4ac4:	18e4      	adds	r4, r4, r3
    4ac6:	0028      	movs	r0, r5
    4ac8:	f000 f958 	bl	4d7c <__malloc_lock>
    4acc:	4a1d      	ldr	r2, [pc, #116]	; (4b44 <_free_r+0x90>)
    4ace:	6813      	ldr	r3, [r2, #0]
    4ad0:	2b00      	cmp	r3, #0
    4ad2:	d105      	bne.n	4ae0 <_free_r+0x2c>
    4ad4:	6063      	str	r3, [r4, #4]
    4ad6:	6014      	str	r4, [r2, #0]
    4ad8:	0028      	movs	r0, r5
    4ada:	f000 f950 	bl	4d7e <__malloc_unlock>
    4ade:	bd70      	pop	{r4, r5, r6, pc}
    4ae0:	42a3      	cmp	r3, r4
    4ae2:	d909      	bls.n	4af8 <_free_r+0x44>
    4ae4:	6821      	ldr	r1, [r4, #0]
    4ae6:	1860      	adds	r0, r4, r1
    4ae8:	4283      	cmp	r3, r0
    4aea:	d1f3      	bne.n	4ad4 <_free_r+0x20>
    4aec:	6818      	ldr	r0, [r3, #0]
    4aee:	685b      	ldr	r3, [r3, #4]
    4af0:	1841      	adds	r1, r0, r1
    4af2:	6021      	str	r1, [r4, #0]
    4af4:	e7ee      	b.n	4ad4 <_free_r+0x20>
    4af6:	0013      	movs	r3, r2
    4af8:	685a      	ldr	r2, [r3, #4]
    4afa:	2a00      	cmp	r2, #0
    4afc:	d001      	beq.n	4b02 <_free_r+0x4e>
    4afe:	42a2      	cmp	r2, r4
    4b00:	d9f9      	bls.n	4af6 <_free_r+0x42>
    4b02:	6819      	ldr	r1, [r3, #0]
    4b04:	1858      	adds	r0, r3, r1
    4b06:	42a0      	cmp	r0, r4
    4b08:	d10b      	bne.n	4b22 <_free_r+0x6e>
    4b0a:	6820      	ldr	r0, [r4, #0]
    4b0c:	1809      	adds	r1, r1, r0
    4b0e:	1858      	adds	r0, r3, r1
    4b10:	6019      	str	r1, [r3, #0]
    4b12:	4282      	cmp	r2, r0
    4b14:	d1e0      	bne.n	4ad8 <_free_r+0x24>
    4b16:	6810      	ldr	r0, [r2, #0]
    4b18:	6852      	ldr	r2, [r2, #4]
    4b1a:	1841      	adds	r1, r0, r1
    4b1c:	6019      	str	r1, [r3, #0]
    4b1e:	605a      	str	r2, [r3, #4]
    4b20:	e7da      	b.n	4ad8 <_free_r+0x24>
    4b22:	42a0      	cmp	r0, r4
    4b24:	d902      	bls.n	4b2c <_free_r+0x78>
    4b26:	230c      	movs	r3, #12
    4b28:	602b      	str	r3, [r5, #0]
    4b2a:	e7d5      	b.n	4ad8 <_free_r+0x24>
    4b2c:	6821      	ldr	r1, [r4, #0]
    4b2e:	1860      	adds	r0, r4, r1
    4b30:	4282      	cmp	r2, r0
    4b32:	d103      	bne.n	4b3c <_free_r+0x88>
    4b34:	6810      	ldr	r0, [r2, #0]
    4b36:	6852      	ldr	r2, [r2, #4]
    4b38:	1841      	adds	r1, r0, r1
    4b3a:	6021      	str	r1, [r4, #0]
    4b3c:	6062      	str	r2, [r4, #4]
    4b3e:	605c      	str	r4, [r3, #4]
    4b40:	e7ca      	b.n	4ad8 <_free_r+0x24>
    4b42:	46c0      	nop			; (mov r8, r8)
    4b44:	2000396c 	.word	0x2000396c

00004b48 <_malloc_r>:
    4b48:	2303      	movs	r3, #3
    4b4a:	b570      	push	{r4, r5, r6, lr}
    4b4c:	1ccd      	adds	r5, r1, #3
    4b4e:	439d      	bics	r5, r3
    4b50:	3508      	adds	r5, #8
    4b52:	0006      	movs	r6, r0
    4b54:	2d0c      	cmp	r5, #12
    4b56:	d21e      	bcs.n	4b96 <_malloc_r+0x4e>
    4b58:	250c      	movs	r5, #12
    4b5a:	42a9      	cmp	r1, r5
    4b5c:	d81d      	bhi.n	4b9a <_malloc_r+0x52>
    4b5e:	0030      	movs	r0, r6
    4b60:	f000 f90c 	bl	4d7c <__malloc_lock>
    4b64:	4a25      	ldr	r2, [pc, #148]	; (4bfc <_malloc_r+0xb4>)
    4b66:	6814      	ldr	r4, [r2, #0]
    4b68:	0021      	movs	r1, r4
    4b6a:	2900      	cmp	r1, #0
    4b6c:	d119      	bne.n	4ba2 <_malloc_r+0x5a>
    4b6e:	4c24      	ldr	r4, [pc, #144]	; (4c00 <_malloc_r+0xb8>)
    4b70:	6823      	ldr	r3, [r4, #0]
    4b72:	2b00      	cmp	r3, #0
    4b74:	d103      	bne.n	4b7e <_malloc_r+0x36>
    4b76:	0030      	movs	r0, r6
    4b78:	f000 f844 	bl	4c04 <_sbrk_r>
    4b7c:	6020      	str	r0, [r4, #0]
    4b7e:	0029      	movs	r1, r5
    4b80:	0030      	movs	r0, r6
    4b82:	f000 f83f 	bl	4c04 <_sbrk_r>
    4b86:	1c43      	adds	r3, r0, #1
    4b88:	d12c      	bne.n	4be4 <_malloc_r+0x9c>
    4b8a:	230c      	movs	r3, #12
    4b8c:	0030      	movs	r0, r6
    4b8e:	6033      	str	r3, [r6, #0]
    4b90:	f000 f8f5 	bl	4d7e <__malloc_unlock>
    4b94:	e003      	b.n	4b9e <_malloc_r+0x56>
    4b96:	2d00      	cmp	r5, #0
    4b98:	dadf      	bge.n	4b5a <_malloc_r+0x12>
    4b9a:	230c      	movs	r3, #12
    4b9c:	6033      	str	r3, [r6, #0]
    4b9e:	2000      	movs	r0, #0
    4ba0:	bd70      	pop	{r4, r5, r6, pc}
    4ba2:	680b      	ldr	r3, [r1, #0]
    4ba4:	1b5b      	subs	r3, r3, r5
    4ba6:	d41a      	bmi.n	4bde <_malloc_r+0x96>
    4ba8:	2b0b      	cmp	r3, #11
    4baa:	d903      	bls.n	4bb4 <_malloc_r+0x6c>
    4bac:	600b      	str	r3, [r1, #0]
    4bae:	18cc      	adds	r4, r1, r3
    4bb0:	6025      	str	r5, [r4, #0]
    4bb2:	e003      	b.n	4bbc <_malloc_r+0x74>
    4bb4:	428c      	cmp	r4, r1
    4bb6:	d10e      	bne.n	4bd6 <_malloc_r+0x8e>
    4bb8:	6863      	ldr	r3, [r4, #4]
    4bba:	6013      	str	r3, [r2, #0]
    4bbc:	0030      	movs	r0, r6
    4bbe:	f000 f8de 	bl	4d7e <__malloc_unlock>
    4bc2:	0020      	movs	r0, r4
    4bc4:	2207      	movs	r2, #7
    4bc6:	300b      	adds	r0, #11
    4bc8:	1d23      	adds	r3, r4, #4
    4bca:	4390      	bics	r0, r2
    4bcc:	1ac3      	subs	r3, r0, r3
    4bce:	d0e7      	beq.n	4ba0 <_malloc_r+0x58>
    4bd0:	425a      	negs	r2, r3
    4bd2:	50e2      	str	r2, [r4, r3]
    4bd4:	e7e4      	b.n	4ba0 <_malloc_r+0x58>
    4bd6:	684b      	ldr	r3, [r1, #4]
    4bd8:	6063      	str	r3, [r4, #4]
    4bda:	000c      	movs	r4, r1
    4bdc:	e7ee      	b.n	4bbc <_malloc_r+0x74>
    4bde:	000c      	movs	r4, r1
    4be0:	6849      	ldr	r1, [r1, #4]
    4be2:	e7c2      	b.n	4b6a <_malloc_r+0x22>
    4be4:	2303      	movs	r3, #3
    4be6:	1cc4      	adds	r4, r0, #3
    4be8:	439c      	bics	r4, r3
    4bea:	42a0      	cmp	r0, r4
    4bec:	d0e0      	beq.n	4bb0 <_malloc_r+0x68>
    4bee:	1a21      	subs	r1, r4, r0
    4bf0:	0030      	movs	r0, r6
    4bf2:	f000 f807 	bl	4c04 <_sbrk_r>
    4bf6:	1c43      	adds	r3, r0, #1
    4bf8:	d1da      	bne.n	4bb0 <_malloc_r+0x68>
    4bfa:	e7c6      	b.n	4b8a <_malloc_r+0x42>
    4bfc:	2000396c 	.word	0x2000396c
    4c00:	20003970 	.word	0x20003970

00004c04 <_sbrk_r>:
    4c04:	2300      	movs	r3, #0
    4c06:	b570      	push	{r4, r5, r6, lr}
    4c08:	4c06      	ldr	r4, [pc, #24]	; (4c24 <_sbrk_r+0x20>)
    4c0a:	0005      	movs	r5, r0
    4c0c:	0008      	movs	r0, r1
    4c0e:	6023      	str	r3, [r4, #0]
    4c10:	f7ff f8d0 	bl	3db4 <_sbrk>
    4c14:	1c43      	adds	r3, r0, #1
    4c16:	d103      	bne.n	4c20 <_sbrk_r+0x1c>
    4c18:	6823      	ldr	r3, [r4, #0]
    4c1a:	2b00      	cmp	r3, #0
    4c1c:	d000      	beq.n	4c20 <_sbrk_r+0x1c>
    4c1e:	602b      	str	r3, [r5, #0]
    4c20:	bd70      	pop	{r4, r5, r6, pc}
    4c22:	46c0      	nop			; (mov r8, r8)
    4c24:	200039d8 	.word	0x200039d8

00004c28 <__sread>:
    4c28:	b570      	push	{r4, r5, r6, lr}
    4c2a:	000c      	movs	r4, r1
    4c2c:	250e      	movs	r5, #14
    4c2e:	5f49      	ldrsh	r1, [r1, r5]
    4c30:	f000 f8a6 	bl	4d80 <_read_r>
    4c34:	2800      	cmp	r0, #0
    4c36:	db03      	blt.n	4c40 <__sread+0x18>
    4c38:	6d63      	ldr	r3, [r4, #84]	; 0x54
    4c3a:	181b      	adds	r3, r3, r0
    4c3c:	6563      	str	r3, [r4, #84]	; 0x54
    4c3e:	bd70      	pop	{r4, r5, r6, pc}
    4c40:	89a3      	ldrh	r3, [r4, #12]
    4c42:	4a02      	ldr	r2, [pc, #8]	; (4c4c <__sread+0x24>)
    4c44:	4013      	ands	r3, r2
    4c46:	81a3      	strh	r3, [r4, #12]
    4c48:	e7f9      	b.n	4c3e <__sread+0x16>
    4c4a:	46c0      	nop			; (mov r8, r8)
    4c4c:	ffffefff 	.word	0xffffefff

00004c50 <__swrite>:
    4c50:	b5f8      	push	{r3, r4, r5, r6, r7, lr}
    4c52:	001f      	movs	r7, r3
    4c54:	898b      	ldrh	r3, [r1, #12]
    4c56:	0005      	movs	r5, r0
    4c58:	000c      	movs	r4, r1
    4c5a:	0016      	movs	r6, r2
    4c5c:	05db      	lsls	r3, r3, #23
    4c5e:	d505      	bpl.n	4c6c <__swrite+0x1c>
    4c60:	230e      	movs	r3, #14
    4c62:	5ec9      	ldrsh	r1, [r1, r3]
    4c64:	2200      	movs	r2, #0
    4c66:	2302      	movs	r3, #2
    4c68:	f000 f874 	bl	4d54 <_lseek_r>
    4c6c:	89a3      	ldrh	r3, [r4, #12]
    4c6e:	4a05      	ldr	r2, [pc, #20]	; (4c84 <__swrite+0x34>)
    4c70:	0028      	movs	r0, r5
    4c72:	4013      	ands	r3, r2
    4c74:	81a3      	strh	r3, [r4, #12]
    4c76:	0032      	movs	r2, r6
    4c78:	230e      	movs	r3, #14
    4c7a:	5ee1      	ldrsh	r1, [r4, r3]
    4c7c:	003b      	movs	r3, r7
    4c7e:	f000 f81f 	bl	4cc0 <_write_r>
    4c82:	bdf8      	pop	{r3, r4, r5, r6, r7, pc}
    4c84:	ffffefff 	.word	0xffffefff

00004c88 <__sseek>:
    4c88:	b570      	push	{r4, r5, r6, lr}
    4c8a:	000c      	movs	r4, r1
    4c8c:	250e      	movs	r5, #14
    4c8e:	5f49      	ldrsh	r1, [r1, r5]
    4c90:	f000 f860 	bl	4d54 <_lseek_r>
    4c94:	89a3      	ldrh	r3, [r4, #12]
    4c96:	1c42      	adds	r2, r0, #1
    4c98:	d103      	bne.n	4ca2 <__sseek+0x1a>
    4c9a:	4a05      	ldr	r2, [pc, #20]	; (4cb0 <__sseek+0x28>)
    4c9c:	4013      	ands	r3, r2
    4c9e:	81a3      	strh	r3, [r4, #12]
    4ca0:	bd70      	pop	{r4, r5, r6, pc}
    4ca2:	2280      	movs	r2, #128	; 0x80
    4ca4:	0152      	lsls	r2, r2, #5
    4ca6:	4313      	orrs	r3, r2
    4ca8:	81a3      	strh	r3, [r4, #12]
    4caa:	6560      	str	r0, [r4, #84]	; 0x54
    4cac:	e7f8      	b.n	4ca0 <__sseek+0x18>
    4cae:	46c0      	nop			; (mov r8, r8)
    4cb0:	ffffefff 	.word	0xffffefff

00004cb4 <__sclose>:
    4cb4:	b510      	push	{r4, lr}
    4cb6:	230e      	movs	r3, #14
    4cb8:	5ec9      	ldrsh	r1, [r1, r3]
    4cba:	f000 f815 	bl	4ce8 <_close_r>
    4cbe:	bd10      	pop	{r4, pc}

00004cc0 <_write_r>:
    4cc0:	b570      	push	{r4, r5, r6, lr}
    4cc2:	0005      	movs	r5, r0
    4cc4:	0008      	movs	r0, r1
    4cc6:	0011      	movs	r1, r2
    4cc8:	2200      	movs	r2, #0
    4cca:	4c06      	ldr	r4, [pc, #24]	; (4ce4 <_write_r+0x24>)
    4ccc:	6022      	str	r2, [r4, #0]
    4cce:	001a      	movs	r2, r3
    4cd0:	f7fc fe88 	bl	19e4 <_write>
    4cd4:	1c43      	adds	r3, r0, #1
    4cd6:	d103      	bne.n	4ce0 <_write_r+0x20>
    4cd8:	6823      	ldr	r3, [r4, #0]
    4cda:	2b00      	cmp	r3, #0
    4cdc:	d000      	beq.n	4ce0 <_write_r+0x20>
    4cde:	602b      	str	r3, [r5, #0]
    4ce0:	bd70      	pop	{r4, r5, r6, pc}
    4ce2:	46c0      	nop			; (mov r8, r8)
    4ce4:	200039d8 	.word	0x200039d8

00004ce8 <_close_r>:
    4ce8:	2300      	movs	r3, #0
    4cea:	b570      	push	{r4, r5, r6, lr}
    4cec:	4c06      	ldr	r4, [pc, #24]	; (4d08 <_close_r+0x20>)
    4cee:	0005      	movs	r5, r0
    4cf0:	0008      	movs	r0, r1
    4cf2:	6023      	str	r3, [r4, #0]
    4cf4:	f7ff f87c 	bl	3df0 <_close>
    4cf8:	1c43      	adds	r3, r0, #1
    4cfa:	d103      	bne.n	4d04 <_close_r+0x1c>
    4cfc:	6823      	ldr	r3, [r4, #0]
    4cfe:	2b00      	cmp	r3, #0
    4d00:	d000      	beq.n	4d04 <_close_r+0x1c>
    4d02:	602b      	str	r3, [r5, #0]
    4d04:	bd70      	pop	{r4, r5, r6, pc}
    4d06:	46c0      	nop			; (mov r8, r8)
    4d08:	200039d8 	.word	0x200039d8

00004d0c <_fstat_r>:
    4d0c:	2300      	movs	r3, #0
    4d0e:	b570      	push	{r4, r5, r6, lr}
    4d10:	4c06      	ldr	r4, [pc, #24]	; (4d2c <_fstat_r+0x20>)
    4d12:	0005      	movs	r5, r0
    4d14:	0008      	movs	r0, r1
    4d16:	0011      	movs	r1, r2
    4d18:	6023      	str	r3, [r4, #0]
    4d1a:	f7ff f873 	bl	3e04 <_fstat>
    4d1e:	1c43      	adds	r3, r0, #1
    4d20:	d103      	bne.n	4d2a <_fstat_r+0x1e>
    4d22:	6823      	ldr	r3, [r4, #0]
    4d24:	2b00      	cmp	r3, #0
    4d26:	d000      	beq.n	4d2a <_fstat_r+0x1e>
    4d28:	602b      	str	r3, [r5, #0]
    4d2a:	bd70      	pop	{r4, r5, r6, pc}
    4d2c:	200039d8 	.word	0x200039d8

00004d30 <_isatty_r>:
    4d30:	2300      	movs	r3, #0
    4d32:	b570      	push	{r4, r5, r6, lr}
    4d34:	4c06      	ldr	r4, [pc, #24]	; (4d50 <_isatty_r+0x20>)
    4d36:	0005      	movs	r5, r0
    4d38:	0008      	movs	r0, r1
    4d3a:	6023      	str	r3, [r4, #0]
    4d3c:	f7ff f870 	bl	3e20 <_isatty>
    4d40:	1c43      	adds	r3, r0, #1
    4d42:	d103      	bne.n	4d4c <_isatty_r+0x1c>
    4d44:	6823      	ldr	r3, [r4, #0]
    4d46:	2b00      	cmp	r3, #0
    4d48:	d000      	beq.n	4d4c <_isatty_r+0x1c>
    4d4a:	602b      	str	r3, [r5, #0]
    4d4c:	bd70      	pop	{r4, r5, r6, pc}
    4d4e:	46c0      	nop			; (mov r8, r8)
    4d50:	200039d8 	.word	0x200039d8

00004d54 <_lseek_r>:
    4d54:	b570      	push	{r4, r5, r6, lr}
    4d56:	0005      	movs	r5, r0
    4d58:	0008      	movs	r0, r1
    4d5a:	0011      	movs	r1, r2
    4d5c:	2200      	movs	r2, #0
    4d5e:	4c06      	ldr	r4, [pc, #24]	; (4d78 <_lseek_r+0x24>)
    4d60:	6022      	str	r2, [r4, #0]
    4d62:	001a      	movs	r2, r3
    4d64:	f7ff f865 	bl	3e32 <_lseek>
    4d68:	1c43      	adds	r3, r0, #1
    4d6a:	d103      	bne.n	4d74 <_lseek_r+0x20>
    4d6c:	6823      	ldr	r3, [r4, #0]
    4d6e:	2b00      	cmp	r3, #0
    4d70:	d000      	beq.n	4d74 <_lseek_r+0x20>
    4d72:	602b      	str	r3, [r5, #0]
    4d74:	bd70      	pop	{r4, r5, r6, pc}
    4d76:	46c0      	nop			; (mov r8, r8)
    4d78:	200039d8 	.word	0x200039d8

00004d7c <__malloc_lock>:
    4d7c:	4770      	bx	lr

00004d7e <__malloc_unlock>:
    4d7e:	4770      	bx	lr

00004d80 <_read_r>:
    4d80:	b570      	push	{r4, r5, r6, lr}
    4d82:	0005      	movs	r5, r0
    4d84:	0008      	movs	r0, r1
    4d86:	0011      	movs	r1, r2
    4d88:	2200      	movs	r2, #0
    4d8a:	4c06      	ldr	r4, [pc, #24]	; (4da4 <_read_r+0x24>)
    4d8c:	6022      	str	r2, [r4, #0]
    4d8e:	001a      	movs	r2, r3
    4d90:	f7fc fdfe 	bl	1990 <_read>
    4d94:	1c43      	adds	r3, r0, #1
    4d96:	d103      	bne.n	4da0 <_read_r+0x20>
    4d98:	6823      	ldr	r3, [r4, #0]
    4d9a:	2b00      	cmp	r3, #0
    4d9c:	d000      	beq.n	4da0 <_read_r+0x20>
    4d9e:	602b      	str	r3, [r5, #0]
    4da0:	bd70      	pop	{r4, r5, r6, pc}
    4da2:	46c0      	nop			; (mov r8, r8)
    4da4:	200039d8 	.word	0x200039d8
    4da8:	45434552 	.word	0x45434552
    4dac:	5f455649 	.word	0x5f455649
    4db0:	5f515f31 	.word	0x5f515f31
    4db4:	00000031 	.word	0x00000031
    4db8:	6f727265 	.word	0x6f727265
    4dbc:	0d2e2e72 	.word	0x0d2e2e72
    4dc0:	0000000a 	.word	0x0000000a
    4dc4:	454c4449 	.word	0x454c4449
    4dc8:	00000000 	.word	0x00000000
    4dcc:	42000400 	.word	0x42000400
    4dd0:	42000800 	.word	0x42000800
    4dd4:	42000c00 	.word	0x42000c00
    4dd8:	42001000 	.word	0x42001000
    4ddc:	42001400 	.word	0x42001400
    4de0:	42001800 	.word	0x42001800
    4de4:	0c0b0a09 	.word	0x0c0b0a09
    4de8:	00000e0d 	.word	0x00000e0d
    4dec:	0000355a 	.word	0x0000355a
    4df0:	000035d0 	.word	0x000035d0
    4df4:	000035d0 	.word	0x000035d0
    4df8:	00003574 	.word	0x00003574
    4dfc:	0000357a 	.word	0x0000357a
    4e00:	00003560 	.word	0x00003560
    4e04:	00003580 	.word	0x00003580
    4e08:	000035b6 	.word	0x000035b6
    4e0c:	65686373 	.word	0x65686373
    4e10:	656c7564 	.word	0x656c7564
    4e14:	74732072 	.word	0x74732072
    4e18:	65747261 	.word	0x65747261
    4e1c:	0d2e2e64 	.word	0x0d2e2e64
    4e20:	0000000a 	.word	0x0000000a

00004e24 <_global_impure_ptr>:
    4e24:	2000000c                                ... 

00004e28 <__sf_fake_stderr>:
	...

00004e48 <__sf_fake_stdin>:
	...

00004e68 <__sf_fake_stdout>:
	...

00004e88 <_init>:
    4e88:	b5f8      	push	{r3, r4, r5, r6, r7, lr}
    4e8a:	46c0      	nop			; (mov r8, r8)
    4e8c:	bcf8      	pop	{r3, r4, r5, r6, r7}
    4e8e:	bc08      	pop	{r3}
    4e90:	469e      	mov	lr, r3
    4e92:	4770      	bx	lr

00004e94 <__init_array_start>:
    4e94:	000000d1 	.word	0x000000d1

00004e98 <_fini>:
    4e98:	b5f8      	push	{r3, r4, r5, r6, r7, lr}
    4e9a:	46c0      	nop			; (mov r8, r8)
    4e9c:	bcf8      	pop	{r3, r4, r5, r6, r7}
    4e9e:	bc08      	pop	{r3}
    4ea0:	469e      	mov	lr, r3
    4ea2:	4770      	bx	lr

00004ea4 <__fini_array_start>:
    4ea4:	000000a9 	.word	0x000000a9
